68K GAS   			page 1


   1               	
   2               	.file"conio.c"
   3               	.text
   4               	.align2
   5               	.globlclreol
   7               	clreol:
   8 0000 4E56 0000 	link.w %fp,#0
   9 0004 4E5E      	unlk %fp
  10 0006 4E75      	rts
  12               	.align2
  13               	.globlclrscr
  15               	clrscr:
  16 0008 4E56 0000 	link.w %fp,#0
  17 000c 4EB9 0000 	jsr nkc_clrscr
  17      0000 
  18 0012 4E5E      	unlk %fp
  19 0014 4E75      	rts
  21               	.align2
  22               	.globlgotoxy
  24               	gotoxy:
  25 0016 4E56 0000 	link.w %fp,#0
  26 001a 202E 000C 	move.l 12(%fp),%d0
  27 001e 1000      	move.b %d0,%d0
  28 0020 4281      	clr.l %d1
  29 0022 1200      	move.b %d0,%d1
  30 0024 202E 0008 	move.l 8(%fp),%d0
  31 0028 1000      	move.b %d0,%d0
  32 002a 1000      	move.b %d0,%d0
  33 002c 0280 0000 	and.l #255,%d0
  33      00FF 
  34 0032 2F01      	move.l %d1,-(%sp)
  35 0034 2F00      	move.l %d0,-(%sp)
  36 0036 4EB9 0000 	jsr nkc_setxy
  36      0000 
  37 003c 508F      	addq.l #8,%sp
  38 003e 4E5E      	unlk %fp
  39 0040 4E75      	rts
  41               	.align2
  42               	.globlwherex
  44               	wherex:
  45 0042 4E56 FFFC 	link.w %fp,#-4
  46 0046 200E      	move.l %fp,%d0
  47 0048 5580      	subq.l #2,%d0
  48 004a 2F00      	move.l %d0,-(%sp)
  49 004c 200E      	move.l %fp,%d0
  50 004e 5380      	subq.l #1,%d0
  51 0050 2F00      	move.l %d0,-(%sp)
  52 0052 4EB9 0000 	jsr nkc_getxy
  52      0000 
  53 0058 508F      	addq.l #8,%sp
  54 005a 102E FFFF 	move.b -1(%fp),%d0
  55 005e 1000      	move.b %d0,%d0
  56 0060 0280 0000 	and.l #255,%d0
  56      00FF 
  57 0066 4E5E      	unlk %fp
  58 0068 4E75      	rts
  60               	.align2
68K GAS   			page 2


  61               	.globlwherey
  63               	wherey:
  64 006a 4E56 FFFC 	link.w %fp,#-4
  65 006e 200E      	move.l %fp,%d0
  66 0070 5580      	subq.l #2,%d0
  67 0072 2F00      	move.l %d0,-(%sp)
  68 0074 200E      	move.l %fp,%d0
  69 0076 5380      	subq.l #1,%d0
  70 0078 2F00      	move.l %d0,-(%sp)
  71 007a 4EB9 0000 	jsr nkc_getxy
  71      0000 
  72 0080 508F      	addq.l #8,%sp
  73 0082 102E FFFE 	move.b -2(%fp),%d0
  74 0086 1000      	move.b %d0,%d0
  75 0088 0280 0000 	and.l #255,%d0
  75      00FF 
  76 008e 4E5E      	unlk %fp
  77 0090 4E75      	rts
  79               	.align2
  80               	.globlgetch
  82               	getch:
  83 0092 4E56 0000 	link.w %fp,#0
  84 0096 4EB9 0000 	jsr nkc_getchar
  84      0000 
  85 009c 49C0      	extb.l %d0
  86 009e 4E5E      	unlk %fp
  87 00a0 4E75      	rts
  89               	.align2
  90               	.globlgetche
  92               	getche:
  93 00a2 4E56 FFFC 	link.w %fp,#-4
  94 00a6 4EB9 0000 	jsr nkc_getchar
  94      0000 
  95 00ac 1200      	move.b %d0,%d1
  96 00ae 49C1      	extb.l %d1
  97 00b0 2D41 FFFC 	move.l %d1,-4(%fp)
  98 00b4 202E FFFC 	move.l -4(%fp),%d0
  99 00b8 1000      	move.b %d0,%d0
 100 00ba 49C0      	extb.l %d0
 101 00bc 2F00      	move.l %d0,-(%sp)
 102 00be 4EB9 0000 	jsr nkc_putchar
 102      0000 
 103 00c4 588F      	addq.l #4,%sp
 104 00c6 202E FFFC 	move.l -4(%fp),%d0
 105 00ca 4E5E      	unlk %fp
 106 00cc 4E75      	rts
 108               	.align2
 109               	.globlkbhit
 111               	kbhit:
 112 00ce 4E56 0000 	link.w %fp,#0
 113 00d2 4EB9 0000 	jsr nkc_kbhit
 113      0000 
 114 00d8 1000      	move.b %d0,%d0
 115 00da 0280 0000 	and.l #255,%d0
 115      00FF 
 116 00e0 4E5E      	unlk %fp
 117 00e2 4E75      	rts
68K GAS   			page 3


 119               	.align2
 120               	.globlputch
 122               	putch:
 123 00e4 4E56 0000 	link.w %fp,#0
 124 00e8 202E 0008 	move.l 8(%fp),%d0
 125 00ec 1000      	move.b %d0,%d0
 126 00ee 49C0      	extb.l %d0
 127 00f0 2F00      	move.l %d0,-(%sp)
 128 00f2 4EB9 0000 	jsr nkc_putchar
 128      0000 
 129 00f8 588F      	addq.l #4,%sp
 130 00fa 4E5E      	unlk %fp
 131 00fc 4E75      	rts
 133               	.align2
 134               	.globldelline
 136               	delline:
 137 00fe 4E56 0000 	link.w %fp,#0
 138 0102 4E5E      	unlk %fp
 139 0104 4E75      	rts
 141               	.align2
 142               	.globlgettext
 144               	gettext:
 145 0106 4E56 0000 	link.w %fp,#0
 146 010a 4E5E      	unlk %fp
 147 010c 4E75      	rts
 149               	.align2
 150               	.globlgettextinfo
 152               	gettextinfo:
 153 010e 4E56 0000 	link.w %fp,#0
 154 0112 4E5E      	unlk %fp
 155 0114 4E75      	rts
 157               	.align2
 158               	.globlhighvideo
 160               	highvideo:
 161 0116 4E56 0000 	link.w %fp,#0
 162 011a 4E5E      	unlk %fp
 163 011c 4E75      	rts
 165               	.align2
 166               	.globlinsline
 168               	insline:
 169 011e 4E56 0000 	link.w %fp,#0
 170 0122 4E5E      	unlk %fp
 171 0124 4E75      	rts
 173               	.align2
 174               	.globllowvideo
 176               	lowvideo:
 177 0126 4E56 0000 	link.w %fp,#0
 178 012a 4E5E      	unlk %fp
 179 012c 4E75      	rts
 181               	.align2
 182               	.globlmovetext
 184               	movetext:
 185 012e 4E56 0000 	link.w %fp,#0
 186 0132 4E5E      	unlk %fp
 187 0134 4E75      	rts
 189               	.align2
 190               	.globlnormvideo
68K GAS   			page 4


 192               	normvideo:
 193 0136 4E56 0000 	link.w %fp,#0
 194 013a 4E5E      	unlk %fp
 195 013c 4E75      	rts
 197               	.align2
 198               	.globlputtext
 200               	puttext:
 201 013e 4E56 0000 	link.w %fp,#0
 202 0142 4E5E      	unlk %fp
 203 0144 4E75      	rts
 205               	.align2
 206               	.globltextattr
 208               	textattr:
 209 0146 4E56 0000 	link.w %fp,#0
 210 014a 4E5E      	unlk %fp
 211 014c 4E75      	rts
 213               	.align2
 214               	.globltextbackground
 216               	textbackground:
 217 014e 4E56 0000 	link.w %fp,#0
 218 0152 4E5E      	unlk %fp
 219 0154 4E75      	rts
 221               	.align2
 222               	.globltextcolor
 224               	textcolor:
 225 0156 4E56 0000 	link.w %fp,#0
 226 015a 4E5E      	unlk %fp
 227 015c 4E75      	rts
 229               	.align2
 230               	.globltextmode
 232               	textmode:
 233 015e 4E56 0000 	link.w %fp,#0
 234 0162 4E5E      	unlk %fp
 235 0164 4E75      	rts
 237               	.align2
 238               	.globlwindow
 240               	window:
 241 0166 4E56 0000 	link.w %fp,#0
 242 016a 4E5E      	unlk %fp
 243 016c 4E75      	rts
 245               	.align2
 246               	.globl_setcursortype
 248               	_setcursortype:
 249 016e 4E56 0000 	link.w %fp,#0
 250 0172 202E 0008 	move.l 8(%fp),%d0
 251 0176 4A80      	tst.l %d0
 252 0178 670C      	jeq .L26
 253 017a 4A80      	tst.l %d0
 254 017c 6D18      	jlt .L24
 255 017e 7202      	moveq #2,%d1
 256 0180 B280      	cmp.l %d0,%d1
 257 0182 6D12      	jlt .L24
 258 0184 6008      	jra .L28
 259               	.L26:
 260 0186 4EB9 0000 	jsr nkc_curoff
 260      0000 
 261 018c 6008      	jra .L24
68K GAS   			page 5


 262               	.L28:
 263 018e 4EB9 0000 	jsr nkc_curon
 263      0000 
 264 0194 4E71      	nop
 265               	.L24:
 266 0196 4E5E      	unlk %fp
 267 0198 4E75      	rts
 269               	.align2
 270               	.globlcgets
 272               	cgets:
 273 019a 4E56 0000 	link.w %fp,#0
 274 019e 2049      	move.l %a1,%a0
 275 01a0 2001      	move.l %d1,%d0
 276 01a2 4E5E      	unlk %fp
 277 01a4 4E75      	rts
 279               	.align2
 280               	.globlcprintf
 282               	cprintf:
 283 01a6 4E56 0000 	link.w %fp,#0
 284 01aa 4E5E      	unlk %fp
 285 01ac 4E75      	rts
 287               	.align2
 288               	.globlcputs
 290               	cputs:
 291 01ae 4E56 0000 	link.w %fp,#0
 292 01b2 4E5E      	unlk %fp
 293 01b4 4E75      	rts
 295               	.align2
 296               	.globlcscanf
 298               	cscanf:
 299 01b6 4E56 0000 	link.w %fp,#0
 300 01ba 4E5E      	unlk %fp
 301 01bc 4E75      	rts
 303               	.align2
 304               	.globlgetpass
 306               	getpass:
 307 01be 4E56 0000 	link.w %fp,#0
 308 01c2 2049      	move.l %a1,%a0
 309 01c4 2001      	move.l %d1,%d0
 310 01c6 4E5E      	unlk %fp
 311 01c8 4E75      	rts
 313               	.align2
 314               	.globlungetch
 316               	ungetch:
 317 01ca 4E56 0000 	link.w %fp,#0
 318 01ce 4E5E      	unlk %fp
 319 01d0 4E75      	rts
 321               	.ident"GCC: (GNU) 4.5.1"
 322               	.section.note.GNU-stack,"",@progbits
68K GAS   			page 6


DEFINED SYMBOLS
                            *ABS*:00000000 conio.c
    {standard input}:7      .text:00000000 clreol
    {standard input}:15     .text:00000008 clrscr
    {standard input}:24     .text:00000016 gotoxy
    {standard input}:44     .text:00000042 wherex
    {standard input}:63     .text:0000006a wherey
    {standard input}:82     .text:00000092 getch
    {standard input}:92     .text:000000a2 getche
    {standard input}:111    .text:000000ce kbhit
    {standard input}:122    .text:000000e4 putch
    {standard input}:136    .text:000000fe delline
    {standard input}:144    .text:00000106 gettext
    {standard input}:152    .text:0000010e gettextinfo
    {standard input}:160    .text:00000116 highvideo
    {standard input}:168    .text:0000011e insline
    {standard input}:176    .text:00000126 lowvideo
    {standard input}:184    .text:0000012e movetext
    {standard input}:192    .text:00000136 normvideo
    {standard input}:200    .text:0000013e puttext
    {standard input}:208    .text:00000146 textattr
    {standard input}:216    .text:0000014e textbackground
    {standard input}:224    .text:00000156 textcolor
    {standard input}:232    .text:0000015e textmode
    {standard input}:240    .text:00000166 window
    {standard input}:248    .text:0000016e _setcursortype
    {standard input}:272    .text:0000019a cgets
    {standard input}:282    .text:000001a6 cprintf
    {standard input}:290    .text:000001ae cputs
    {standard input}:298    .text:000001b6 cscanf
    {standard input}:306    .text:000001be getpass
    {standard input}:316    .text:000001ca ungetch

UNDEFINED SYMBOLS
nkc_clrscr
nkc_setxy
nkc_getxy
nkc_getchar
nkc_putchar
nkc_kbhit
nkc_curoff
nkc_curon
