68K GAS   			page 1


   1               	
   2               	.file"e_acosh.c"
   3               	.section.rodata
   4               	.align2
   7               	one:
   8 0000 3FF0 0000 	.long1072693248
   9 0004 0000 0000 	.long0
  10               	.align2
  13               	ln2:
  14 0008 3FE6 2E42 	.long1072049730
  15 000c FEFA 39EF 	.long-17155601
  16               	.text
  17               	.align2
  18               	.globl__ieee754_acosh
  20               	__ieee754_acosh:
  21 0000 4E56 FFF4 	link.w %fp,#-12
  22 0004 48E7 3C00 	movem.l #15360,-(%sp)
  23 0008 200E      	move.l %fp,%d0
  24 000a 5080      	addq.l #8,%d0
  25 000c 2040      	move.l %d0,%a0
  26 000e 2D50 FFFC 	move.l (%a0),-4(%fp)
  27 0012 0CAE 3FEF 	cmp.l #1072693247,-4(%fp)
  27      FFFF FFFC 
  28 001a 6E78      	jgt .L2
  29 001c 202E 0008 	move.l 8(%fp),%d0
  30 0020 222E 000C 	move.l 12(%fp),%d1
  31 0024 206E 0008 	move.l 8(%fp),%a0
  32 0028 226E 000C 	move.l 12(%fp),%a1
  33 002c 2F01      	move.l %d1,-(%sp)
  34 002e 2F00      	move.l %d0,-(%sp)
  35 0030 F21F 5400 	fmove.d (%sp)+,%fp0
  36 0034 2F09      	move.l %a1,-(%sp)
  37 0036 2F08      	move.l %a0,-(%sp)
  38 0038 F21F 5480 	fmove.d (%sp)+,%fp1
  39 003c F200 0428 	fsub.x %fp1,%fp0
  40 0040 F227 7400 	fmove.d %fp0,-(%sp)
  41 0044 201F      	move.l (%sp)+,%d0
  42 0046 221F      	move.l (%sp)+,%d1
  43 0048 206E 0008 	move.l 8(%fp),%a0
  44 004c 226E 000C 	move.l 12(%fp),%a1
  45 0050 242E 0008 	move.l 8(%fp),%d2
  46 0054 262E 000C 	move.l 12(%fp),%d3
  47 0058 2F09      	move.l %a1,-(%sp)
  48 005a 2F08      	move.l %a0,-(%sp)
  49 005c F21F 5400 	fmove.d (%sp)+,%fp0
  50 0060 2F03      	move.l %d3,-(%sp)
  51 0062 2F02      	move.l %d2,-(%sp)
  52 0064 F21F 5480 	fmove.d (%sp)+,%fp1
  53 0068 F200 0428 	fsub.x %fp1,%fp0
  54 006c F227 7400 	fmove.d %fp0,-(%sp)
  55 0070 205F      	move.l (%sp)+,%a0
  56 0072 225F      	move.l (%sp)+,%a1
  57 0074 2F01      	move.l %d1,-(%sp)
  58 0076 2F00      	move.l %d0,-(%sp)
  59 0078 F21F 5400 	fmove.d (%sp)+,%fp0
  60 007c 2F09      	move.l %a1,-(%sp)
  61 007e 2F08      	move.l %a0,-(%sp)
68K GAS   			page 2


  62 0080 F21F 5480 	fmove.d (%sp)+,%fp1
  63 0084 F200 0420 	fdiv.x %fp1,%fp0
  64 0088 F227 7400 	fmove.d %fp0,-(%sp)
  65 008c 201F      	move.l (%sp)+,%d0
  66 008e 221F      	move.l (%sp)+,%d1
  67 0090 6000 027C 	jra .L3
  68               	.L2:
  69 0094 0CAE 41AF 	cmp.l #1102053375,-4(%fp)
  69      FFFF FFFC 
  70 009c 6F7A      	jle .L4
  71 009e 0CAE 7FEF 	cmp.l #2146435071,-4(%fp)
  71      FFFF FFFC 
  72 00a6 6F28      	jle .L5
  73 00a8 202E 0008 	move.l 8(%fp),%d0
  74 00ac 222E 000C 	move.l 12(%fp),%d1
  75 00b0 2F01      	move.l %d1,-(%sp)
  76 00b2 2F00      	move.l %d0,-(%sp)
  77 00b4 F21F 5400 	fmove.d (%sp)+,%fp0
  78 00b8 2F01      	move.l %d1,-(%sp)
  79 00ba 2F00      	move.l %d0,-(%sp)
  80 00bc F21F 5480 	fmove.d (%sp)+,%fp1
  81 00c0 F200 0422 	fadd.x %fp1,%fp0
  82 00c4 F227 7400 	fmove.d %fp0,-(%sp)
  83 00c8 201F      	move.l (%sp)+,%d0
  84 00ca 221F      	move.l (%sp)+,%d1
  85 00cc 6000 0240 	jra .L3
  86               	.L5:
  87 00d0 202E 0008 	move.l 8(%fp),%d0
  88 00d4 222E 000C 	move.l 12(%fp),%d1
  89 00d8 2F01      	move.l %d1,-(%sp)
  90 00da 2F00      	move.l %d0,-(%sp)
  91 00dc 4EB9 0000 	jsr __ieee754_log
  91      0000 
  92 00e2 508F      	addq.l #8,%sp
  93 00e4 F227 7400 	fmove.d %fp0,-(%sp)
  94 00e8 205F      	move.l (%sp)+,%a0
  95 00ea 225F      	move.l (%sp)+,%a1
  96 00ec 2039 0000 	move.l ln2,%d0
  96      0000 
  97 00f2 2239 0000 	move.l ln2+4,%d1
  97      0000 
  98 00f8 2F09      	move.l %a1,-(%sp)
  99 00fa 2F08      	move.l %a0,-(%sp)
 100 00fc F21F 5400 	fmove.d (%sp)+,%fp0
 101 0100 2F01      	move.l %d1,-(%sp)
 102 0102 2F00      	move.l %d0,-(%sp)
 103 0104 F21F 5480 	fmove.d (%sp)+,%fp1
 104 0108 F200 0422 	fadd.x %fp1,%fp0
 105 010c F227 7400 	fmove.d %fp0,-(%sp)
 106 0110 201F      	move.l (%sp)+,%d0
 107 0112 221F      	move.l (%sp)+,%d1
 108 0114 6000 01F8 	jra .L3
 109               	.L4:
 110 0118 222E FFFC 	move.l -4(%fp),%d1
 111 011c 0681 C010 	add.l #-1072693248,%d1
 111      0000 
 112 0122 200E      	move.l %fp,%d0
68K GAS   			page 3


 113 0124 5080      	addq.l #8,%d0
 114 0126 5880      	addq.l #4,%d0
 115 0128 2040      	move.l %d0,%a0
 116 012a 2010      	move.l (%a0),%d0
 117 012c 8081      	or.l %d1,%d0
 118 012e 4A80      	tst.l %d0
 119 0130 6608      	jne .L6
 120 0132 4280      	clr.l %d0
 121 0134 4281      	clr.l %d1
 122 0136 6000 01D6 	jra .L3
 123               	.L6:
 124 013a 0CAE 4000 	cmp.l #1073741824,-4(%fp)
 124      0000 FFFC 
 125 0142 6F00 010A 	jle .L7
 126 0146 206E 0008 	move.l 8(%fp),%a0
 127 014a 226E 000C 	move.l 12(%fp),%a1
 128 014e 202E 0008 	move.l 8(%fp),%d0
 129 0152 222E 000C 	move.l 12(%fp),%d1
 130 0156 2F09      	move.l %a1,-(%sp)
 131 0158 2F08      	move.l %a0,-(%sp)
 132 015a F21F 5400 	fmove.d (%sp)+,%fp0
 133 015e 2F01      	move.l %d1,-(%sp)
 134 0160 2F00      	move.l %d0,-(%sp)
 135 0162 F21F 5480 	fmove.d (%sp)+,%fp1
 136 0166 F200 0423 	fmul.x %fp1,%fp0
 137 016a F22E 7400 	fmove.d %fp0,-12(%fp)
 137      FFF4 
 138 0170 202E 0008 	move.l 8(%fp),%d0
 139 0174 222E 000C 	move.l 12(%fp),%d1
 140 0178 2F01      	move.l %d1,-(%sp)
 141 017a 2F00      	move.l %d0,-(%sp)
 142 017c F21F 5400 	fmove.d (%sp)+,%fp0
 143 0180 2F01      	move.l %d1,-(%sp)
 144 0182 2F00      	move.l %d0,-(%sp)
 145 0184 F21F 5480 	fmove.d (%sp)+,%fp1
 146 0188 F200 0422 	fadd.x %fp1,%fp0
 147 018c F227 7400 	fmove.d %fp0,-(%sp)
 148 0190 241F      	move.l (%sp)+,%d2
 149 0192 261F      	move.l (%sp)+,%d3
 150 0194 2839 0000 	move.l one,%d4
 150      0000 
 151 019a 2A39 0000 	move.l one+4,%d5
 151      0000 
 152 01a0 2039 0000 	move.l one,%d0
 152      0000 
 153 01a6 2239 0000 	move.l one+4,%d1
 153      0000 
 154 01ac F22E 5400 	fmove.d -12(%fp),%fp0
 154      FFF4 
 155 01b2 2F01      	move.l %d1,-(%sp)
 156 01b4 2F00      	move.l %d0,-(%sp)
 157 01b6 F21F 5480 	fmove.d (%sp)+,%fp1
 158 01ba F200 0428 	fsub.x %fp1,%fp0
 159 01be F227 7400 	fmove.d %fp0,-(%sp)
 160 01c2 201F      	move.l (%sp)+,%d0
 161 01c4 221F      	move.l (%sp)+,%d1
 162 01c6 2F01      	move.l %d1,-(%sp)
68K GAS   			page 4


 163 01c8 2F00      	move.l %d0,-(%sp)
 164 01ca 4EB9 0000 	jsr sqrt
 164      0000 
 165 01d0 508F      	addq.l #8,%sp
 166 01d2 F227 7400 	fmove.d %fp0,-(%sp)
 167 01d6 205F      	move.l (%sp)+,%a0
 168 01d8 225F      	move.l (%sp)+,%a1
 169 01da 202E 0008 	move.l 8(%fp),%d0
 170 01de 222E 000C 	move.l 12(%fp),%d1
 171 01e2 2F09      	move.l %a1,-(%sp)
 172 01e4 2F08      	move.l %a0,-(%sp)
 173 01e6 F21F 5400 	fmove.d (%sp)+,%fp0
 174 01ea 2F01      	move.l %d1,-(%sp)
 175 01ec 2F00      	move.l %d0,-(%sp)
 176 01ee F21F 5480 	fmove.d (%sp)+,%fp1
 177 01f2 F200 0422 	fadd.x %fp1,%fp0
 178 01f6 F227 7400 	fmove.d %fp0,-(%sp)
 179 01fa 201F      	move.l (%sp)+,%d0
 180 01fc 221F      	move.l (%sp)+,%d1
 181 01fe 2F05      	move.l %d5,-(%sp)
 182 0200 2F04      	move.l %d4,-(%sp)
 183 0202 F21F 5400 	fmove.d (%sp)+,%fp0
 184 0206 2F01      	move.l %d1,-(%sp)
 185 0208 2F00      	move.l %d0,-(%sp)
 186 020a F21F 5480 	fmove.d (%sp)+,%fp1
 187 020e F200 0420 	fdiv.x %fp1,%fp0
 188 0212 F227 7400 	fmove.d %fp0,-(%sp)
 189 0216 201F      	move.l (%sp)+,%d0
 190 0218 221F      	move.l (%sp)+,%d1
 191 021a 2F03      	move.l %d3,-(%sp)
 192 021c 2F02      	move.l %d2,-(%sp)
 193 021e F21F 5400 	fmove.d (%sp)+,%fp0
 194 0222 2F01      	move.l %d1,-(%sp)
 195 0224 2F00      	move.l %d0,-(%sp)
 196 0226 F21F 5480 	fmove.d (%sp)+,%fp1
 197 022a F200 0428 	fsub.x %fp1,%fp0
 198 022e F227 7400 	fmove.d %fp0,-(%sp)
 199 0232 201F      	move.l (%sp)+,%d0
 200 0234 221F      	move.l (%sp)+,%d1
 201 0236 2F01      	move.l %d1,-(%sp)
 202 0238 2F00      	move.l %d0,-(%sp)
 203 023a 4EB9 0000 	jsr __ieee754_log
 203      0000 
 204 0240 508F      	addq.l #8,%sp
 205 0242 F227 7400 	fmove.d %fp0,-(%sp)
 206 0246 201F      	move.l (%sp)+,%d0
 207 0248 221F      	move.l (%sp)+,%d1
 208 024a 6000 00C2 	jra .L3
 209               	.L7:
 210 024e 202E 0008 	move.l 8(%fp),%d0
 211 0252 222E 000C 	move.l 12(%fp),%d1
 212 0256 2079 0000 	move.l one,%a0
 212      0000 
 213 025c 2279 0000 	move.l one+4,%a1
 213      0000 
 214 0262 2F01      	move.l %d1,-(%sp)
 215 0264 2F00      	move.l %d0,-(%sp)
68K GAS   			page 5


 216 0266 F21F 5400 	fmove.d (%sp)+,%fp0
 217 026a 2F09      	move.l %a1,-(%sp)
 218 026c 2F08      	move.l %a0,-(%sp)
 219 026e F21F 5480 	fmove.d (%sp)+,%fp1
 220 0272 F200 0428 	fsub.x %fp1,%fp0
 221 0276 F22E 7400 	fmove.d %fp0,-12(%fp)
 221      FFF4 
 222 027c 202E FFF4 	move.l -12(%fp),%d0
 223 0280 222E FFF8 	move.l -8(%fp),%d1
 224 0284 2F01      	move.l %d1,-(%sp)
 225 0286 2F00      	move.l %d0,-(%sp)
 226 0288 F21F 5400 	fmove.d (%sp)+,%fp0
 227 028c 2F01      	move.l %d1,-(%sp)
 228 028e 2F00      	move.l %d0,-(%sp)
 229 0290 F21F 5480 	fmove.d (%sp)+,%fp1
 230 0294 F200 0422 	fadd.x %fp1,%fp0
 231 0298 F227 7400 	fmove.d %fp0,-(%sp)
 232 029c 205F      	move.l (%sp)+,%a0
 233 029e 225F      	move.l (%sp)+,%a1
 234 02a0 F22E 5400 	fmove.d -12(%fp),%fp0
 234      FFF4 
 235 02a6 F22E 5423 	fmul.d -12(%fp),%fp0
 235      FFF4 
 236 02ac F227 7400 	fmove.d %fp0,-(%sp)
 237 02b0 201F      	move.l (%sp)+,%d0
 238 02b2 221F      	move.l (%sp)+,%d1
 239 02b4 2F09      	move.l %a1,-(%sp)
 240 02b6 2F08      	move.l %a0,-(%sp)
 241 02b8 F21F 5480 	fmove.d (%sp)+,%fp1
 242 02bc 2F01      	move.l %d1,-(%sp)
 243 02be 2F00      	move.l %d0,-(%sp)
 244 02c0 F21F 5400 	fmove.d (%sp)+,%fp0
 245 02c4 F200 00A2 	fadd.x %fp0,%fp1
 246 02c8 F227 7480 	fmove.d %fp1,-(%sp)
 247 02cc 201F      	move.l (%sp)+,%d0
 248 02ce 221F      	move.l (%sp)+,%d1
 249 02d0 2F01      	move.l %d1,-(%sp)
 250 02d2 2F00      	move.l %d0,-(%sp)
 251 02d4 4EB9 0000 	jsr sqrt
 251      0000 
 252 02da 508F      	addq.l #8,%sp
 253 02dc F227 7400 	fmove.d %fp0,-(%sp)
 254 02e0 201F      	move.l (%sp)+,%d0
 255 02e2 221F      	move.l (%sp)+,%d1
 256 02e4 2F01      	move.l %d1,-(%sp)
 257 02e6 2F00      	move.l %d0,-(%sp)
 258 02e8 F21F 5480 	fmove.d (%sp)+,%fp1
 259 02ec F22E 54A2 	fadd.d -12(%fp),%fp1
 259      FFF4 
 260 02f2 F227 7480 	fmove.d %fp1,-(%sp)
 261 02f6 201F      	move.l (%sp)+,%d0
 262 02f8 221F      	move.l (%sp)+,%d1
 263 02fa 2F01      	move.l %d1,-(%sp)
 264 02fc 2F00      	move.l %d0,-(%sp)
 265 02fe 4EB9 0000 	jsr log1p
 265      0000 
 266 0304 508F      	addq.l #8,%sp
68K GAS   			page 6


 267 0306 F227 7400 	fmove.d %fp0,-(%sp)
 268 030a 201F      	move.l (%sp)+,%d0
 269 030c 221F      	move.l (%sp)+,%d1
 270               	.L3:
 271 030e 2F01      	move.l %d1,-(%sp)
 272 0310 2F00      	move.l %d0,-(%sp)
 273 0312 F21F 5400 	fmove.d (%sp)+,%fp0
 274 0316 4CEE 003C 	movem.l -28(%fp),#60
 274      FFE4 
 275 031c 4E5E      	unlk %fp
 276 031e 4E75      	rts
 278               	.ident"GCC: (GNU) 4.5.1"
 279               	.section.note.GNU-stack,"",@progbits
68K GAS   			page 7


DEFINED SYMBOLS
                            *ABS*:00000000 e_acosh.c
    {standard input}:7      .rodata:00000000 one
    {standard input}:13     .rodata:00000008 ln2
    {standard input}:20     .text:00000000 __ieee754_acosh

UNDEFINED SYMBOLS
__ieee754_log
sqrt
log1p
