68K GAS   			page 1


   1               	
   2               	.file"e_cosh.c"
   3               	.section.rodata
   4               	.align2
   7               	one:
   8 0000 3FF0 0000 	.long1072693248
   9 0004 0000 0000 	.long0
  10               	.align2
  13               	half:
  14 0008 3FE0 0000 	.long1071644672
  15 000c 0000 0000 	.long0
  16               	.align2
  19               	huge:
  20 0010 7E37 E43C 	.long2117592124
  21 0014 8800 759C 	.long-2013235812
  22               	.text
  23               	.align2
  24               	.globl__ieee754_cosh
  26               	__ieee754_cosh:
  27 0000 4E56 FFE8 	link.w %fp,#-24
  28 0004 2F02      	move.l %d2,-(%sp)
  29 0006 200E      	move.l %fp,%d0
  30 0008 5080      	addq.l #8,%d0
  31 000a 2040      	move.l %d0,%a0
  32 000c 2D50 FFFC 	move.l (%a0),-4(%fp)
  33 0010 08AE 0007 	bclr #7,-4(%fp)
  33      FFFC 
  34 0016 0CAE 7FEF 	cmp.l #2146435071,-4(%fp)
  34      FFFF FFFC 
  35 001e 6F30      	jle .L2
  36 0020 206E 0008 	move.l 8(%fp),%a0
  37 0024 226E 000C 	move.l 12(%fp),%a1
  38 0028 202E 0008 	move.l 8(%fp),%d0
  39 002c 222E 000C 	move.l 12(%fp),%d1
  40 0030 2F09      	move.l %a1,-(%sp)
  41 0032 2F08      	move.l %a0,-(%sp)
  42 0034 F21F 5400 	fmove.d (%sp)+,%fp0
  43 0038 2F01      	move.l %d1,-(%sp)
  44 003a 2F00      	move.l %d0,-(%sp)
  45 003c F21F 5480 	fmove.d (%sp)+,%fp1
  46 0040 F200 0423 	fmul.x %fp1,%fp0
  47 0044 F227 7400 	fmove.d %fp0,-(%sp)
  48 0048 201F      	move.l (%sp)+,%d0
  49 004a 221F      	move.l (%sp)+,%d1
  50 004c 6000 02F4 	jra .L3
  51               	.L2:
  52 0050 0CAE 3FD6 	cmp.l #1071001154,-4(%fp)
  52      2E42 FFFC 
  53 0058 6E00 00E6 	jgt .L4
  54 005c 202E 0008 	move.l 8(%fp),%d0
  55 0060 222E 000C 	move.l 12(%fp),%d1
  56 0064 2F01      	move.l %d1,-(%sp)
  57 0066 2F00      	move.l %d0,-(%sp)
  58 0068 4EB9 0000 	jsr fabs
  58      0000 
  59 006e 508F      	addq.l #8,%sp
  60 0070 F227 7400 	fmove.d %fp0,-(%sp)
68K GAS   			page 2


  61 0074 201F      	move.l (%sp)+,%d0
  62 0076 221F      	move.l (%sp)+,%d1
  63 0078 2F01      	move.l %d1,-(%sp)
  64 007a 2F00      	move.l %d0,-(%sp)
  65 007c 4EB9 0000 	jsr expm1
  65      0000 
  66 0082 508F      	addq.l #8,%sp
  67 0084 F22E 7400 	fmove.d %fp0,-12(%fp)
  67      FFF4 
  68 008a 2039 0000 	move.l one,%d0
  68      0000 
  69 0090 2239 0000 	move.l one+4,%d1
  69      0000 
  70 0096 2F01      	move.l %d1,-(%sp)
  71 0098 2F00      	move.l %d0,-(%sp)
  72 009a F21F 5400 	fmove.d (%sp)+,%fp0
  73 009e F22E 5422 	fadd.d -12(%fp),%fp0
  73      FFF4 
  74 00a4 F22E 7400 	fmove.d %fp0,-20(%fp)
  74      FFEC 
  75 00aa 0CAE 3C7F 	cmp.l #1015021567,-4(%fp)
  75      FFFF FFFC 
  76 00b2 6E0C      	jgt .L5
  77 00b4 202E FFEC 	move.l -20(%fp),%d0
  78 00b8 222E FFF0 	move.l -16(%fp),%d1
  79 00bc 6000 0284 	jra .L3
  80               	.L5:
  81 00c0 F22E 5480 	fmove.d -12(%fp),%fp1
  81      FFF4 
  82 00c6 F22E 54A3 	fmul.d -12(%fp),%fp1
  82      FFF4 
  83 00cc F227 7480 	fmove.d %fp1,-(%sp)
  84 00d0 205F      	move.l (%sp)+,%a0
  85 00d2 225F      	move.l (%sp)+,%a1
  86 00d4 202E FFEC 	move.l -20(%fp),%d0
  87 00d8 222E FFF0 	move.l -16(%fp),%d1
  88 00dc 2F01      	move.l %d1,-(%sp)
  89 00de 2F00      	move.l %d0,-(%sp)
  90 00e0 F21F 5400 	fmove.d (%sp)+,%fp0
  91 00e4 2F01      	move.l %d1,-(%sp)
  92 00e6 2F00      	move.l %d0,-(%sp)
  93 00e8 F21F 5480 	fmove.d (%sp)+,%fp1
  94 00ec F200 0422 	fadd.x %fp1,%fp0
  95 00f0 F227 7400 	fmove.d %fp0,-(%sp)
  96 00f4 201F      	move.l (%sp)+,%d0
  97 00f6 221F      	move.l (%sp)+,%d1
  98 00f8 2F09      	move.l %a1,-(%sp)
  99 00fa 2F08      	move.l %a0,-(%sp)
 100 00fc F21F 5400 	fmove.d (%sp)+,%fp0
 101 0100 2F01      	move.l %d1,-(%sp)
 102 0102 2F00      	move.l %d0,-(%sp)
 103 0104 F21F 5480 	fmove.d (%sp)+,%fp1
 104 0108 F200 0420 	fdiv.x %fp1,%fp0
 105 010c F227 7400 	fmove.d %fp0,-(%sp)
 106 0110 201F      	move.l (%sp)+,%d0
 107 0112 221F      	move.l (%sp)+,%d1
 108 0114 2079 0000 	move.l one,%a0
68K GAS   			page 3


 108      0000 
 109 011a 2279 0000 	move.l one+4,%a1
 109      0000 
 110 0120 2F01      	move.l %d1,-(%sp)
 111 0122 2F00      	move.l %d0,-(%sp)
 112 0124 F21F 5400 	fmove.d (%sp)+,%fp0
 113 0128 2F09      	move.l %a1,-(%sp)
 114 012a 2F08      	move.l %a0,-(%sp)
 115 012c F21F 5480 	fmove.d (%sp)+,%fp1
 116 0130 F200 0422 	fadd.x %fp1,%fp0
 117 0134 F227 7400 	fmove.d %fp0,-(%sp)
 118 0138 201F      	move.l (%sp)+,%d0
 119 013a 221F      	move.l (%sp)+,%d1
 120 013c 6000 0204 	jra .L3
 121               	.L4:
 122 0140 0CAE 4035 	cmp.l #1077280767,-4(%fp)
 122      FFFF FFFC 
 123 0148 6E00 0094 	jgt .L6
 124 014c 202E 0008 	move.l 8(%fp),%d0
 125 0150 222E 000C 	move.l 12(%fp),%d1
 126 0154 2F01      	move.l %d1,-(%sp)
 127 0156 2F00      	move.l %d0,-(%sp)
 128 0158 4EB9 0000 	jsr fabs
 128      0000 
 129 015e 508F      	addq.l #8,%sp
 130 0160 F227 7400 	fmove.d %fp0,-(%sp)
 131 0164 201F      	move.l (%sp)+,%d0
 132 0166 221F      	move.l (%sp)+,%d1
 133 0168 2F01      	move.l %d1,-(%sp)
 134 016a 2F00      	move.l %d0,-(%sp)
 135 016c 4EB9 0000 	jsr __ieee754_exp
 135      0000 
 136 0172 508F      	addq.l #8,%sp
 137 0174 F22E 7400 	fmove.d %fp0,-12(%fp)
 137      FFF4 
 138 017a 2039 0000 	move.l half,%d0
 138      0000 
 139 0180 2239 0000 	move.l half+4,%d1
 139      0000 
 140 0186 2F01      	move.l %d1,-(%sp)
 141 0188 2F00      	move.l %d0,-(%sp)
 142 018a F21F 5400 	fmove.d (%sp)+,%fp0
 143 018e F22E 5423 	fmul.d -12(%fp),%fp0
 143      FFF4 
 144 0194 F227 7400 	fmove.d %fp0,-(%sp)
 145 0198 205F      	move.l (%sp)+,%a0
 146 019a 225F      	move.l (%sp)+,%a1
 147 019c 2039 0000 	move.l half,%d0
 147      0000 
 148 01a2 2239 0000 	move.l half+4,%d1
 148      0000 
 149 01a8 2F01      	move.l %d1,-(%sp)
 150 01aa 2F00      	move.l %d0,-(%sp)
 151 01ac F21F 5480 	fmove.d (%sp)+,%fp1
 152 01b0 F22E 54A0 	fdiv.d -12(%fp),%fp1
 152      FFF4 
 153 01b6 F227 7480 	fmove.d %fp1,-(%sp)
68K GAS   			page 4


 154 01ba 201F      	move.l (%sp)+,%d0
 155 01bc 221F      	move.l (%sp)+,%d1
 156 01be 2F09      	move.l %a1,-(%sp)
 157 01c0 2F08      	move.l %a0,-(%sp)
 158 01c2 F21F 5400 	fmove.d (%sp)+,%fp0
 159 01c6 2F01      	move.l %d1,-(%sp)
 160 01c8 2F00      	move.l %d0,-(%sp)
 161 01ca F21F 5480 	fmove.d (%sp)+,%fp1
 162 01ce F200 0422 	fadd.x %fp1,%fp0
 163 01d2 F227 7400 	fmove.d %fp0,-(%sp)
 164 01d6 201F      	move.l (%sp)+,%d0
 165 01d8 221F      	move.l (%sp)+,%d1
 166 01da 6000 0166 	jra .L3
 167               	.L6:
 168 01de 0CAE 4086 	cmp.l #1082535489,-4(%fp)
 168      2E41 FFFC 
 169 01e6 6E5C      	jgt .L7
 170 01e8 202E 0008 	move.l 8(%fp),%d0
 171 01ec 222E 000C 	move.l 12(%fp),%d1
 172 01f0 2F01      	move.l %d1,-(%sp)
 173 01f2 2F00      	move.l %d0,-(%sp)
 174 01f4 4EB9 0000 	jsr fabs
 174      0000 
 175 01fa 508F      	addq.l #8,%sp
 176 01fc F227 7400 	fmove.d %fp0,-(%sp)
 177 0200 201F      	move.l (%sp)+,%d0
 178 0202 221F      	move.l (%sp)+,%d1
 179 0204 2F01      	move.l %d1,-(%sp)
 180 0206 2F00      	move.l %d0,-(%sp)
 181 0208 4EB9 0000 	jsr __ieee754_exp
 181      0000 
 182 020e 508F      	addq.l #8,%sp
 183 0210 F227 7400 	fmove.d %fp0,-(%sp)
 184 0214 205F      	move.l (%sp)+,%a0
 185 0216 225F      	move.l (%sp)+,%a1
 186 0218 2039 0000 	move.l half,%d0
 186      0000 
 187 021e 2239 0000 	move.l half+4,%d1
 187      0000 
 188 0224 2F09      	move.l %a1,-(%sp)
 189 0226 2F08      	move.l %a0,-(%sp)
 190 0228 F21F 5400 	fmove.d (%sp)+,%fp0
 191 022c 2F01      	move.l %d1,-(%sp)
 192 022e 2F00      	move.l %d0,-(%sp)
 193 0230 F21F 5480 	fmove.d (%sp)+,%fp1
 194 0234 F200 0423 	fmul.x %fp1,%fp0
 195 0238 F227 7400 	fmove.d %fp0,-(%sp)
 196 023c 201F      	move.l (%sp)+,%d0
 197 023e 221F      	move.l (%sp)+,%d1
 198 0240 6000 0100 	jra .L3
 199               	.L7:
 200 0244 220E      	move.l %fp,%d1
 201 0246 5081      	addq.l #8,%d1
 202 0248 203C 0000 	move.l #one,%d0
 202      0000 
 203 024e 2040      	move.l %d0,%a0
 204 0250 2010      	move.l (%a0),%d0
68K GAS   			page 5


 205 0252 741D      	moveq #29,%d2
 206 0254 E4A8      	lsr.l %d2,%d0
 207 0256 E588      	lsl.l #2,%d0
 208 0258 D081      	add.l %d1,%d0
 209 025a 2040      	move.l %d0,%a0
 210 025c 2D50 FFE8 	move.l (%a0),-24(%fp)
 211 0260 0CAE 4086 	cmp.l #1082536909,-4(%fp)
 211      33CD FFFC 
 212 0268 6F18      	jle .L8
 213 026a 0CAE 4086 	cmp.l #1082536910,-4(%fp)
 213      33CE FFFC 
 214 0272 6600 009A 	jne .L9
 215 0276 0CAE 8FB9 	cmp.l #-1883637635,-24(%fp)
 215      F87D FFE8 
 216 027e 6200 008E 	jhi .L9
 217               	.L8:
 218 0282 202E 0008 	move.l 8(%fp),%d0
 219 0286 222E 000C 	move.l 12(%fp),%d1
 220 028a 2F01      	move.l %d1,-(%sp)
 221 028c 2F00      	move.l %d0,-(%sp)
 222 028e 4EB9 0000 	jsr fabs
 222      0000 
 223 0294 508F      	addq.l #8,%sp
 224 0296 F227 7400 	fmove.d %fp0,-(%sp)
 225 029a 205F      	move.l (%sp)+,%a0
 226 029c 225F      	move.l (%sp)+,%a1
 227 029e 2039 0000 	move.l half,%d0
 227      0000 
 228 02a4 2239 0000 	move.l half+4,%d1
 228      0000 
 229 02aa 2F09      	move.l %a1,-(%sp)
 230 02ac 2F08      	move.l %a0,-(%sp)
 231 02ae F21F 5400 	fmove.d (%sp)+,%fp0
 232 02b2 2F01      	move.l %d1,-(%sp)
 233 02b4 2F00      	move.l %d0,-(%sp)
 234 02b6 F21F 5480 	fmove.d (%sp)+,%fp1
 235 02ba F200 0423 	fmul.x %fp1,%fp0
 236 02be F227 7400 	fmove.d %fp0,-(%sp)
 237 02c2 201F      	move.l (%sp)+,%d0
 238 02c4 221F      	move.l (%sp)+,%d1
 239 02c6 2F01      	move.l %d1,-(%sp)
 240 02c8 2F00      	move.l %d0,-(%sp)
 241 02ca 4EB9 0000 	jsr __ieee754_exp
 241      0000 
 242 02d0 508F      	addq.l #8,%sp
 243 02d2 F22E 7400 	fmove.d %fp0,-20(%fp)
 243      FFEC 
 244 02d8 2039 0000 	move.l half,%d0
 244      0000 
 245 02de 2239 0000 	move.l half+4,%d1
 245      0000 
 246 02e4 2F01      	move.l %d1,-(%sp)
 247 02e6 2F00      	move.l %d0,-(%sp)
 248 02e8 F21F 5400 	fmove.d (%sp)+,%fp0
 249 02ec F22E 5423 	fmul.d -20(%fp),%fp0
 249      FFEC 
 250 02f2 F22E 7400 	fmove.d %fp0,-12(%fp)
68K GAS   			page 6


 250      FFF4 
 251 02f8 F22E 5480 	fmove.d -12(%fp),%fp1
 251      FFF4 
 252 02fe F22E 54A3 	fmul.d -20(%fp),%fp1
 252      FFEC 
 253 0304 F227 7480 	fmove.d %fp1,-(%sp)
 254 0308 201F      	move.l (%sp)+,%d0
 255 030a 221F      	move.l (%sp)+,%d1
 256 030c 6034      	jra .L3
 257               	.L9:
 258 030e 2079 0000 	move.l huge,%a0
 258      0000 
 259 0314 2279 0000 	move.l huge+4,%a1
 259      0000 
 260 031a 2039 0000 	move.l huge,%d0
 260      0000 
 261 0320 2239 0000 	move.l huge+4,%d1
 261      0000 
 262 0326 2F09      	move.l %a1,-(%sp)
 263 0328 2F08      	move.l %a0,-(%sp)
 264 032a F21F 5400 	fmove.d (%sp)+,%fp0
 265 032e 2F01      	move.l %d1,-(%sp)
 266 0330 2F00      	move.l %d0,-(%sp)
 267 0332 F21F 5480 	fmove.d (%sp)+,%fp1
 268 0336 F200 0423 	fmul.x %fp1,%fp0
 269 033a F227 7400 	fmove.d %fp0,-(%sp)
 270 033e 201F      	move.l (%sp)+,%d0
 271 0340 221F      	move.l (%sp)+,%d1
 272               	.L3:
 273 0342 2F01      	move.l %d1,-(%sp)
 274 0344 2F00      	move.l %d0,-(%sp)
 275 0346 F21F 5400 	fmove.d (%sp)+,%fp0
 276 034a 242E FFE4 	move.l -28(%fp),%d2
 277 034e 4E5E      	unlk %fp
 278 0350 4E75      	rts
 280               	.ident"GCC: (GNU) 4.5.1"
 281               	.section.note.GNU-stack,"",@progbits
68K GAS   			page 7


DEFINED SYMBOLS
                            *ABS*:00000000 e_cosh.c
    {standard input}:7      .rodata:00000000 one
    {standard input}:13     .rodata:00000008 half
    {standard input}:19     .rodata:00000010 huge
    {standard input}:26     .text:00000000 __ieee754_cosh

UNDEFINED SYMBOLS
fabs
expm1
__ieee754_exp
