68K GAS   			page 1


   1               	
   2               	.file"e_fmod.c"
   3               	.section.rodata
   4               	.align2
   7               	one:
   8 0000 3FF0 0000 	.long1072693248
   9 0004 0000 0000 	.long0
  10               	.align2
  13               	Zero:
  14 0008 0000 0000 	.long0
  15 000c 0000 0000 	.long0
  16 0010 8000 0000 	.long-2147483648
  17 0014 0000 0000 	.long0
  18               	.text
  19               	.align2
  20               	.globl__ieee754_fmod
  22               	__ieee754_fmod:
  23 0000 4E56 FFD4 	link.w %fp,#-44
  24 0004 2F03      	move.l %d3,-(%sp)
  25 0006 2F02      	move.l %d2,-(%sp)
  26 0008 200E      	move.l %fp,%d0
  27 000a 5080      	addq.l #8,%d0
  28 000c 2040      	move.l %d0,%a0
  29 000e 2D50 FFF8 	move.l (%a0),-8(%fp)
  30 0012 200E      	move.l %fp,%d0
  31 0014 5080      	addq.l #8,%d0
  32 0016 5880      	addq.l #4,%d0
  33 0018 2040      	move.l %d0,%a0
  34 001a 2010      	move.l (%a0),%d0
  35 001c 2D40 FFE0 	move.l %d0,-32(%fp)
  36 0020 7010      	moveq #16,%d0
  37 0022 D08E      	add.l %fp,%d0
  38 0024 2040      	move.l %d0,%a0
  39 0026 2D50 FFF4 	move.l (%a0),-12(%fp)
  40 002a 7010      	moveq #16,%d0
  41 002c D08E      	add.l %fp,%d0
  42 002e 5880      	addq.l #4,%d0
  43 0030 2040      	move.l %d0,%a0
  44 0032 2010      	move.l (%a0),%d0
  45 0034 2D40 FFDC 	move.l %d0,-36(%fp)
  46 0038 202E FFF8 	move.l -8(%fp),%d0
  47 003c 0280 8000 	and.l #-2147483648,%d0
  47      0000 
  48 0042 2D40 FFD8 	move.l %d0,-40(%fp)
  49 0046 222E FFD8 	move.l -40(%fp),%d1
  50 004a B3AE FFF8 	eor.l %d1,-8(%fp)
  51 004e 08AE 0007 	bclr #7,-12(%fp)
  51      FFF4 
  52 0054 202E FFF4 	move.l -12(%fp),%d0
  53 0058 80AE FFDC 	or.l -36(%fp),%d0
  54 005c 4A80      	tst.l %d0
  55 005e 6728      	jeq .L2
  56 0060 0CAE 7FEF 	cmp.l #2146435071,-8(%fp)
  56      FFFF FFF8 
  57 0068 6E1E      	jgt .L2
  58 006a 202E FFDC 	move.l -36(%fp),%d0
  59 006e 4480      	neg.l %d0
68K GAS   			page 2


  60 0070 80AE FFDC 	or.l -36(%fp),%d0
  61 0074 D080      	add.l %d0,%d0
  62 0076 9180      	subx.l %d0,%d0
  63 0078 4480      	neg.l %d0
  64 007a 222E FFF4 	move.l -12(%fp),%d1
  65 007e 8081      	or.l %d1,%d0
  66 0080 0C80 7FF0 	cmp.l #2146435072,%d0
  66      0000 
  67 0086 6378      	jls .L3
  68               	.L2:
  69 0088 206E 0008 	move.l 8(%fp),%a0
  70 008c 226E 000C 	move.l 12(%fp),%a1
  71 0090 202E 0010 	move.l 16(%fp),%d0
  72 0094 222E 0014 	move.l 20(%fp),%d1
  73 0098 2F09      	move.l %a1,-(%sp)
  74 009a 2F08      	move.l %a0,-(%sp)
  75 009c F21F 5400 	fmove.d (%sp)+,%fp0
  76 00a0 2F01      	move.l %d1,-(%sp)
  77 00a2 2F00      	move.l %d0,-(%sp)
  78 00a4 F21F 5480 	fmove.d (%sp)+,%fp1
  79 00a8 F200 0423 	fmul.x %fp1,%fp0
  80 00ac F227 7400 	fmove.d %fp0,-(%sp)
  81 00b0 201F      	move.l (%sp)+,%d0
  82 00b2 221F      	move.l (%sp)+,%d1
  83 00b4 242E 0008 	move.l 8(%fp),%d2
  84 00b8 262E 000C 	move.l 12(%fp),%d3
  85 00bc 206E 0010 	move.l 16(%fp),%a0
  86 00c0 226E 0014 	move.l 20(%fp),%a1
  87 00c4 2F03      	move.l %d3,-(%sp)
  88 00c6 2F02      	move.l %d2,-(%sp)
  89 00c8 F21F 5400 	fmove.d (%sp)+,%fp0
  90 00cc 2F09      	move.l %a1,-(%sp)
  91 00ce 2F08      	move.l %a0,-(%sp)
  92 00d0 F21F 5480 	fmove.d (%sp)+,%fp1
  93 00d4 F200 0423 	fmul.x %fp1,%fp0
  94 00d8 F227 7400 	fmove.d %fp0,-(%sp)
  95 00dc 205F      	move.l (%sp)+,%a0
  96 00de 225F      	move.l (%sp)+,%a1
  97 00e0 2F01      	move.l %d1,-(%sp)
  98 00e2 2F00      	move.l %d0,-(%sp)
  99 00e4 F21F 5400 	fmove.d (%sp)+,%fp0
 100 00e8 2F09      	move.l %a1,-(%sp)
 101 00ea 2F08      	move.l %a0,-(%sp)
 102 00ec F21F 5480 	fmove.d (%sp)+,%fp1
 103 00f0 F200 0420 	fdiv.x %fp1,%fp0
 104 00f4 F227 7400 	fmove.d %fp0,-(%sp)
 105 00f8 201F      	move.l (%sp)+,%d0
 106 00fa 221F      	move.l (%sp)+,%d1
 107 00fc 6000 04DA 	jra .L4
 108               	.L3:
 109 0100 202E FFF8 	move.l -8(%fp),%d0
 110 0104 B0AE FFF4 	cmp.l -12(%fp),%d0
 111 0108 6E48      	jgt .L5
 112 010a 222E FFF8 	move.l -8(%fp),%d1
 113 010e B2AE FFF4 	cmp.l -12(%fp),%d1
 114 0112 6D0A      	jlt .L6
 115 0114 242E FFE0 	move.l -32(%fp),%d2
68K GAS   			page 3


 116 0118 B4AE FFDC 	cmp.l -36(%fp),%d2
 117 011c 640C      	jcc .L7
 118               	.L6:
 119 011e 202E 0008 	move.l 8(%fp),%d0
 120 0122 222E 000C 	move.l 12(%fp),%d1
 121 0126 6000 04B0 	jra .L4
 122               	.L7:
 123 012a 206E FFE0 	move.l -32(%fp),%a0
 124 012e B1EE FFDC 	cmp.l -36(%fp),%a0
 125 0132 661E      	jne .L5
 126 0134 202E FFD8 	move.l -40(%fp),%d0
 127 0138 D080      	add.l %d0,%d0
 128 013a 9180      	subx.l %d0,%d0
 129 013c 4480      	neg.l %d0
 130 013e 2230 0FB0 	move.l Zero+4(%d0.l*8),%d1
 130      0000 0000 
 131 0146 2030 0FB0 	move.l Zero(%d0.l*8),%d0
 131      0000 0000 
 132 014e 6000 0488 	jra .L4
 133               	.L5:
 134 0152 0CAE 000F 	cmp.l #1048575,-8(%fp)
 134      FFFF FFF8 
 135 015a 6E58      	jgt .L8
 136 015c 4AAE FFF8 	tst.l -8(%fp)
 137 0160 6626      	jne .L9
 138 0162 2D7C FFFF 	move.l #-1043,-20(%fp)
 138      FBED FFEC 
 139 016a 2D6E FFE0 	move.l -32(%fp),-28(%fp)
 139      FFE4 
 140 0170 600E      	jra .L10
 141               	.L11:
 142 0172 53AE FFEC 	subq.l #1,-20(%fp)
 143 0176 202E FFE4 	move.l -28(%fp),%d0
 144 017a D080      	add.l %d0,%d0
 145 017c 2D40 FFE4 	move.l %d0,-28(%fp)
 146               	.L10:
 147 0180 4AAE FFE4 	tst.l -28(%fp)
 148 0184 6EEC      	jgt .L11
 149 0186 6040      	jra .L12
 150               	.L9:
 151 0188 2D7C FFFF 	move.l #-1022,-20(%fp)
 151      FC02 FFEC 
 152 0190 202E FFF8 	move.l -8(%fp),%d0
 153 0194 720B      	moveq #11,%d1
 154 0196 E3A8      	lsl.l %d1,%d0
 155 0198 2D40 FFE4 	move.l %d0,-28(%fp)
 156 019c 600E      	jra .L13
 157               	.L14:
 158 019e 53AE FFEC 	subq.l #1,-20(%fp)
 159 01a2 202E FFE4 	move.l -28(%fp),%d0
 160 01a6 D080      	add.l %d0,%d0
 161 01a8 2D40 FFE4 	move.l %d0,-28(%fp)
 162               	.L13:
 163 01ac 4AAE FFE4 	tst.l -28(%fp)
 164 01b0 6EEC      	jgt .L14
 165 01b2 6014      	jra .L12
 166               	.L8:
68K GAS   			page 4


 167 01b4 202E FFF8 	move.l -8(%fp),%d0
 168 01b8 7414      	moveq #20,%d2
 169 01ba E4A0      	asr.l %d2,%d0
 170 01bc 2200      	move.l %d0,%d1
 171 01be 0681 FFFF 	add.l #-1023,%d1
 171      FC01 
 172 01c4 2D41 FFEC 	move.l %d1,-20(%fp)
 173               	.L12:
 174 01c8 0CAE 000F 	cmp.l #1048575,-12(%fp)
 174      FFFF FFF4 
 175 01d0 6E58      	jgt .L15
 176 01d2 4AAE FFF4 	tst.l -12(%fp)
 177 01d6 6626      	jne .L16
 178 01d8 2D7C FFFF 	move.l #-1043,-24(%fp)
 178      FBED FFE8 
 179 01e0 2D6E FFDC 	move.l -36(%fp),-28(%fp)
 179      FFE4 
 180 01e6 600E      	jra .L17
 181               	.L18:
 182 01e8 53AE FFE8 	subq.l #1,-24(%fp)
 183 01ec 202E FFE4 	move.l -28(%fp),%d0
 184 01f0 D080      	add.l %d0,%d0
 185 01f2 2D40 FFE4 	move.l %d0,-28(%fp)
 186               	.L17:
 187 01f6 4AAE FFE4 	tst.l -28(%fp)
 188 01fa 6EEC      	jgt .L18
 189 01fc 6040      	jra .L19
 190               	.L16:
 191 01fe 2D7C FFFF 	move.l #-1022,-24(%fp)
 191      FC02 FFE8 
 192 0206 202E FFF4 	move.l -12(%fp),%d0
 193 020a 740B      	moveq #11,%d2
 194 020c E5A8      	lsl.l %d2,%d0
 195 020e 2D40 FFE4 	move.l %d0,-28(%fp)
 196 0212 600E      	jra .L20
 197               	.L21:
 198 0214 53AE FFE8 	subq.l #1,-24(%fp)
 199 0218 202E FFE4 	move.l -28(%fp),%d0
 200 021c D080      	add.l %d0,%d0
 201 021e 2D40 FFE4 	move.l %d0,-28(%fp)
 202               	.L20:
 203 0222 4AAE FFE4 	tst.l -28(%fp)
 204 0226 6EEC      	jgt .L21
 205 0228 6014      	jra .L19
 206               	.L15:
 207 022a 202E FFF4 	move.l -12(%fp),%d0
 208 022e 7214      	moveq #20,%d1
 209 0230 E2A0      	asr.l %d1,%d0
 210 0232 2400      	move.l %d0,%d2
 211 0234 0682 FFFF 	add.l #-1023,%d2
 211      FC01 
 212 023a 2D42 FFE8 	move.l %d2,-24(%fp)
 213               	.L19:
 214 023e 0CAE FFFF 	cmp.l #-1022,-20(%fp)
 214      FC02 FFEC 
 215 0246 6D16      	jlt .L22
 216 0248 202E FFF8 	move.l -8(%fp),%d0
68K GAS   			page 5


 217 024c 0280 000F 	and.l #1048575,%d0
 217      FFFF 
 218 0252 2200      	move.l %d0,%d1
 219 0254 08C1 0014 	bset #20,%d1
 220 0258 2D41 FFF8 	move.l %d1,-8(%fp)
 221 025c 6062      	jra .L23
 222               	.L22:
 223 025e 243C FFFF 	move.l #-1022,%d2
 223      FC02 
 224 0264 94AE FFEC 	sub.l -20(%fp),%d2
 225 0268 2D42 FFFC 	move.l %d2,-4(%fp)
 226 026c 701F      	moveq #31,%d0
 227 026e B0AE FFFC 	cmp.l -4(%fp),%d0
 228 0272 6D34      	jlt .L24
 229 0274 202E FFF8 	move.l -8(%fp),%d0
 230 0278 222E FFFC 	move.l -4(%fp),%d1
 231 027c E3A8      	lsl.l %d1,%d0
 232 027e 2040      	move.l %d0,%a0
 233 0280 7020      	moveq #32,%d0
 234 0282 90AE FFFC 	sub.l -4(%fp),%d0
 235 0286 222E FFE0 	move.l -32(%fp),%d1
 236 028a 2401      	move.l %d1,%d2
 237 028c E0AA      	lsr.l %d0,%d2
 238 028e 2002      	move.l %d2,%d0
 239 0290 2208      	move.l %a0,%d1
 240 0292 8081      	or.l %d1,%d0
 241 0294 2D40 FFF8 	move.l %d0,-8(%fp)
 242 0298 202E FFE0 	move.l -32(%fp),%d0
 243 029c 242E FFFC 	move.l -4(%fp),%d2
 244 02a0 E5A8      	lsl.l %d2,%d0
 245 02a2 2D40 FFE0 	move.l %d0,-32(%fp)
 246 02a6 6018      	jra .L23
 247               	.L24:
 248 02a8 70E0      	moveq #-32,%d0
 249 02aa D0AE FFFC 	add.l -4(%fp),%d0
 250 02ae 222E FFE0 	move.l -32(%fp),%d1
 251 02b2 2401      	move.l %d1,%d2
 252 02b4 E1AA      	lsl.l %d0,%d2
 253 02b6 2002      	move.l %d2,%d0
 254 02b8 2D40 FFF8 	move.l %d0,-8(%fp)
 255 02bc 42AE FFE0 	clr.l -32(%fp)
 256               	.L23:
 257 02c0 0CAE FFFF 	cmp.l #-1022,-24(%fp)
 257      FC02 FFE8 
 258 02c8 6D16      	jlt .L25
 259 02ca 202E FFF4 	move.l -12(%fp),%d0
 260 02ce 0280 000F 	and.l #1048575,%d0
 260      FFFF 
 261 02d4 2200      	move.l %d0,%d1
 262 02d6 08C1 0014 	bset #20,%d1
 263 02da 2D41 FFF4 	move.l %d1,-12(%fp)
 264 02de 6062      	jra .L26
 265               	.L25:
 266 02e0 243C FFFF 	move.l #-1022,%d2
 266      FC02 
 267 02e6 94AE FFE8 	sub.l -24(%fp),%d2
 268 02ea 2D42 FFFC 	move.l %d2,-4(%fp)
68K GAS   			page 6


 269 02ee 701F      	moveq #31,%d0
 270 02f0 B0AE FFFC 	cmp.l -4(%fp),%d0
 271 02f4 6D34      	jlt .L27
 272 02f6 202E FFF4 	move.l -12(%fp),%d0
 273 02fa 222E FFFC 	move.l -4(%fp),%d1
 274 02fe E3A8      	lsl.l %d1,%d0
 275 0300 2040      	move.l %d0,%a0
 276 0302 7020      	moveq #32,%d0
 277 0304 90AE FFFC 	sub.l -4(%fp),%d0
 278 0308 222E FFDC 	move.l -36(%fp),%d1
 279 030c 2401      	move.l %d1,%d2
 280 030e E0AA      	lsr.l %d0,%d2
 281 0310 2002      	move.l %d2,%d0
 282 0312 2208      	move.l %a0,%d1
 283 0314 8081      	or.l %d1,%d0
 284 0316 2D40 FFF4 	move.l %d0,-12(%fp)
 285 031a 202E FFDC 	move.l -36(%fp),%d0
 286 031e 242E FFFC 	move.l -4(%fp),%d2
 287 0322 E5A8      	lsl.l %d2,%d0
 288 0324 2D40 FFDC 	move.l %d0,-36(%fp)
 289 0328 6018      	jra .L26
 290               	.L27:
 291 032a 70E0      	moveq #-32,%d0
 292 032c D0AE FFFC 	add.l -4(%fp),%d0
 293 0330 222E FFDC 	move.l -36(%fp),%d1
 294 0334 2401      	move.l %d1,%d2
 295 0336 E1AA      	lsl.l %d0,%d2
 296 0338 2002      	move.l %d2,%d0
 297 033a 2D40 FFF4 	move.l %d0,-12(%fp)
 298 033e 42AE FFDC 	clr.l -36(%fp)
 299               	.L26:
 300 0342 202E FFEC 	move.l -20(%fp),%d0
 301 0346 90AE FFE8 	sub.l -24(%fp),%d0
 302 034a 2D40 FFFC 	move.l %d0,-4(%fp)
 303 034e 6000 00A2 	jra .L28
 304               	.L32:
 305 0352 222E FFF8 	move.l -8(%fp),%d1
 306 0356 92AE FFF4 	sub.l -12(%fp),%d1
 307 035a 2D41 FFF0 	move.l %d1,-16(%fp)
 308 035e 242E FFE0 	move.l -32(%fp),%d2
 309 0362 94AE FFDC 	sub.l -36(%fp),%d2
 310 0366 2D42 FFD4 	move.l %d2,-44(%fp)
 311 036a 206E FFE0 	move.l -32(%fp),%a0
 312 036e B1EE FFDC 	cmp.l -36(%fp),%a0
 313 0372 6404      	jcc .L29
 314 0374 53AE FFF0 	subq.l #1,-16(%fp)
 315               	.L29:
 316 0378 4AAE FFF0 	tst.l -16(%fp)
 317 037c 6C24      	jge .L30
 318 037e 202E FFF8 	move.l -8(%fp),%d0
 319 0382 D0AE FFF8 	add.l -8(%fp),%d0
 320 0386 2200      	move.l %d0,%d1
 321 0388 202E FFE0 	move.l -32(%fp),%d0
 322 038c D080      	add.l %d0,%d0
 323 038e 9180      	subx.l %d0,%d0
 324 0390 4480      	neg.l %d0
 325 0392 D081      	add.l %d1,%d0
68K GAS   			page 7


 326 0394 2D40 FFF8 	move.l %d0,-8(%fp)
 327 0398 202E FFE0 	move.l -32(%fp),%d0
 328 039c D1AE FFE0 	add.l %d0,-32(%fp)
 329 03a0 6050      	jra .L28
 330               	.L30:
 331 03a2 202E FFF0 	move.l -16(%fp),%d0
 332 03a6 80AE FFD4 	or.l -44(%fp),%d0
 333 03aa 4A80      	tst.l %d0
 334 03ac 661E      	jne .L31
 335 03ae 202E FFD8 	move.l -40(%fp),%d0
 336 03b2 D080      	add.l %d0,%d0
 337 03b4 9180      	subx.l %d0,%d0
 338 03b6 4480      	neg.l %d0
 339 03b8 2230 0FB0 	move.l Zero+4(%d0.l*8),%d1
 339      0000 0000 
 340 03c0 2030 0FB0 	move.l Zero(%d0.l*8),%d0
 340      0000 0000 
 341 03c8 6000 020E 	jra .L4
 342               	.L31:
 343 03cc 202E FFF0 	move.l -16(%fp),%d0
 344 03d0 D0AE FFF0 	add.l -16(%fp),%d0
 345 03d4 2200      	move.l %d0,%d1
 346 03d6 202E FFD4 	move.l -44(%fp),%d0
 347 03da D080      	add.l %d0,%d0
 348 03dc 9180      	subx.l %d0,%d0
 349 03de 4480      	neg.l %d0
 350 03e0 D081      	add.l %d1,%d0
 351 03e2 2D40 FFF8 	move.l %d0,-8(%fp)
 352 03e6 222E FFD4 	move.l -44(%fp),%d1
 353 03ea D2AE FFD4 	add.l -44(%fp),%d1
 354 03ee 2D41 FFE0 	move.l %d1,-32(%fp)
 355               	.L28:
 356 03f2 4AAE FFFC 	tst.l -4(%fp)
 357 03f6 56C0      	sne %d0
 358 03f8 4400      	neg.b %d0
 359 03fa 53AE FFFC 	subq.l #1,-4(%fp)
 360 03fe 4A00      	tst.b %d0
 361 0400 6600 FF50 	jne .L32
 362 0404 242E FFF8 	move.l -8(%fp),%d2
 363 0408 94AE FFF4 	sub.l -12(%fp),%d2
 364 040c 2D42 FFF0 	move.l %d2,-16(%fp)
 365 0410 202E FFE0 	move.l -32(%fp),%d0
 366 0414 90AE FFDC 	sub.l -36(%fp),%d0
 367 0418 2D40 FFD4 	move.l %d0,-44(%fp)
 368 041c 222E FFE0 	move.l -32(%fp),%d1
 369 0420 B2AE FFDC 	cmp.l -36(%fp),%d1
 370 0424 6404      	jcc .L33
 371 0426 53AE FFF0 	subq.l #1,-16(%fp)
 372               	.L33:
 373 042a 4AAE FFF0 	tst.l -16(%fp)
 374 042e 6D0C      	jlt .L34
 375 0430 2D6E FFF0 	move.l -16(%fp),-8(%fp)
 375      FFF8 
 376 0436 2D6E FFD4 	move.l -44(%fp),-32(%fp)
 376      FFE0 
 377               	.L34:
 378 043c 202E FFF8 	move.l -8(%fp),%d0
68K GAS   			page 8


 379 0440 80AE FFE0 	or.l -32(%fp),%d0
 380 0444 4A80      	tst.l %d0
 381 0446 6644      	jne .L36
 382 0448 202E FFD8 	move.l -40(%fp),%d0
 383 044c D080      	add.l %d0,%d0
 384 044e 9180      	subx.l %d0,%d0
 385 0450 4480      	neg.l %d0
 386 0452 2230 0FB0 	move.l Zero+4(%d0.l*8),%d1
 386      0000 0000 
 387 045a 2030 0FB0 	move.l Zero(%d0.l*8),%d0
 387      0000 0000 
 388 0462 6000 0174 	jra .L4
 389               	.L37:
 390 0466 202E FFF8 	move.l -8(%fp),%d0
 391 046a D0AE FFF8 	add.l -8(%fp),%d0
 392 046e 2200      	move.l %d0,%d1
 393 0470 202E FFE0 	move.l -32(%fp),%d0
 394 0474 D080      	add.l %d0,%d0
 395 0476 9180      	subx.l %d0,%d0
 396 0478 4480      	neg.l %d0
 397 047a D081      	add.l %d1,%d0
 398 047c 2D40 FFF8 	move.l %d0,-8(%fp)
 399 0480 242E FFE0 	move.l -32(%fp),%d2
 400 0484 D5AE FFE0 	add.l %d2,-32(%fp)
 401 0488 53AE FFE8 	subq.l #1,-24(%fp)
 402               	.L36:
 403 048c 0CAE 000F 	cmp.l #1048575,-8(%fp)
 403      FFFF FFF8 
 404 0494 6FD0      	jle .L37
 405 0496 0CAE FFFF 	cmp.l #-1022,-24(%fp)
 405      FC02 FFE8 
 406 049e 6D42      	jlt .L38
 407 04a0 222E FFF8 	move.l -8(%fp),%d1
 408 04a4 0681 FFF0 	add.l #-1048576,%d1
 408      0000 
 409 04aa 202E FFE8 	move.l -24(%fp),%d0
 410 04ae 0680 0000 	add.l #1023,%d0
 410      03FF 
 411 04b4 7414      	moveq #20,%d2
 412 04b6 E5A8      	lsl.l %d2,%d0
 413 04b8 2401      	move.l %d1,%d2
 414 04ba 8480      	or.l %d0,%d2
 415 04bc 2D42 FFF8 	move.l %d2,-8(%fp)
 416 04c0 200E      	move.l %fp,%d0
 417 04c2 5080      	addq.l #8,%d0
 418 04c4 222E FFF8 	move.l -8(%fp),%d1
 419 04c8 82AE FFD8 	or.l -40(%fp),%d1
 420 04cc 2040      	move.l %d0,%a0
 421 04ce 2081      	move.l %d1,(%a0)
 422 04d0 200E      	move.l %fp,%d0
 423 04d2 5080      	addq.l #8,%d0
 424 04d4 5880      	addq.l #4,%d0
 425 04d6 222E FFE0 	move.l -32(%fp),%d1
 426 04da 2040      	move.l %d0,%a0
 427 04dc 2081      	move.l %d1,(%a0)
 428 04de 6000 00F0 	jra .L39
 429               	.L38:
68K GAS   			page 9


 430 04e2 203C FFFF 	move.l #-1022,%d0
 430      FC02 
 431 04e8 90AE FFE8 	sub.l -24(%fp),%d0
 432 04ec 2D40 FFFC 	move.l %d0,-4(%fp)
 433 04f0 7214      	moveq #20,%d1
 434 04f2 B2AE FFFC 	cmp.l -4(%fp),%d1
 435 04f6 6D34      	jlt .L40
 436 04f8 202E FFE0 	move.l -32(%fp),%d0
 437 04fc 2200      	move.l %d0,%d1
 438 04fe 242E FFFC 	move.l -4(%fp),%d2
 439 0502 E4A9      	lsr.l %d2,%d1
 440 0504 206E FFF8 	move.l -8(%fp),%a0
 441 0508 7020      	moveq #32,%d0
 442 050a 90AE FFFC 	sub.l -4(%fp),%d0
 443 050e 2408      	move.l %a0,%d2
 444 0510 E1AA      	lsl.l %d0,%d2
 445 0512 2002      	move.l %d2,%d0
 446 0514 2401      	move.l %d1,%d2
 447 0516 8480      	or.l %d0,%d2
 448 0518 2D42 FFE0 	move.l %d2,-32(%fp)
 449 051c 202E FFF8 	move.l -8(%fp),%d0
 450 0520 222E FFFC 	move.l -4(%fp),%d1
 451 0524 E2A0      	asr.l %d1,%d0
 452 0526 2D40 FFF8 	move.l %d0,-8(%fp)
 453 052a 604E      	jra .L41
 454               	.L40:
 455 052c 741F      	moveq #31,%d2
 456 052e B4AE FFFC 	cmp.l -4(%fp),%d2
 457 0532 6D2C      	jlt .L42
 458 0534 7020      	moveq #32,%d0
 459 0536 90AE FFFC 	sub.l -4(%fp),%d0
 460 053a 222E FFF8 	move.l -8(%fp),%d1
 461 053e 2401      	move.l %d1,%d2
 462 0540 E1AA      	lsl.l %d0,%d2
 463 0542 2002      	move.l %d2,%d0
 464 0544 2200      	move.l %d0,%d1
 465 0546 202E FFE0 	move.l -32(%fp),%d0
 466 054a 242E FFFC 	move.l -4(%fp),%d2
 467 054e E4A8      	lsr.l %d2,%d0
 468 0550 2401      	move.l %d1,%d2
 469 0552 8480      	or.l %d0,%d2
 470 0554 2D42 FFE0 	move.l %d2,-32(%fp)
 471 0558 2D6E FFD8 	move.l -40(%fp),-8(%fp)
 471      FFF8 
 472 055e 601A      	jra .L41
 473               	.L42:
 474 0560 70E0      	moveq #-32,%d0
 475 0562 D0AE FFFC 	add.l -4(%fp),%d0
 476 0566 222E FFF8 	move.l -8(%fp),%d1
 477 056a 2401      	move.l %d1,%d2
 478 056c E0A2      	asr.l %d0,%d2
 479 056e 2002      	move.l %d2,%d0
 480 0570 2D40 FFE0 	move.l %d0,-32(%fp)
 481 0574 2D6E FFD8 	move.l -40(%fp),-8(%fp)
 481      FFF8 
 482               	.L41:
 483 057a 200E      	move.l %fp,%d0
68K GAS   			page 10


 484 057c 5080      	addq.l #8,%d0
 485 057e 222E FFF8 	move.l -8(%fp),%d1
 486 0582 82AE FFD8 	or.l -40(%fp),%d1
 487 0586 2040      	move.l %d0,%a0
 488 0588 2081      	move.l %d1,(%a0)
 489 058a 200E      	move.l %fp,%d0
 490 058c 5080      	addq.l #8,%d0
 491 058e 5880      	addq.l #4,%d0
 492 0590 222E FFE0 	move.l -32(%fp),%d1
 493 0594 2040      	move.l %d0,%a0
 494 0596 2081      	move.l %d1,(%a0)
 495 0598 206E 0008 	move.l 8(%fp),%a0
 496 059c 226E 000C 	move.l 12(%fp),%a1
 497 05a0 2039 0000 	move.l one,%d0
 497      0000 
 498 05a6 2239 0000 	move.l one+4,%d1
 498      0000 
 499 05ac 2F09      	move.l %a1,-(%sp)
 500 05ae 2F08      	move.l %a0,-(%sp)
 501 05b0 F21F 5400 	fmove.d (%sp)+,%fp0
 502 05b4 2F01      	move.l %d1,-(%sp)
 503 05b6 2F00      	move.l %d0,-(%sp)
 504 05b8 F21F 5480 	fmove.d (%sp)+,%fp1
 505 05bc F200 0423 	fmul.x %fp1,%fp0
 506 05c0 F227 7400 	fmove.d %fp0,-(%sp)
 507 05c4 201F      	move.l (%sp)+,%d0
 508 05c6 221F      	move.l (%sp)+,%d1
 509 05c8 2D40 0008 	move.l %d0,8(%fp)
 510 05cc 2D41 000C 	move.l %d1,12(%fp)
 511               	.L39:
 512 05d0 202E 0008 	move.l 8(%fp),%d0
 513 05d4 222E 000C 	move.l 12(%fp),%d1
 514               	.L4:
 515 05d8 2F01      	move.l %d1,-(%sp)
 516 05da 2F00      	move.l %d0,-(%sp)
 517 05dc F21F 5400 	fmove.d (%sp)+,%fp0
 518 05e0 241F      	move.l (%sp)+,%d2
 519 05e2 261F      	move.l (%sp)+,%d3
 520 05e4 4E5E      	unlk %fp
 521 05e6 4E75      	rts
 523               	.ident"GCC: (GNU) 4.5.1"
 524               	.section.note.GNU-stack,"",@progbits
68K GAS   			page 11


DEFINED SYMBOLS
                            *ABS*:00000000 e_fmod.c
    {standard input}:7      .rodata:00000000 one
    {standard input}:13     .rodata:00000008 Zero
    {standard input}:22     .text:00000000 __ieee754_fmod

NO UNDEFINED SYMBOLS
