68K GAS   			page 1


   1               	
   2               	.file"e_j0.c"
   3               	.section.rodata
   4               	.align2
   7               	huge:
   8 0000 7E37 E43C 	.long2117592124
   9 0004 8800 759C 	.long-2013235812
  10               	.align2
  13               	one:
  14 0008 3FF0 0000 	.long1072693248
  15 000c 0000 0000 	.long0
  16               	.align2
  19               	invsqrtpi:
  20 0010 3FE2 0DD7 	.long1071779287
  21 0014 5042 9B6D 	.long1346542445
  22               	.align2
  25               	tpi:
  26 0018 3FE4 5F30 	.long1071931184
  27 001c 6DC9 C883 	.long1841940611
  28               	.align2
  31               	R02:
  32 0020 3F8F FFFF 	.long1066401791
  33 0024 FFFF FFFD 	.long-3
  34               	.align2
  37               	R03:
  38 0028 BF28 E6A5 	.long-1087838555
  39 002c B61A C6E9 	.long-1239759127
  40               	.align2
  43               	R04:
  44 0030 3EBE B1D1 	.long1052684753
  45 0034 0C50 3919 	.long206584089
  46               	.align2
  49               	R05:
  50 0038 BE33 D5E7 	.long-1103899161
  51 003c 73D6 3FCE 	.long1943420878
  52               	.align2
  55               	S01:
  56 0040 3F8F FCE8 	.long1066401000
  57 0044 82C8 C2A4 	.long-2100772188
  58               	.align2
  61               	S02:
  62 0048 3F1E A6D2 	.long1058973394
  63 004c DD57 DBF4 	.long-581444620
  64               	.align2
  67               	S03:
  68 0050 3EA1 3B54 	.long1050753876
  69 0054 CE84 D5A9 	.long-830155351
  70               	.align2
  73               	S04:
  74 0058 3E14 08BC 	.long1041500348
  75 005c F474 5D8F 	.long-193700465
  76               	.localzero
  77               	.commzero,8,2
  78               	.text
  79               	.align2
  80               	.globl__ieee754_j0
  82               	__ieee754_j0:
68K GAS   			page 2


  83 0000 4E56 FFB8 	link.w %fp,#-72
  84 0004 2F03      	move.l %d3,-(%sp)
  85 0006 2F02      	move.l %d2,-(%sp)
  86 0008 200E      	move.l %fp,%d0
  87 000a 5080      	addq.l #8,%d0
  88 000c 2040      	move.l %d0,%a0
  89 000e 2D50 FFE4 	move.l (%a0),-28(%fp)
  90 0012 202E FFE4 	move.l -28(%fp),%d0
  91 0016 0880 001F 	bclr #31,%d0
  92 001a 2D40 FFE0 	move.l %d0,-32(%fp)
  93 001e 0CAE 7FEF 	cmp.l #2146435071,-32(%fp)
  93      FFFF FFE0 
  94 0026 6F58      	jle .L2
  95 0028 2079 0000 	move.l one,%a0
  95      0000 
  96 002e 2279 0000 	move.l one+4,%a1
  96      0000 
  97 0034 242E 0008 	move.l 8(%fp),%d2
  98 0038 262E 000C 	move.l 12(%fp),%d3
  99 003c 202E 0008 	move.l 8(%fp),%d0
 100 0040 222E 000C 	move.l 12(%fp),%d1
 101 0044 2F03      	move.l %d3,-(%sp)
 102 0046 2F02      	move.l %d2,-(%sp)
 103 0048 F21F 5400 	fmove.d (%sp)+,%fp0
 104 004c 2F01      	move.l %d1,-(%sp)
 105 004e 2F00      	move.l %d0,-(%sp)
 106 0050 F21F 5480 	fmove.d (%sp)+,%fp1
 107 0054 F200 0423 	fmul.x %fp1,%fp0
 108 0058 F227 7400 	fmove.d %fp0,-(%sp)
 109 005c 201F      	move.l (%sp)+,%d0
 110 005e 221F      	move.l (%sp)+,%d1
 111 0060 2F09      	move.l %a1,-(%sp)
 112 0062 2F08      	move.l %a0,-(%sp)
 113 0064 F21F 5400 	fmove.d (%sp)+,%fp0
 114 0068 2F01      	move.l %d1,-(%sp)
 115 006a 2F00      	move.l %d0,-(%sp)
 116 006c F21F 5480 	fmove.d (%sp)+,%fp1
 117 0070 F200 0420 	fdiv.x %fp1,%fp0
 118 0074 F227 7400 	fmove.d %fp0,-(%sp)
 119 0078 201F      	move.l (%sp)+,%d0
 120 007a 221F      	move.l (%sp)+,%d1
 121 007c 6000 06C8 	jra .L3
 122               	.L2:
 123 0080 202E 0008 	move.l 8(%fp),%d0
 124 0084 222E 000C 	move.l 12(%fp),%d1
 125 0088 2F01      	move.l %d1,-(%sp)
 126 008a 2F00      	move.l %d0,-(%sp)
 127 008c 4EB9 0000 	jsr fabs
 127      0000 
 128 0092 508F      	addq.l #8,%sp
 129 0094 F227 7400 	fmove.d %fp0,-(%sp)
 130 0098 201F      	move.l (%sp)+,%d0
 131 009a 221F      	move.l (%sp)+,%d1
 132 009c 2D40 0008 	move.l %d0,8(%fp)
 133 00a0 2D41 000C 	move.l %d1,12(%fp)
 134 00a4 0CAE 3FFF 	cmp.l #1073741823,-32(%fp)
 134      FFFF FFE0 
68K GAS   			page 3


 135 00ac 6F00 0258 	jle .L4
 136 00b0 202E 0008 	move.l 8(%fp),%d0
 137 00b4 222E 000C 	move.l 12(%fp),%d1
 138 00b8 2F01      	move.l %d1,-(%sp)
 139 00ba 2F00      	move.l %d0,-(%sp)
 140 00bc 4EB9 0000 	jsr sin
 140      0000 
 141 00c2 508F      	addq.l #8,%sp
 142 00c4 F22E 7400 	fmove.d %fp0,-40(%fp)
 142      FFD8 
 143 00ca 202E 0008 	move.l 8(%fp),%d0
 144 00ce 222E 000C 	move.l 12(%fp),%d1
 145 00d2 2F01      	move.l %d1,-(%sp)
 146 00d4 2F00      	move.l %d0,-(%sp)
 147 00d6 4EB9 0000 	jsr cos
 147      0000 
 148 00dc 508F      	addq.l #8,%sp
 149 00de F22E 7400 	fmove.d %fp0,-48(%fp)
 149      FFD0 
 150 00e4 F22E 5400 	fmove.d -40(%fp),%fp0
 150      FFD8 
 151 00ea F22E 5428 	fsub.d -48(%fp),%fp0
 151      FFD0 
 152 00f0 F22E 7400 	fmove.d %fp0,-16(%fp)
 152      FFF0 
 153 00f6 F22E 5480 	fmove.d -40(%fp),%fp1
 153      FFD8 
 154 00fc F22E 54A2 	fadd.d -48(%fp),%fp1
 154      FFD0 
 155 0102 F22E 7480 	fmove.d %fp1,-24(%fp)
 155      FFE8 
 156 0108 0CAE 7FDF 	cmp.l #2145386495,-32(%fp)
 156      FFFF FFE0 
 157 0110 6E00 00B0 	jgt .L5
 158 0114 202E 0008 	move.l 8(%fp),%d0
 159 0118 222E 000C 	move.l 12(%fp),%d1
 160 011c 2F01      	move.l %d1,-(%sp)
 161 011e 2F00      	move.l %d0,-(%sp)
 162 0120 F21F 5400 	fmove.d (%sp)+,%fp0
 163 0124 2F01      	move.l %d1,-(%sp)
 164 0126 2F00      	move.l %d0,-(%sp)
 165 0128 F21F 5480 	fmove.d (%sp)+,%fp1
 166 012c F200 0422 	fadd.x %fp1,%fp0
 167 0130 F227 7400 	fmove.d %fp0,-(%sp)
 168 0134 201F      	move.l (%sp)+,%d0
 169 0136 221F      	move.l (%sp)+,%d1
 170 0138 2F01      	move.l %d1,-(%sp)
 171 013a 2F00      	move.l %d0,-(%sp)
 172 013c 4EB9 0000 	jsr cos
 172      0000 
 173 0142 508F      	addq.l #8,%sp
 174 0144 F227 7400 	fmove.d %fp0,-(%sp)
 175 0148 201F      	move.l (%sp)+,%d0
 176 014a 221F      	move.l (%sp)+,%d1
 177 014c 2F01      	move.l %d1,-(%sp)
 178 014e 2F00      	move.l %d0,-(%sp)
 179 0150 F21F 5400 	fmove.d (%sp)+,%fp0
68K GAS   			page 4


 180 0154 F200 001A 	fneg.x %fp0,%fp0
 181 0158 F22E 7400 	fmove.d %fp0,-8(%fp)
 181      FFF8 
 182 015e F22E 5480 	fmove.d -40(%fp),%fp1
 182      FFD8 
 183 0164 F22E 54A3 	fmul.d -48(%fp),%fp1
 183      FFD0 
 184 016a F227 7480 	fmove.d %fp1,-(%sp)
 185 016e 201F      	move.l (%sp)+,%d0
 186 0170 221F      	move.l (%sp)+,%d1
 187 0172 2079 0000 	move.l zero,%a0
 187      0000 
 188 0178 2279 0000 	move.l zero+4,%a1
 188      0000 
 189 017e 2F01      	move.l %d1,-(%sp)
 190 0180 2F00      	move.l %d0,-(%sp)
 191 0182 F21F 5400 	fmove.d (%sp)+,%fp0
 192 0186 2F09      	move.l %a1,-(%sp)
 193 0188 2F08      	move.l %a0,-(%sp)
 194 018a F21F 5480 	fmove.d (%sp)+,%fp1
 195 018e F200 0438 	fcmp.x %fp1,%fp0
 196 0192 F240 0014 	fslt %d0
 197 0196 4400      	neg.b %d0
 198 0198 4A00      	tst.b %d0
 199 019a 6714      	jeq .L6
 200 019c F22E 5400 	fmove.d -8(%fp),%fp0
 200      FFF8 
 201 01a2 F22E 5420 	fdiv.d -16(%fp),%fp0
 201      FFF0 
 202 01a8 F22E 7400 	fmove.d %fp0,-24(%fp)
 202      FFE8 
 203 01ae 6012      	jra .L5
 204               	.L6:
 205 01b0 F22E 5480 	fmove.d -8(%fp),%fp1
 205      FFF8 
 206 01b6 F22E 54A0 	fdiv.d -24(%fp),%fp1
 206      FFE8 
 207 01bc F22E 7480 	fmove.d %fp1,-16(%fp)
 207      FFF0 
 208               	.L5:
 209 01c2 0CAE 4800 	cmp.l #1207959552,-32(%fp)
 209      0000 FFE0 
 210 01ca 6F5C      	jle .L7
 211 01cc 2039 0000 	move.l invsqrtpi,%d0
 211      0000 
 212 01d2 2239 0000 	move.l invsqrtpi+4,%d1
 212      0000 
 213 01d8 2F01      	move.l %d1,-(%sp)
 214 01da 2F00      	move.l %d0,-(%sp)
 215 01dc F21F 5400 	fmove.d (%sp)+,%fp0
 216 01e0 F22E 5423 	fmul.d -24(%fp),%fp0
 216      FFE8 
 217 01e6 F227 7400 	fmove.d %fp0,-(%sp)
 218 01ea 241F      	move.l (%sp)+,%d2
 219 01ec 261F      	move.l (%sp)+,%d3
 220 01ee 202E 0008 	move.l 8(%fp),%d0
 221 01f2 222E 000C 	move.l 12(%fp),%d1
68K GAS   			page 5


 222 01f6 2F01      	move.l %d1,-(%sp)
 223 01f8 2F00      	move.l %d0,-(%sp)
 224 01fa 4EB9 0000 	jsr sqrt
 224      0000 
 225 0200 508F      	addq.l #8,%sp
 226 0202 F227 7400 	fmove.d %fp0,-(%sp)
 227 0206 201F      	move.l (%sp)+,%d0
 228 0208 221F      	move.l (%sp)+,%d1
 229 020a 2F03      	move.l %d3,-(%sp)
 230 020c 2F02      	move.l %d2,-(%sp)
 231 020e F21F 5480 	fmove.d (%sp)+,%fp1
 232 0212 2F01      	move.l %d1,-(%sp)
 233 0214 2F00      	move.l %d0,-(%sp)
 234 0216 F21F 5400 	fmove.d (%sp)+,%fp0
 235 021a F200 00A0 	fdiv.x %fp0,%fp1
 236 021e F22E 7480 	fmove.d %fp1,-8(%fp)
 236      FFF8 
 237 0224 6000 00D4 	jra .L8
 238               	.L7:
 239 0228 202E 0008 	move.l 8(%fp),%d0
 240 022c 222E 000C 	move.l 12(%fp),%d1
 241 0230 2F01      	move.l %d1,-(%sp)
 242 0232 2F00      	move.l %d0,-(%sp)
 243 0234 4EBA 0C9C 	jsr pzero
 244 0238 508F      	addq.l #8,%sp
 245 023a F22E 7400 	fmove.d %fp0,-56(%fp)
 245      FFC8 
 246 0240 202E 0008 	move.l 8(%fp),%d0
 247 0244 222E 000C 	move.l 12(%fp),%d1
 248 0248 2F01      	move.l %d1,-(%sp)
 249 024a 2F00      	move.l %d0,-(%sp)
 250 024c 4EBA 103C 	jsr qzero
 251 0250 508F      	addq.l #8,%sp
 252 0252 F22E 7400 	fmove.d %fp0,-64(%fp)
 252      FFC0 
 253 0258 F22E 5480 	fmove.d -56(%fp),%fp1
 253      FFC8 
 254 025e F22E 54A3 	fmul.d -24(%fp),%fp1
 254      FFE8 
 255 0264 F227 7480 	fmove.d %fp1,-(%sp)
 256 0268 201F      	move.l (%sp)+,%d0
 257 026a 221F      	move.l (%sp)+,%d1
 258 026c F22E 5400 	fmove.d -64(%fp),%fp0
 258      FFC0 
 259 0272 F22E 5423 	fmul.d -16(%fp),%fp0
 259      FFF0 
 260 0278 F227 7400 	fmove.d %fp0,-(%sp)
 261 027c 205F      	move.l (%sp)+,%a0
 262 027e 225F      	move.l (%sp)+,%a1
 263 0280 2F01      	move.l %d1,-(%sp)
 264 0282 2F00      	move.l %d0,-(%sp)
 265 0284 F21F 5480 	fmove.d (%sp)+,%fp1
 266 0288 2F09      	move.l %a1,-(%sp)
 267 028a 2F08      	move.l %a0,-(%sp)
 268 028c F21F 5400 	fmove.d (%sp)+,%fp0
 269 0290 F200 00A8 	fsub.x %fp0,%fp1
 270 0294 F227 7480 	fmove.d %fp1,-(%sp)
68K GAS   			page 6


 271 0298 201F      	move.l (%sp)+,%d0
 272 029a 221F      	move.l (%sp)+,%d1
 273 029c 2079 0000 	move.l invsqrtpi,%a0
 273      0000 
 274 02a2 2279 0000 	move.l invsqrtpi+4,%a1
 274      0000 
 275 02a8 2F01      	move.l %d1,-(%sp)
 276 02aa 2F00      	move.l %d0,-(%sp)
 277 02ac F21F 5480 	fmove.d (%sp)+,%fp1
 278 02b0 2F09      	move.l %a1,-(%sp)
 279 02b2 2F08      	move.l %a0,-(%sp)
 280 02b4 F21F 5400 	fmove.d (%sp)+,%fp0
 281 02b8 F200 00A3 	fmul.x %fp0,%fp1
 282 02bc F227 7480 	fmove.d %fp1,-(%sp)
 283 02c0 241F      	move.l (%sp)+,%d2
 284 02c2 261F      	move.l (%sp)+,%d3
 285 02c4 202E 0008 	move.l 8(%fp),%d0
 286 02c8 222E 000C 	move.l 12(%fp),%d1
 287 02cc 2F01      	move.l %d1,-(%sp)
 288 02ce 2F00      	move.l %d0,-(%sp)
 289 02d0 4EB9 0000 	jsr sqrt
 289      0000 
 290 02d6 508F      	addq.l #8,%sp
 291 02d8 F227 7400 	fmove.d %fp0,-(%sp)
 292 02dc 201F      	move.l (%sp)+,%d0
 293 02de 221F      	move.l (%sp)+,%d1
 294 02e0 2F03      	move.l %d3,-(%sp)
 295 02e2 2F02      	move.l %d2,-(%sp)
 296 02e4 F21F 5480 	fmove.d (%sp)+,%fp1
 297 02e8 2F01      	move.l %d1,-(%sp)
 298 02ea 2F00      	move.l %d0,-(%sp)
 299 02ec F21F 5400 	fmove.d (%sp)+,%fp0
 300 02f0 F200 00A0 	fdiv.x %fp0,%fp1
 301 02f4 F22E 7480 	fmove.d %fp1,-8(%fp)
 301      FFF8 
 302               	.L8:
 303 02fa 202E FFF8 	move.l -8(%fp),%d0
 304 02fe 222E FFFC 	move.l -4(%fp),%d1
 305 0302 6000 0442 	jra .L3
 306               	.L4:
 307 0306 0CAE 3F1F 	cmp.l #1059061759,-32(%fp)
 307      FFFF FFE0 
 308 030e 6E00 00EC 	jgt .L9
 309 0312 2079 0000 	move.l huge,%a0
 309      0000 
 310 0318 2279 0000 	move.l huge+4,%a1
 310      0000 
 311 031e 202E 0008 	move.l 8(%fp),%d0
 312 0322 222E 000C 	move.l 12(%fp),%d1
 313 0326 2F09      	move.l %a1,-(%sp)
 314 0328 2F08      	move.l %a0,-(%sp)
 315 032a F21F 5480 	fmove.d (%sp)+,%fp1
 316 032e 2F01      	move.l %d1,-(%sp)
 317 0330 2F00      	move.l %d0,-(%sp)
 318 0332 F21F 5400 	fmove.d (%sp)+,%fp0
 319 0336 F200 00A2 	fadd.x %fp0,%fp1
 320 033a F227 7480 	fmove.d %fp1,-(%sp)
68K GAS   			page 7


 321 033e 201F      	move.l (%sp)+,%d0
 322 0340 221F      	move.l (%sp)+,%d1
 323 0342 2079 0000 	move.l one,%a0
 323      0000 
 324 0348 2279 0000 	move.l one+4,%a1
 324      0000 
 325 034e 2F01      	move.l %d1,-(%sp)
 326 0350 2F00      	move.l %d0,-(%sp)
 327 0352 F21F 5480 	fmove.d (%sp)+,%fp1
 328 0356 2F09      	move.l %a1,-(%sp)
 329 0358 2F08      	move.l %a0,-(%sp)
 330 035a F21F 5400 	fmove.d (%sp)+,%fp0
 331 035e F200 00B8 	fcmp.x %fp0,%fp1
 332 0362 F240 0012 	fsgt %d0
 333 0366 4400      	neg.b %d0
 334 0368 4A00      	tst.b %d0
 335 036a 6700 0090 	jeq .L9
 336 036e 0CAE 3E3F 	cmp.l #1044381695,-32(%fp)
 336      FFFF FFE0 
 337 0376 6E10      	jgt .L10
 338 0378 2039 0000 	move.l one,%d0
 338      0000 
 339 037e 2239 0000 	move.l one+4,%d1
 339      0000 
 340 0384 6000 03C0 	jra .L3
 341               	.L10:
 342 0388 2079 0000 	move.l one,%a0
 342      0000 
 343 038e 2279 0000 	move.l one+4,%a1
 343      0000 
 344 0394 202E 0008 	move.l 8(%fp),%d0
 345 0398 222E 000C 	move.l 12(%fp),%d1
 346 039c 2F01      	move.l %d1,-(%sp)
 347 039e 2F00      	move.l %d0,-(%sp)
 348 03a0 F21F 5480 	fmove.d (%sp)+,%fp1
 349 03a4 F23C 54A3 	fmul.d #0x3fd0000000000000,%fp1
 349      3FD0 0000 
 349      0000 0000 
 350 03b0 F227 7480 	fmove.d %fp1,-(%sp)
 351 03b4 201F      	move.l (%sp)+,%d0
 352 03b6 221F      	move.l (%sp)+,%d1
 353 03b8 242E 0008 	move.l 8(%fp),%d2
 354 03bc 262E 000C 	move.l 12(%fp),%d3
 355 03c0 2F01      	move.l %d1,-(%sp)
 356 03c2 2F00      	move.l %d0,-(%sp)
 357 03c4 F21F 5400 	fmove.d (%sp)+,%fp0
 358 03c8 2F03      	move.l %d3,-(%sp)
 359 03ca 2F02      	move.l %d2,-(%sp)
 360 03cc F21F 5480 	fmove.d (%sp)+,%fp1
 361 03d0 F200 0423 	fmul.x %fp1,%fp0
 362 03d4 F227 7400 	fmove.d %fp0,-(%sp)
 363 03d8 201F      	move.l (%sp)+,%d0
 364 03da 221F      	move.l (%sp)+,%d1
 365 03dc 2F09      	move.l %a1,-(%sp)
 366 03de 2F08      	move.l %a0,-(%sp)
 367 03e0 F21F 5400 	fmove.d (%sp)+,%fp0
 368 03e4 2F01      	move.l %d1,-(%sp)
68K GAS   			page 8


 369 03e6 2F00      	move.l %d0,-(%sp)
 370 03e8 F21F 5480 	fmove.d (%sp)+,%fp1
 371 03ec F200 0428 	fsub.x %fp1,%fp0
 372 03f0 F227 7400 	fmove.d %fp0,-(%sp)
 373 03f4 201F      	move.l (%sp)+,%d0
 374 03f6 221F      	move.l (%sp)+,%d1
 375 03f8 6000 034C 	jra .L3
 376               	.L9:
 377 03fc 206E 0008 	move.l 8(%fp),%a0
 378 0400 226E 000C 	move.l 12(%fp),%a1
 379 0404 202E 0008 	move.l 8(%fp),%d0
 380 0408 222E 000C 	move.l 12(%fp),%d1
 381 040c 2F09      	move.l %a1,-(%sp)
 382 040e 2F08      	move.l %a0,-(%sp)
 383 0410 F21F 5400 	fmove.d (%sp)+,%fp0
 384 0414 2F01      	move.l %d1,-(%sp)
 385 0416 2F00      	move.l %d0,-(%sp)
 386 0418 F21F 5480 	fmove.d (%sp)+,%fp1
 387 041c F200 0423 	fmul.x %fp1,%fp0
 388 0420 F22E 7400 	fmove.d %fp0,-8(%fp)
 388      FFF8 
 389 0426 2039 0000 	move.l R05,%d0
 389      0000 
 390 042c 2239 0000 	move.l R05+4,%d1
 390      0000 
 391 0432 2F01      	move.l %d1,-(%sp)
 392 0434 2F00      	move.l %d0,-(%sp)
 393 0436 F21F 5400 	fmove.d (%sp)+,%fp0
 394 043a F22E 5423 	fmul.d -8(%fp),%fp0
 394      FFF8 
 395 0440 F227 7400 	fmove.d %fp0,-(%sp)
 396 0444 201F      	move.l (%sp)+,%d0
 397 0446 221F      	move.l (%sp)+,%d1
 398 0448 2079 0000 	move.l R04,%a0
 398      0000 
 399 044e 2279 0000 	move.l R04+4,%a1
 399      0000 
 400 0454 2F01      	move.l %d1,-(%sp)
 401 0456 2F00      	move.l %d0,-(%sp)
 402 0458 F21F 5480 	fmove.d (%sp)+,%fp1
 403 045c 2F09      	move.l %a1,-(%sp)
 404 045e 2F08      	move.l %a0,-(%sp)
 405 0460 F21F 5400 	fmove.d (%sp)+,%fp0
 406 0464 F200 00A2 	fadd.x %fp0,%fp1
 407 0468 F227 7480 	fmove.d %fp1,-(%sp)
 408 046c 201F      	move.l (%sp)+,%d0
 409 046e 221F      	move.l (%sp)+,%d1
 410 0470 2F01      	move.l %d1,-(%sp)
 411 0472 2F00      	move.l %d0,-(%sp)
 412 0474 F21F 5480 	fmove.d (%sp)+,%fp1
 413 0478 F22E 54A3 	fmul.d -8(%fp),%fp1
 413      FFF8 
 414 047e F227 7480 	fmove.d %fp1,-(%sp)
 415 0482 201F      	move.l (%sp)+,%d0
 416 0484 221F      	move.l (%sp)+,%d1
 417 0486 2079 0000 	move.l R03,%a0
 417      0000 
68K GAS   			page 9


 418 048c 2279 0000 	move.l R03+4,%a1
 418      0000 
 419 0492 2F01      	move.l %d1,-(%sp)
 420 0494 2F00      	move.l %d0,-(%sp)
 421 0496 F21F 5400 	fmove.d (%sp)+,%fp0
 422 049a 2F09      	move.l %a1,-(%sp)
 423 049c 2F08      	move.l %a0,-(%sp)
 424 049e F21F 5480 	fmove.d (%sp)+,%fp1
 425 04a2 F200 0422 	fadd.x %fp1,%fp0
 426 04a6 F227 7400 	fmove.d %fp0,-(%sp)
 427 04aa 201F      	move.l (%sp)+,%d0
 428 04ac 221F      	move.l (%sp)+,%d1
 429 04ae 2F01      	move.l %d1,-(%sp)
 430 04b0 2F00      	move.l %d0,-(%sp)
 431 04b2 F21F 5400 	fmove.d (%sp)+,%fp0
 432 04b6 F22E 5423 	fmul.d -8(%fp),%fp0
 432      FFF8 
 433 04bc F227 7400 	fmove.d %fp0,-(%sp)
 434 04c0 201F      	move.l (%sp)+,%d0
 435 04c2 221F      	move.l (%sp)+,%d1
 436 04c4 2079 0000 	move.l R02,%a0
 436      0000 
 437 04ca 2279 0000 	move.l R02+4,%a1
 437      0000 
 438 04d0 2F01      	move.l %d1,-(%sp)
 439 04d2 2F00      	move.l %d0,-(%sp)
 440 04d4 F21F 5480 	fmove.d (%sp)+,%fp1
 441 04d8 2F09      	move.l %a1,-(%sp)
 442 04da 2F08      	move.l %a0,-(%sp)
 443 04dc F21F 5400 	fmove.d (%sp)+,%fp0
 444 04e0 F200 00A2 	fadd.x %fp0,%fp1
 445 04e4 F227 7480 	fmove.d %fp1,-(%sp)
 446 04e8 201F      	move.l (%sp)+,%d0
 447 04ea 221F      	move.l (%sp)+,%d1
 448 04ec 2F01      	move.l %d1,-(%sp)
 449 04ee 2F00      	move.l %d0,-(%sp)
 450 04f0 F21F 5480 	fmove.d (%sp)+,%fp1
 451 04f4 F22E 54A3 	fmul.d -8(%fp),%fp1
 451      FFF8 
 452 04fa F22E 7480 	fmove.d %fp1,-72(%fp)
 452      FFB8 
 453 0500 2039 0000 	move.l S04,%d0
 453      0000 
 454 0506 2239 0000 	move.l S04+4,%d1
 454      0000 
 455 050c 2F01      	move.l %d1,-(%sp)
 456 050e 2F00      	move.l %d0,-(%sp)
 457 0510 F21F 5400 	fmove.d (%sp)+,%fp0
 458 0514 F22E 5423 	fmul.d -8(%fp),%fp0
 458      FFF8 
 459 051a F227 7400 	fmove.d %fp0,-(%sp)
 460 051e 201F      	move.l (%sp)+,%d0
 461 0520 221F      	move.l (%sp)+,%d1
 462 0522 2079 0000 	move.l S03,%a0
 462      0000 
 463 0528 2279 0000 	move.l S03+4,%a1
 463      0000 
68K GAS   			page 10


 464 052e 2F01      	move.l %d1,-(%sp)
 465 0530 2F00      	move.l %d0,-(%sp)
 466 0532 F21F 5480 	fmove.d (%sp)+,%fp1
 467 0536 2F09      	move.l %a1,-(%sp)
 468 0538 2F08      	move.l %a0,-(%sp)
 469 053a F21F 5400 	fmove.d (%sp)+,%fp0
 470 053e F200 00A2 	fadd.x %fp0,%fp1
 471 0542 F227 7480 	fmove.d %fp1,-(%sp)
 472 0546 201F      	move.l (%sp)+,%d0
 473 0548 221F      	move.l (%sp)+,%d1
 474 054a 2F01      	move.l %d1,-(%sp)
 475 054c 2F00      	move.l %d0,-(%sp)
 476 054e F21F 5480 	fmove.d (%sp)+,%fp1
 477 0552 F22E 54A3 	fmul.d -8(%fp),%fp1
 477      FFF8 
 478 0558 F227 7480 	fmove.d %fp1,-(%sp)
 479 055c 201F      	move.l (%sp)+,%d0
 480 055e 221F      	move.l (%sp)+,%d1
 481 0560 2079 0000 	move.l S02,%a0
 481      0000 
 482 0566 2279 0000 	move.l S02+4,%a1
 482      0000 
 483 056c 2F01      	move.l %d1,-(%sp)
 484 056e 2F00      	move.l %d0,-(%sp)
 485 0570 F21F 5400 	fmove.d (%sp)+,%fp0
 486 0574 2F09      	move.l %a1,-(%sp)
 487 0576 2F08      	move.l %a0,-(%sp)
 488 0578 F21F 5480 	fmove.d (%sp)+,%fp1
 489 057c F200 0422 	fadd.x %fp1,%fp0
 490 0580 F227 7400 	fmove.d %fp0,-(%sp)
 491 0584 201F      	move.l (%sp)+,%d0
 492 0586 221F      	move.l (%sp)+,%d1
 493 0588 2F01      	move.l %d1,-(%sp)
 494 058a 2F00      	move.l %d0,-(%sp)
 495 058c F21F 5400 	fmove.d (%sp)+,%fp0
 496 0590 F22E 5423 	fmul.d -8(%fp),%fp0
 496      FFF8 
 497 0596 F227 7400 	fmove.d %fp0,-(%sp)
 498 059a 201F      	move.l (%sp)+,%d0
 499 059c 221F      	move.l (%sp)+,%d1
 500 059e 2079 0000 	move.l S01,%a0
 500      0000 
 501 05a4 2279 0000 	move.l S01+4,%a1
 501      0000 
 502 05aa 2F01      	move.l %d1,-(%sp)
 503 05ac 2F00      	move.l %d0,-(%sp)
 504 05ae F21F 5480 	fmove.d (%sp)+,%fp1
 505 05b2 2F09      	move.l %a1,-(%sp)
 506 05b4 2F08      	move.l %a0,-(%sp)
 507 05b6 F21F 5400 	fmove.d (%sp)+,%fp0
 508 05ba F200 00A2 	fadd.x %fp0,%fp1
 509 05be F227 7480 	fmove.d %fp1,-(%sp)
 510 05c2 201F      	move.l (%sp)+,%d0
 511 05c4 221F      	move.l (%sp)+,%d1
 512 05c6 2F01      	move.l %d1,-(%sp)
 513 05c8 2F00      	move.l %d0,-(%sp)
 514 05ca F21F 5480 	fmove.d (%sp)+,%fp1
68K GAS   			page 11


 515 05ce F22E 54A3 	fmul.d -8(%fp),%fp1
 515      FFF8 
 516 05d4 F227 7480 	fmove.d %fp1,-(%sp)
 517 05d8 201F      	move.l (%sp)+,%d0
 518 05da 221F      	move.l (%sp)+,%d1
 519 05dc 2079 0000 	move.l one,%a0
 519      0000 
 520 05e2 2279 0000 	move.l one+4,%a1
 520      0000 
 521 05e8 2F01      	move.l %d1,-(%sp)
 522 05ea 2F00      	move.l %d0,-(%sp)
 523 05ec F21F 5400 	fmove.d (%sp)+,%fp0
 524 05f0 2F09      	move.l %a1,-(%sp)
 525 05f2 2F08      	move.l %a0,-(%sp)
 526 05f4 F21F 5480 	fmove.d (%sp)+,%fp1
 527 05f8 F200 0422 	fadd.x %fp1,%fp0
 528 05fc F22E 7400 	fmove.d %fp0,-40(%fp)
 528      FFD8 
 529 0602 0CAE 3FEF 	cmp.l #1072693247,-32(%fp)
 529      FFFF FFE0 
 530 060a 6E72      	jgt .L11
 531 060c F22E 5400 	fmove.d -72(%fp),%fp0
 531      FFB8 
 532 0612 F22E 5420 	fdiv.d -40(%fp),%fp0
 532      FFD8 
 533 0618 F227 7400 	fmove.d %fp0,-(%sp)
 534 061c 201F      	move.l (%sp)+,%d0
 535 061e 221F      	move.l (%sp)+,%d1
 536 0620 2F01      	move.l %d1,-(%sp)
 537 0622 2F00      	move.l %d0,-(%sp)
 538 0624 F21F 5480 	fmove.d (%sp)+,%fp1
 539 0628 F23C 54A8 	fsub.d #0x3fd0000000000000,%fp1
 539      3FD0 0000 
 539      0000 0000 
 540 0634 F227 7480 	fmove.d %fp1,-(%sp)
 541 0638 201F      	move.l (%sp)+,%d0
 542 063a 221F      	move.l (%sp)+,%d1
 543 063c 2F01      	move.l %d1,-(%sp)
 544 063e 2F00      	move.l %d0,-(%sp)
 545 0640 F21F 5400 	fmove.d (%sp)+,%fp0
 546 0644 F22E 5423 	fmul.d -8(%fp),%fp0
 546      FFF8 
 547 064a F227 7400 	fmove.d %fp0,-(%sp)
 548 064e 201F      	move.l (%sp)+,%d0
 549 0650 221F      	move.l (%sp)+,%d1
 550 0652 2079 0000 	move.l one,%a0
 550      0000 
 551 0658 2279 0000 	move.l one+4,%a1
 551      0000 
 552 065e 2F01      	move.l %d1,-(%sp)
 553 0660 2F00      	move.l %d0,-(%sp)
 554 0662 F21F 5480 	fmove.d (%sp)+,%fp1
 555 0666 2F09      	move.l %a1,-(%sp)
 556 0668 2F08      	move.l %a0,-(%sp)
 557 066a F21F 5400 	fmove.d (%sp)+,%fp0
 558 066e F200 00A2 	fadd.x %fp0,%fp1
 559 0672 F227 7480 	fmove.d %fp1,-(%sp)
68K GAS   			page 12


 560 0676 201F      	move.l (%sp)+,%d0
 561 0678 221F      	move.l (%sp)+,%d1
 562 067a 6000 00CA 	jra .L3
 563               	.L11:
 564 067e 202E 0008 	move.l 8(%fp),%d0
 565 0682 222E 000C 	move.l 12(%fp),%d1
 566 0686 2F01      	move.l %d1,-(%sp)
 567 0688 2F00      	move.l %d0,-(%sp)
 568 068a F21F 5480 	fmove.d (%sp)+,%fp1
 569 068e F23C 54A3 	fmul.d #0x3fe0000000000000,%fp1
 569      3FE0 0000 
 569      0000 0000 
 570 069a F22E 7480 	fmove.d %fp1,-56(%fp)
 570      FFC8 
 571 06a0 2039 0000 	move.l one,%d0
 571      0000 
 572 06a6 2239 0000 	move.l one+4,%d1
 572      0000 
 573 06ac 2F01      	move.l %d1,-(%sp)
 574 06ae 2F00      	move.l %d0,-(%sp)
 575 06b0 F21F 5400 	fmove.d (%sp)+,%fp0
 576 06b4 F22E 5422 	fadd.d -56(%fp),%fp0
 576      FFC8 
 577 06ba F227 7400 	fmove.d %fp0,-(%sp)
 578 06be 205F      	move.l (%sp)+,%a0
 579 06c0 225F      	move.l (%sp)+,%a1
 580 06c2 2039 0000 	move.l one,%d0
 580      0000 
 581 06c8 2239 0000 	move.l one+4,%d1
 581      0000 
 582 06ce 2F01      	move.l %d1,-(%sp)
 583 06d0 2F00      	move.l %d0,-(%sp)
 584 06d2 F21F 5480 	fmove.d (%sp)+,%fp1
 585 06d6 F22E 54A8 	fsub.d -56(%fp),%fp1
 585      FFC8 
 586 06dc F227 7480 	fmove.d %fp1,-(%sp)
 587 06e0 201F      	move.l (%sp)+,%d0
 588 06e2 221F      	move.l (%sp)+,%d1
 589 06e4 2F09      	move.l %a1,-(%sp)
 590 06e6 2F08      	move.l %a0,-(%sp)
 591 06e8 F21F 5400 	fmove.d (%sp)+,%fp0
 592 06ec 2F01      	move.l %d1,-(%sp)
 593 06ee 2F00      	move.l %d0,-(%sp)
 594 06f0 F21F 5480 	fmove.d (%sp)+,%fp1
 595 06f4 F200 0423 	fmul.x %fp1,%fp0
 596 06f8 F227 7400 	fmove.d %fp0,-(%sp)
 597 06fc 205F      	move.l (%sp)+,%a0
 598 06fe 225F      	move.l (%sp)+,%a1
 599 0700 F22E 5400 	fmove.d -72(%fp),%fp0
 599      FFB8 
 600 0706 F22E 5420 	fdiv.d -40(%fp),%fp0
 600      FFD8 
 601 070c F227 7400 	fmove.d %fp0,-(%sp)
 602 0710 201F      	move.l (%sp)+,%d0
 603 0712 221F      	move.l (%sp)+,%d1
 604 0714 2F01      	move.l %d1,-(%sp)
 605 0716 2F00      	move.l %d0,-(%sp)
68K GAS   			page 13


 606 0718 F21F 5480 	fmove.d (%sp)+,%fp1
 607 071c F22E 54A3 	fmul.d -8(%fp),%fp1
 607      FFF8 
 608 0722 F227 7480 	fmove.d %fp1,-(%sp)
 609 0726 201F      	move.l (%sp)+,%d0
 610 0728 221F      	move.l (%sp)+,%d1
 611 072a 2F09      	move.l %a1,-(%sp)
 612 072c 2F08      	move.l %a0,-(%sp)
 613 072e F21F 5400 	fmove.d (%sp)+,%fp0
 614 0732 2F01      	move.l %d1,-(%sp)
 615 0734 2F00      	move.l %d0,-(%sp)
 616 0736 F21F 5480 	fmove.d (%sp)+,%fp1
 617 073a F200 0422 	fadd.x %fp1,%fp0
 618 073e F227 7400 	fmove.d %fp0,-(%sp)
 619 0742 201F      	move.l (%sp)+,%d0
 620 0744 221F      	move.l (%sp)+,%d1
 621               	.L3:
 622 0746 2F01      	move.l %d1,-(%sp)
 623 0748 2F00      	move.l %d0,-(%sp)
 624 074a F21F 5400 	fmove.d (%sp)+,%fp0
 625 074e 242E FFB0 	move.l -80(%fp),%d2
 626 0752 262E FFB4 	move.l -76(%fp),%d3
 627 0756 4E5E      	unlk %fp
 628 0758 4E75      	rts
 630               	.section.rodata
 631               	.align2
 634               	u00:
 635 0060 BFB2 E4D6 	.long-1078795050
 636 0064 99CB D01F 	.long-1714696161
 637               	.align2
 640               	u01:
 641 0068 3FC6 9D01 	.long1069980929
 642 006c 9DE9 E3FC 	.long-1645616132
 643               	.align2
 646               	u02:
 647 0070 BF8C 4CE8 	.long-1081324312
 648 0074 B16C FA97 	.long-1318258025
 649               	.align2
 652               	u03:
 653 0078 3F36 C54D 	.long1060554061
 654 007c 20B2 9B6B 	.long548576107
 655               	.align2
 658               	u04:
 659 0080 BECF FEA7 	.long-1093665113
 660 0084 73D2 5CAD 	.long1943166125
 661               	.align2
 664               	u05:
 665 0088 3E55 0057 	.long1045758039
 666 008c 3B4E ABD4 	.long995011540
 667               	.align2
 670               	u06:
 671 0090 BDC5 E43D 	.long-1111104451
 672 0094 693F B3C8 	.long1765782472
 673               	.align2
 676               	v01:
 677 0098 3F8A 1270 	.long1066013296
 678 009c 91C9 C71A 	.long-1849047270
68K GAS   			page 14


 679               	.align2
 682               	v02:
 683 00a0 3F13 ECBB 	.long1058270395
 684 00a4 F578 C6C1 	.long-176634175
 685               	.align2
 688               	v03:
 689 00a8 3E91 642D 	.long1049715757
 690 00ac 7FF2 02FD 	.long2146566909
 691               	.align2
 694               	v04:
 695 00b0 3DFE 5018 	.long1040076824
 696 00b4 3BD6 D9EF 	.long1003936239
 697               	.text
 698               	.align2
 699               	.globl__ieee754_y0
 701               	__ieee754_y0:
 702 075a 4E56 FFBC 	link.w %fp,#-68
 703 075e 48E7 3C00 	movem.l #15360,-(%sp)
 704 0762 200E      	move.l %fp,%d0
 705 0764 5080      	addq.l #8,%d0
 706 0766 2040      	move.l %d0,%a0
 707 0768 2D50 FFE4 	move.l (%a0),-28(%fp)
 708 076c 202E FFE4 	move.l -28(%fp),%d0
 709 0770 0880 001F 	bclr #31,%d0
 710 0774 2D40 FFE0 	move.l %d0,-32(%fp)
 711 0778 200E      	move.l %fp,%d0
 712 077a 5080      	addq.l #8,%d0
 713 077c 5880      	addq.l #4,%d0
 714 077e 2040      	move.l %d0,%a0
 715 0780 2D50 FFDC 	move.l (%a0),-36(%fp)
 716 0784 0CAE 7FEF 	cmp.l #2146435071,-32(%fp)
 716      FFFF FFE0 
 717 078c 6F7C      	jle .L13
 718 078e 2079 0000 	move.l one,%a0
 718      0000 
 719 0794 2279 0000 	move.l one+4,%a1
 719      0000 
 720 079a 242E 0008 	move.l 8(%fp),%d2
 721 079e 262E 000C 	move.l 12(%fp),%d3
 722 07a2 202E 0008 	move.l 8(%fp),%d0
 723 07a6 222E 000C 	move.l 12(%fp),%d1
 724 07aa 2F03      	move.l %d3,-(%sp)
 725 07ac 2F02      	move.l %d2,-(%sp)
 726 07ae F21F 5400 	fmove.d (%sp)+,%fp0
 727 07b2 2F01      	move.l %d1,-(%sp)
 728 07b4 2F00      	move.l %d0,-(%sp)
 729 07b6 F21F 5480 	fmove.d (%sp)+,%fp1
 730 07ba F200 0423 	fmul.x %fp1,%fp0
 731 07be F227 7400 	fmove.d %fp0,-(%sp)
 732 07c2 201F      	move.l (%sp)+,%d0
 733 07c4 221F      	move.l (%sp)+,%d1
 734 07c6 242E 0008 	move.l 8(%fp),%d2
 735 07ca 262E 000C 	move.l 12(%fp),%d3
 736 07ce 2F01      	move.l %d1,-(%sp)
 737 07d0 2F00      	move.l %d0,-(%sp)
 738 07d2 F21F 5400 	fmove.d (%sp)+,%fp0
 739 07d6 2F03      	move.l %d3,-(%sp)
68K GAS   			page 15


 740 07d8 2F02      	move.l %d2,-(%sp)
 741 07da F21F 5480 	fmove.d (%sp)+,%fp1
 742 07de F200 0422 	fadd.x %fp1,%fp0
 743 07e2 F227 7400 	fmove.d %fp0,-(%sp)
 744 07e6 201F      	move.l (%sp)+,%d0
 745 07e8 221F      	move.l (%sp)+,%d1
 746 07ea 2F09      	move.l %a1,-(%sp)
 747 07ec 2F08      	move.l %a0,-(%sp)
 748 07ee F21F 5400 	fmove.d (%sp)+,%fp0
 749 07f2 2F01      	move.l %d1,-(%sp)
 750 07f4 2F00      	move.l %d0,-(%sp)
 751 07f6 F21F 5480 	fmove.d (%sp)+,%fp1
 752 07fa F200 0420 	fdiv.x %fp1,%fp0
 753 07fe F227 7400 	fmove.d %fp0,-(%sp)
 754 0802 201F      	move.l (%sp)+,%d0
 755 0804 221F      	move.l (%sp)+,%d1
 756 0806 6000 06B8 	jra .L14
 757               	.L13:
 758 080a 202E FFE0 	move.l -32(%fp),%d0
 759 080e 80AE FFDC 	or.l -36(%fp),%d0
 760 0812 4A80      	tst.l %d0
 761 0814 663C      	jne .L15
 762 0816 2039 0000 	move.l one,%d0
 762      0000 
 763 081c 2239 0000 	move.l one+4,%d1
 763      0000 
 764 0822 0840 001F 	bchg #31,%d0
 765 0826 2079 0000 	move.l zero,%a0
 765      0000 
 766 082c 2279 0000 	move.l zero+4,%a1
 766      0000 
 767 0832 2F01      	move.l %d1,-(%sp)
 768 0834 2F00      	move.l %d0,-(%sp)
 769 0836 F21F 5400 	fmove.d (%sp)+,%fp0
 770 083a 2F09      	move.l %a1,-(%sp)
 771 083c 2F08      	move.l %a0,-(%sp)
 772 083e F21F 5480 	fmove.d (%sp)+,%fp1
 773 0842 F200 0420 	fdiv.x %fp1,%fp0
 774 0846 F227 7400 	fmove.d %fp0,-(%sp)
 775 084a 201F      	move.l (%sp)+,%d0
 776 084c 221F      	move.l (%sp)+,%d1
 777 084e 6000 0670 	jra .L14
 778               	.L15:
 779 0852 4AAE FFE4 	tst.l -28(%fp)
 780 0856 6C38      	jge .L16
 781 0858 2039 0000 	move.l zero,%d0
 781      0000 
 782 085e 2239 0000 	move.l zero+4,%d1
 782      0000 
 783 0864 2079 0000 	move.l zero,%a0
 783      0000 
 784 086a 2279 0000 	move.l zero+4,%a1
 784      0000 
 785 0870 2F01      	move.l %d1,-(%sp)
 786 0872 2F00      	move.l %d0,-(%sp)
 787 0874 F21F 5400 	fmove.d (%sp)+,%fp0
 788 0878 2F09      	move.l %a1,-(%sp)
68K GAS   			page 16


 789 087a 2F08      	move.l %a0,-(%sp)
 790 087c F21F 5480 	fmove.d (%sp)+,%fp1
 791 0880 F200 0420 	fdiv.x %fp1,%fp0
 792 0884 F227 7400 	fmove.d %fp0,-(%sp)
 793 0888 201F      	move.l (%sp)+,%d0
 794 088a 221F      	move.l (%sp)+,%d1
 795 088c 6000 0632 	jra .L14
 796               	.L16:
 797 0890 0CAE 3FFF 	cmp.l #1073741823,-32(%fp)
 797      FFFF FFE0 
 798 0898 6F00 0258 	jle .L17
 799 089c 202E 0008 	move.l 8(%fp),%d0
 800 08a0 222E 000C 	move.l 12(%fp),%d1
 801 08a4 2F01      	move.l %d1,-(%sp)
 802 08a6 2F00      	move.l %d0,-(%sp)
 803 08a8 4EB9 0000 	jsr sin
 803      0000 
 804 08ae 508F      	addq.l #8,%sp
 805 08b0 F22E 7400 	fmove.d %fp0,-44(%fp)
 805      FFD4 
 806 08b6 202E 0008 	move.l 8(%fp),%d0
 807 08ba 222E 000C 	move.l 12(%fp),%d1
 808 08be 2F01      	move.l %d1,-(%sp)
 809 08c0 2F00      	move.l %d0,-(%sp)
 810 08c2 4EB9 0000 	jsr cos
 810      0000 
 811 08c8 508F      	addq.l #8,%sp
 812 08ca F22E 7400 	fmove.d %fp0,-52(%fp)
 812      FFCC 
 813 08d0 F22E 5400 	fmove.d -44(%fp),%fp0
 813      FFD4 
 814 08d6 F22E 5428 	fsub.d -52(%fp),%fp0
 814      FFCC 
 815 08dc F22E 7400 	fmove.d %fp0,-16(%fp)
 815      FFF0 
 816 08e2 F22E 5480 	fmove.d -44(%fp),%fp1
 816      FFD4 
 817 08e8 F22E 54A2 	fadd.d -52(%fp),%fp1
 817      FFCC 
 818 08ee F22E 7480 	fmove.d %fp1,-24(%fp)
 818      FFE8 
 819 08f4 0CAE 7FDF 	cmp.l #2145386495,-32(%fp)
 819      FFFF FFE0 
 820 08fc 6E00 00B0 	jgt .L18
 821 0900 202E 0008 	move.l 8(%fp),%d0
 822 0904 222E 000C 	move.l 12(%fp),%d1
 823 0908 2F01      	move.l %d1,-(%sp)
 824 090a 2F00      	move.l %d0,-(%sp)
 825 090c F21F 5400 	fmove.d (%sp)+,%fp0
 826 0910 2F01      	move.l %d1,-(%sp)
 827 0912 2F00      	move.l %d0,-(%sp)
 828 0914 F21F 5480 	fmove.d (%sp)+,%fp1
 829 0918 F200 0422 	fadd.x %fp1,%fp0
 830 091c F227 7400 	fmove.d %fp0,-(%sp)
 831 0920 201F      	move.l (%sp)+,%d0
 832 0922 221F      	move.l (%sp)+,%d1
 833 0924 2F01      	move.l %d1,-(%sp)
68K GAS   			page 17


 834 0926 2F00      	move.l %d0,-(%sp)
 835 0928 4EB9 0000 	jsr cos
 835      0000 
 836 092e 508F      	addq.l #8,%sp
 837 0930 F227 7400 	fmove.d %fp0,-(%sp)
 838 0934 201F      	move.l (%sp)+,%d0
 839 0936 221F      	move.l (%sp)+,%d1
 840 0938 2F01      	move.l %d1,-(%sp)
 841 093a 2F00      	move.l %d0,-(%sp)
 842 093c F21F 5400 	fmove.d (%sp)+,%fp0
 843 0940 F200 001A 	fneg.x %fp0,%fp0
 844 0944 F22E 7400 	fmove.d %fp0,-8(%fp)
 844      FFF8 
 845 094a F22E 5480 	fmove.d -44(%fp),%fp1
 845      FFD4 
 846 0950 F22E 54A3 	fmul.d -52(%fp),%fp1
 846      FFCC 
 847 0956 F227 7480 	fmove.d %fp1,-(%sp)
 848 095a 201F      	move.l (%sp)+,%d0
 849 095c 221F      	move.l (%sp)+,%d1
 850 095e 2079 0000 	move.l zero,%a0
 850      0000 
 851 0964 2279 0000 	move.l zero+4,%a1
 851      0000 
 852 096a 2F01      	move.l %d1,-(%sp)
 853 096c 2F00      	move.l %d0,-(%sp)
 854 096e F21F 5400 	fmove.d (%sp)+,%fp0
 855 0972 2F09      	move.l %a1,-(%sp)
 856 0974 2F08      	move.l %a0,-(%sp)
 857 0976 F21F 5480 	fmove.d (%sp)+,%fp1
 858 097a F200 0438 	fcmp.x %fp1,%fp0
 859 097e F240 0014 	fslt %d0
 860 0982 4400      	neg.b %d0
 861 0984 4A00      	tst.b %d0
 862 0986 6714      	jeq .L19
 863 0988 F22E 5400 	fmove.d -8(%fp),%fp0
 863      FFF8 
 864 098e F22E 5420 	fdiv.d -16(%fp),%fp0
 864      FFF0 
 865 0994 F22E 7400 	fmove.d %fp0,-24(%fp)
 865      FFE8 
 866 099a 6012      	jra .L18
 867               	.L19:
 868 099c F22E 5480 	fmove.d -8(%fp),%fp1
 868      FFF8 
 869 09a2 F22E 54A0 	fdiv.d -24(%fp),%fp1
 869      FFE8 
 870 09a8 F22E 7480 	fmove.d %fp1,-16(%fp)
 870      FFF0 
 871               	.L18:
 872 09ae 0CAE 4800 	cmp.l #1207959552,-32(%fp)
 872      0000 FFE0 
 873 09b6 6F5C      	jle .L20
 874 09b8 2039 0000 	move.l invsqrtpi,%d0
 874      0000 
 875 09be 2239 0000 	move.l invsqrtpi+4,%d1
 875      0000 
68K GAS   			page 18


 876 09c4 2F01      	move.l %d1,-(%sp)
 877 09c6 2F00      	move.l %d0,-(%sp)
 878 09c8 F21F 5400 	fmove.d (%sp)+,%fp0
 879 09cc F22E 5423 	fmul.d -16(%fp),%fp0
 879      FFF0 
 880 09d2 F227 7400 	fmove.d %fp0,-(%sp)
 881 09d6 241F      	move.l (%sp)+,%d2
 882 09d8 261F      	move.l (%sp)+,%d3
 883 09da 202E 0008 	move.l 8(%fp),%d0
 884 09de 222E 000C 	move.l 12(%fp),%d1
 885 09e2 2F01      	move.l %d1,-(%sp)
 886 09e4 2F00      	move.l %d0,-(%sp)
 887 09e6 4EB9 0000 	jsr sqrt
 887      0000 
 888 09ec 508F      	addq.l #8,%sp
 889 09ee F227 7400 	fmove.d %fp0,-(%sp)
 890 09f2 201F      	move.l (%sp)+,%d0
 891 09f4 221F      	move.l (%sp)+,%d1
 892 09f6 2F03      	move.l %d3,-(%sp)
 893 09f8 2F02      	move.l %d2,-(%sp)
 894 09fa F21F 5480 	fmove.d (%sp)+,%fp1
 895 09fe 2F01      	move.l %d1,-(%sp)
 896 0a00 2F00      	move.l %d0,-(%sp)
 897 0a02 F21F 5400 	fmove.d (%sp)+,%fp0
 898 0a06 F200 00A0 	fdiv.x %fp0,%fp1
 899 0a0a F22E 7480 	fmove.d %fp1,-8(%fp)
 899      FFF8 
 900 0a10 6000 00D4 	jra .L21
 901               	.L20:
 902 0a14 202E 0008 	move.l 8(%fp),%d0
 903 0a18 222E 000C 	move.l 12(%fp),%d1
 904 0a1c 2F01      	move.l %d1,-(%sp)
 905 0a1e 2F00      	move.l %d0,-(%sp)
 906 0a20 4EBA 04B0 	jsr pzero
 907 0a24 508F      	addq.l #8,%sp
 908 0a26 F22E 7400 	fmove.d %fp0,-60(%fp)
 908      FFC4 
 909 0a2c 202E 0008 	move.l 8(%fp),%d0
 910 0a30 222E 000C 	move.l 12(%fp),%d1
 911 0a34 2F01      	move.l %d1,-(%sp)
 912 0a36 2F00      	move.l %d0,-(%sp)
 913 0a38 4EBA 0850 	jsr qzero
 914 0a3c 508F      	addq.l #8,%sp
 915 0a3e F22E 7400 	fmove.d %fp0,-68(%fp)
 915      FFBC 
 916 0a44 F22E 5480 	fmove.d -60(%fp),%fp1
 916      FFC4 
 917 0a4a F22E 54A3 	fmul.d -16(%fp),%fp1
 917      FFF0 
 918 0a50 F227 7480 	fmove.d %fp1,-(%sp)
 919 0a54 205F      	move.l (%sp)+,%a0
 920 0a56 225F      	move.l (%sp)+,%a1
 921 0a58 F22E 5400 	fmove.d -68(%fp),%fp0
 921      FFBC 
 922 0a5e F22E 5423 	fmul.d -24(%fp),%fp0
 922      FFE8 
 923 0a64 F227 7400 	fmove.d %fp0,-(%sp)
68K GAS   			page 19


 924 0a68 201F      	move.l (%sp)+,%d0
 925 0a6a 221F      	move.l (%sp)+,%d1
 926 0a6c 2F09      	move.l %a1,-(%sp)
 927 0a6e 2F08      	move.l %a0,-(%sp)
 928 0a70 F21F 5480 	fmove.d (%sp)+,%fp1
 929 0a74 2F01      	move.l %d1,-(%sp)
 930 0a76 2F00      	move.l %d0,-(%sp)
 931 0a78 F21F 5400 	fmove.d (%sp)+,%fp0
 932 0a7c F200 00A2 	fadd.x %fp0,%fp1
 933 0a80 F227 7480 	fmove.d %fp1,-(%sp)
 934 0a84 201F      	move.l (%sp)+,%d0
 935 0a86 221F      	move.l (%sp)+,%d1
 936 0a88 2079 0000 	move.l invsqrtpi,%a0
 936      0000 
 937 0a8e 2279 0000 	move.l invsqrtpi+4,%a1
 937      0000 
 938 0a94 2F01      	move.l %d1,-(%sp)
 939 0a96 2F00      	move.l %d0,-(%sp)
 940 0a98 F21F 5480 	fmove.d (%sp)+,%fp1
 941 0a9c 2F09      	move.l %a1,-(%sp)
 942 0a9e 2F08      	move.l %a0,-(%sp)
 943 0aa0 F21F 5400 	fmove.d (%sp)+,%fp0
 944 0aa4 F200 00A3 	fmul.x %fp0,%fp1
 945 0aa8 F227 7480 	fmove.d %fp1,-(%sp)
 946 0aac 241F      	move.l (%sp)+,%d2
 947 0aae 261F      	move.l (%sp)+,%d3
 948 0ab0 202E 0008 	move.l 8(%fp),%d0
 949 0ab4 222E 000C 	move.l 12(%fp),%d1
 950 0ab8 2F01      	move.l %d1,-(%sp)
 951 0aba 2F00      	move.l %d0,-(%sp)
 952 0abc 4EB9 0000 	jsr sqrt
 952      0000 
 953 0ac2 508F      	addq.l #8,%sp
 954 0ac4 F227 7400 	fmove.d %fp0,-(%sp)
 955 0ac8 201F      	move.l (%sp)+,%d0
 956 0aca 221F      	move.l (%sp)+,%d1
 957 0acc 2F03      	move.l %d3,-(%sp)
 958 0ace 2F02      	move.l %d2,-(%sp)
 959 0ad0 F21F 5480 	fmove.d (%sp)+,%fp1
 960 0ad4 2F01      	move.l %d1,-(%sp)
 961 0ad6 2F00      	move.l %d0,-(%sp)
 962 0ad8 F21F 5400 	fmove.d (%sp)+,%fp0
 963 0adc F200 00A0 	fdiv.x %fp0,%fp1
 964 0ae0 F22E 7480 	fmove.d %fp1,-8(%fp)
 964      FFF8 
 965               	.L21:
 966 0ae6 202E FFF8 	move.l -8(%fp),%d0
 967 0aea 222E FFFC 	move.l -4(%fp),%d1
 968 0aee 6000 03D0 	jra .L14
 969               	.L17:
 970 0af2 0CAE 3E40 	cmp.l #1044381696,-32(%fp)
 970      0000 FFE0 
 971 0afa 6E70      	jgt .L22
 972 0afc 202E 0008 	move.l 8(%fp),%d0
 973 0b00 222E 000C 	move.l 12(%fp),%d1
 974 0b04 2F01      	move.l %d1,-(%sp)
 975 0b06 2F00      	move.l %d0,-(%sp)
68K GAS   			page 20


 976 0b08 4EB9 0000 	jsr __ieee754_log
 976      0000 
 977 0b0e 508F      	addq.l #8,%sp
 978 0b10 F227 7400 	fmove.d %fp0,-(%sp)
 979 0b14 205F      	move.l (%sp)+,%a0
 980 0b16 225F      	move.l (%sp)+,%a1
 981 0b18 2039 0000 	move.l tpi,%d0
 981      0000 
 982 0b1e 2239 0000 	move.l tpi+4,%d1
 982      0000 
 983 0b24 2F09      	move.l %a1,-(%sp)
 984 0b26 2F08      	move.l %a0,-(%sp)
 985 0b28 F21F 5480 	fmove.d (%sp)+,%fp1
 986 0b2c 2F01      	move.l %d1,-(%sp)
 987 0b2e 2F00      	move.l %d0,-(%sp)
 988 0b30 F21F 5400 	fmove.d (%sp)+,%fp0
 989 0b34 F200 00A3 	fmul.x %fp0,%fp1
 990 0b38 F227 7480 	fmove.d %fp1,-(%sp)
 991 0b3c 201F      	move.l (%sp)+,%d0
 992 0b3e 221F      	move.l (%sp)+,%d1
 993 0b40 2079 0000 	move.l u00,%a0
 993      0000 
 994 0b46 2279 0000 	move.l u00+4,%a1
 994      0000 
 995 0b4c 2F01      	move.l %d1,-(%sp)
 996 0b4e 2F00      	move.l %d0,-(%sp)
 997 0b50 F21F 5480 	fmove.d (%sp)+,%fp1
 998 0b54 2F09      	move.l %a1,-(%sp)
 999 0b56 2F08      	move.l %a0,-(%sp)
 1000 0b58 F21F 5400 	fmove.d (%sp)+,%fp0
 1001 0b5c F200 00A2 	fadd.x %fp0,%fp1
 1002 0b60 F227 7480 	fmove.d %fp1,-(%sp)
 1003 0b64 201F      	move.l (%sp)+,%d0
 1004 0b66 221F      	move.l (%sp)+,%d1
 1005 0b68 6000 0356 	jra .L14
 1006               	.L22:
 1007 0b6c 206E 0008 	move.l 8(%fp),%a0
 1008 0b70 226E 000C 	move.l 12(%fp),%a1
 1009 0b74 202E 0008 	move.l 8(%fp),%d0
 1010 0b78 222E 000C 	move.l 12(%fp),%d1
 1011 0b7c 2F09      	move.l %a1,-(%sp)
 1012 0b7e 2F08      	move.l %a0,-(%sp)
 1013 0b80 F21F 5480 	fmove.d (%sp)+,%fp1
 1014 0b84 2F01      	move.l %d1,-(%sp)
 1015 0b86 2F00      	move.l %d0,-(%sp)
 1016 0b88 F21F 5400 	fmove.d (%sp)+,%fp0
 1017 0b8c F200 00A3 	fmul.x %fp0,%fp1
 1018 0b90 F22E 7480 	fmove.d %fp1,-8(%fp)
 1018      FFF8 
 1019 0b96 2039 0000 	move.l u06,%d0
 1019      0000 
 1020 0b9c 2239 0000 	move.l u06+4,%d1
 1020      0000 
 1021 0ba2 2F01      	move.l %d1,-(%sp)
 1022 0ba4 2F00      	move.l %d0,-(%sp)
 1023 0ba6 F21F 5480 	fmove.d (%sp)+,%fp1
 1024 0baa F22E 54A3 	fmul.d -8(%fp),%fp1
68K GAS   			page 21


 1024      FFF8 
 1025 0bb0 F227 7480 	fmove.d %fp1,-(%sp)
 1026 0bb4 201F      	move.l (%sp)+,%d0
 1027 0bb6 221F      	move.l (%sp)+,%d1
 1028 0bb8 2079 0000 	move.l u05,%a0
 1028      0000 
 1029 0bbe 2279 0000 	move.l u05+4,%a1
 1029      0000 
 1030 0bc4 2F01      	move.l %d1,-(%sp)
 1031 0bc6 2F00      	move.l %d0,-(%sp)
 1032 0bc8 F21F 5400 	fmove.d (%sp)+,%fp0
 1033 0bcc 2F09      	move.l %a1,-(%sp)
 1034 0bce 2F08      	move.l %a0,-(%sp)
 1035 0bd0 F21F 5480 	fmove.d (%sp)+,%fp1
 1036 0bd4 F200 0422 	fadd.x %fp1,%fp0
 1037 0bd8 F227 7400 	fmove.d %fp0,-(%sp)
 1038 0bdc 201F      	move.l (%sp)+,%d0
 1039 0bde 221F      	move.l (%sp)+,%d1
 1040 0be0 2F01      	move.l %d1,-(%sp)
 1041 0be2 2F00      	move.l %d0,-(%sp)
 1042 0be4 F21F 5400 	fmove.d (%sp)+,%fp0
 1043 0be8 F22E 5423 	fmul.d -8(%fp),%fp0
 1043      FFF8 
 1044 0bee F227 7400 	fmove.d %fp0,-(%sp)
 1045 0bf2 201F      	move.l (%sp)+,%d0
 1046 0bf4 221F      	move.l (%sp)+,%d1
 1047 0bf6 2079 0000 	move.l u04,%a0
 1047      0000 
 1048 0bfc 2279 0000 	move.l u04+4,%a1
 1048      0000 
 1049 0c02 2F01      	move.l %d1,-(%sp)
 1050 0c04 2F00      	move.l %d0,-(%sp)
 1051 0c06 F21F 5480 	fmove.d (%sp)+,%fp1
 1052 0c0a 2F09      	move.l %a1,-(%sp)
 1053 0c0c 2F08      	move.l %a0,-(%sp)
 1054 0c0e F21F 5400 	fmove.d (%sp)+,%fp0
 1055 0c12 F200 00A2 	fadd.x %fp0,%fp1
 1056 0c16 F227 7480 	fmove.d %fp1,-(%sp)
 1057 0c1a 201F      	move.l (%sp)+,%d0
 1058 0c1c 221F      	move.l (%sp)+,%d1
 1059 0c1e 2F01      	move.l %d1,-(%sp)
 1060 0c20 2F00      	move.l %d0,-(%sp)
 1061 0c22 F21F 5480 	fmove.d (%sp)+,%fp1
 1062 0c26 F22E 54A3 	fmul.d -8(%fp),%fp1
 1062      FFF8 
 1063 0c2c F227 7480 	fmove.d %fp1,-(%sp)
 1064 0c30 201F      	move.l (%sp)+,%d0
 1065 0c32 221F      	move.l (%sp)+,%d1
 1066 0c34 2079 0000 	move.l u03,%a0
 1066      0000 
 1067 0c3a 2279 0000 	move.l u03+4,%a1
 1067      0000 
 1068 0c40 2F01      	move.l %d1,-(%sp)
 1069 0c42 2F00      	move.l %d0,-(%sp)
 1070 0c44 F21F 5400 	fmove.d (%sp)+,%fp0
 1071 0c48 2F09      	move.l %a1,-(%sp)
 1072 0c4a 2F08      	move.l %a0,-(%sp)
68K GAS   			page 22


 1073 0c4c F21F 5480 	fmove.d (%sp)+,%fp1
 1074 0c50 F200 0422 	fadd.x %fp1,%fp0
 1075 0c54 F227 7400 	fmove.d %fp0,-(%sp)
 1076 0c58 201F      	move.l (%sp)+,%d0
 1077 0c5a 221F      	move.l (%sp)+,%d1
 1078 0c5c 2F01      	move.l %d1,-(%sp)
 1079 0c5e 2F00      	move.l %d0,-(%sp)
 1080 0c60 F21F 5400 	fmove.d (%sp)+,%fp0
 1081 0c64 F22E 5423 	fmul.d -8(%fp),%fp0
 1081      FFF8 
 1082 0c6a F227 7400 	fmove.d %fp0,-(%sp)
 1083 0c6e 201F      	move.l (%sp)+,%d0
 1084 0c70 221F      	move.l (%sp)+,%d1
 1085 0c72 2079 0000 	move.l u02,%a0
 1085      0000 
 1086 0c78 2279 0000 	move.l u02+4,%a1
 1086      0000 
 1087 0c7e 2F01      	move.l %d1,-(%sp)
 1088 0c80 2F00      	move.l %d0,-(%sp)
 1089 0c82 F21F 5480 	fmove.d (%sp)+,%fp1
 1090 0c86 2F09      	move.l %a1,-(%sp)
 1091 0c88 2F08      	move.l %a0,-(%sp)
 1092 0c8a F21F 5400 	fmove.d (%sp)+,%fp0
 1093 0c8e F200 00A2 	fadd.x %fp0,%fp1
 1094 0c92 F227 7480 	fmove.d %fp1,-(%sp)
 1095 0c96 201F      	move.l (%sp)+,%d0
 1096 0c98 221F      	move.l (%sp)+,%d1
 1097 0c9a 2F01      	move.l %d1,-(%sp)
 1098 0c9c 2F00      	move.l %d0,-(%sp)
 1099 0c9e F21F 5480 	fmove.d (%sp)+,%fp1
 1100 0ca2 F22E 54A3 	fmul.d -8(%fp),%fp1
 1100      FFF8 
 1101 0ca8 F227 7480 	fmove.d %fp1,-(%sp)
 1102 0cac 201F      	move.l (%sp)+,%d0
 1103 0cae 221F      	move.l (%sp)+,%d1
 1104 0cb0 2079 0000 	move.l u01,%a0
 1104      0000 
 1105 0cb6 2279 0000 	move.l u01+4,%a1
 1105      0000 
 1106 0cbc 2F01      	move.l %d1,-(%sp)
 1107 0cbe 2F00      	move.l %d0,-(%sp)
 1108 0cc0 F21F 5400 	fmove.d (%sp)+,%fp0
 1109 0cc4 2F09      	move.l %a1,-(%sp)
 1110 0cc6 2F08      	move.l %a0,-(%sp)
 1111 0cc8 F21F 5480 	fmove.d (%sp)+,%fp1
 1112 0ccc F200 0422 	fadd.x %fp1,%fp0
 1113 0cd0 F227 7400 	fmove.d %fp0,-(%sp)
 1114 0cd4 201F      	move.l (%sp)+,%d0
 1115 0cd6 221F      	move.l (%sp)+,%d1
 1116 0cd8 2F01      	move.l %d1,-(%sp)
 1117 0cda 2F00      	move.l %d0,-(%sp)
 1118 0cdc F21F 5400 	fmove.d (%sp)+,%fp0
 1119 0ce0 F22E 5423 	fmul.d -8(%fp),%fp0
 1119      FFF8 
 1120 0ce6 F227 7400 	fmove.d %fp0,-(%sp)
 1121 0cea 201F      	move.l (%sp)+,%d0
 1122 0cec 221F      	move.l (%sp)+,%d1
68K GAS   			page 23


 1123 0cee 2079 0000 	move.l u00,%a0
 1123      0000 
 1124 0cf4 2279 0000 	move.l u00+4,%a1
 1124      0000 
 1125 0cfa 2F01      	move.l %d1,-(%sp)
 1126 0cfc 2F00      	move.l %d0,-(%sp)
 1127 0cfe F21F 5480 	fmove.d (%sp)+,%fp1
 1128 0d02 2F09      	move.l %a1,-(%sp)
 1129 0d04 2F08      	move.l %a0,-(%sp)
 1130 0d06 F21F 5400 	fmove.d (%sp)+,%fp0
 1131 0d0a F200 00A2 	fadd.x %fp0,%fp1
 1132 0d0e F22E 7480 	fmove.d %fp1,-60(%fp)
 1132      FFC4 
 1133 0d14 2039 0000 	move.l v04,%d0
 1133      0000 
 1134 0d1a 2239 0000 	move.l v04+4,%d1
 1134      0000 
 1135 0d20 2F01      	move.l %d1,-(%sp)
 1136 0d22 2F00      	move.l %d0,-(%sp)
 1137 0d24 F21F 5480 	fmove.d (%sp)+,%fp1
 1138 0d28 F22E 54A3 	fmul.d -8(%fp),%fp1
 1138      FFF8 
 1139 0d2e F227 7480 	fmove.d %fp1,-(%sp)
 1140 0d32 201F      	move.l (%sp)+,%d0
 1141 0d34 221F      	move.l (%sp)+,%d1
 1142 0d36 2079 0000 	move.l v03,%a0
 1142      0000 
 1143 0d3c 2279 0000 	move.l v03+4,%a1
 1143      0000 
 1144 0d42 2F01      	move.l %d1,-(%sp)
 1145 0d44 2F00      	move.l %d0,-(%sp)
 1146 0d46 F21F 5400 	fmove.d (%sp)+,%fp0
 1147 0d4a 2F09      	move.l %a1,-(%sp)
 1148 0d4c 2F08      	move.l %a0,-(%sp)
 1149 0d4e F21F 5480 	fmove.d (%sp)+,%fp1
 1150 0d52 F200 0422 	fadd.x %fp1,%fp0
 1151 0d56 F227 7400 	fmove.d %fp0,-(%sp)
 1152 0d5a 201F      	move.l (%sp)+,%d0
 1153 0d5c 221F      	move.l (%sp)+,%d1
 1154 0d5e 2F01      	move.l %d1,-(%sp)
 1155 0d60 2F00      	move.l %d0,-(%sp)
 1156 0d62 F21F 5400 	fmove.d (%sp)+,%fp0
 1157 0d66 F22E 5423 	fmul.d -8(%fp),%fp0
 1157      FFF8 
 1158 0d6c F227 7400 	fmove.d %fp0,-(%sp)
 1159 0d70 201F      	move.l (%sp)+,%d0
 1160 0d72 221F      	move.l (%sp)+,%d1
 1161 0d74 2079 0000 	move.l v02,%a0
 1161      0000 
 1162 0d7a 2279 0000 	move.l v02+4,%a1
 1162      0000 
 1163 0d80 2F01      	move.l %d1,-(%sp)
 1164 0d82 2F00      	move.l %d0,-(%sp)
 1165 0d84 F21F 5480 	fmove.d (%sp)+,%fp1
 1166 0d88 2F09      	move.l %a1,-(%sp)
 1167 0d8a 2F08      	move.l %a0,-(%sp)
 1168 0d8c F21F 5400 	fmove.d (%sp)+,%fp0
68K GAS   			page 24


 1169 0d90 F200 00A2 	fadd.x %fp0,%fp1
 1170 0d94 F227 7480 	fmove.d %fp1,-(%sp)
 1171 0d98 201F      	move.l (%sp)+,%d0
 1172 0d9a 221F      	move.l (%sp)+,%d1
 1173 0d9c 2F01      	move.l %d1,-(%sp)
 1174 0d9e 2F00      	move.l %d0,-(%sp)
 1175 0da0 F21F 5480 	fmove.d (%sp)+,%fp1
 1176 0da4 F22E 54A3 	fmul.d -8(%fp),%fp1
 1176      FFF8 
 1177 0daa F227 7480 	fmove.d %fp1,-(%sp)
 1178 0dae 201F      	move.l (%sp)+,%d0
 1179 0db0 221F      	move.l (%sp)+,%d1
 1180 0db2 2079 0000 	move.l v01,%a0
 1180      0000 
 1181 0db8 2279 0000 	move.l v01+4,%a1
 1181      0000 
 1182 0dbe 2F01      	move.l %d1,-(%sp)
 1183 0dc0 2F00      	move.l %d0,-(%sp)
 1184 0dc2 F21F 5400 	fmove.d (%sp)+,%fp0
 1185 0dc6 2F09      	move.l %a1,-(%sp)
 1186 0dc8 2F08      	move.l %a0,-(%sp)
 1187 0dca F21F 5480 	fmove.d (%sp)+,%fp1
 1188 0dce F200 0422 	fadd.x %fp1,%fp0
 1189 0dd2 F227 7400 	fmove.d %fp0,-(%sp)
 1190 0dd6 201F      	move.l (%sp)+,%d0
 1191 0dd8 221F      	move.l (%sp)+,%d1
 1192 0dda 2F01      	move.l %d1,-(%sp)
 1193 0ddc 2F00      	move.l %d0,-(%sp)
 1194 0dde F21F 5400 	fmove.d (%sp)+,%fp0
 1195 0de2 F22E 5423 	fmul.d -8(%fp),%fp0
 1195      FFF8 
 1196 0de8 F227 7400 	fmove.d %fp0,-(%sp)
 1197 0dec 201F      	move.l (%sp)+,%d0
 1198 0dee 221F      	move.l (%sp)+,%d1
 1199 0df0 2079 0000 	move.l one,%a0
 1199      0000 
 1200 0df6 2279 0000 	move.l one+4,%a1
 1200      0000 
 1201 0dfc 2F01      	move.l %d1,-(%sp)
 1202 0dfe 2F00      	move.l %d0,-(%sp)
 1203 0e00 F21F 5480 	fmove.d (%sp)+,%fp1
 1204 0e04 2F09      	move.l %a1,-(%sp)
 1205 0e06 2F08      	move.l %a0,-(%sp)
 1206 0e08 F21F 5400 	fmove.d (%sp)+,%fp0
 1207 0e0c F200 00A2 	fadd.x %fp0,%fp1
 1208 0e10 F22E 7480 	fmove.d %fp1,-68(%fp)
 1208      FFBC 
 1209 0e16 F22E 5480 	fmove.d -60(%fp),%fp1
 1209      FFC4 
 1210 0e1c F22E 54A0 	fdiv.d -68(%fp),%fp1
 1210      FFBC 
 1211 0e22 F227 7480 	fmove.d %fp1,-(%sp)
 1212 0e26 241F      	move.l (%sp)+,%d2
 1213 0e28 261F      	move.l (%sp)+,%d3
 1214 0e2a 202E 0008 	move.l 8(%fp),%d0
 1215 0e2e 222E 000C 	move.l 12(%fp),%d1
 1216 0e32 2F01      	move.l %d1,-(%sp)
68K GAS   			page 25


 1217 0e34 2F00      	move.l %d0,-(%sp)
 1218 0e36 4EBA F1C8 	jsr __ieee754_j0
 1219 0e3a 508F      	addq.l #8,%sp
 1220 0e3c F227 7400 	fmove.d %fp0,-(%sp)
 1221 0e40 281F      	move.l (%sp)+,%d4
 1222 0e42 2A1F      	move.l (%sp)+,%d5
 1223 0e44 202E 0008 	move.l 8(%fp),%d0
 1224 0e48 222E 000C 	move.l 12(%fp),%d1
 1225 0e4c 2F01      	move.l %d1,-(%sp)
 1226 0e4e 2F00      	move.l %d0,-(%sp)
 1227 0e50 4EB9 0000 	jsr __ieee754_log
 1227      0000 
 1228 0e56 508F      	addq.l #8,%sp
 1229 0e58 F227 7400 	fmove.d %fp0,-(%sp)
 1230 0e5c 201F      	move.l (%sp)+,%d0
 1231 0e5e 221F      	move.l (%sp)+,%d1
 1232 0e60 2F05      	move.l %d5,-(%sp)
 1233 0e62 2F04      	move.l %d4,-(%sp)
 1234 0e64 F21F 5400 	fmove.d (%sp)+,%fp0
 1235 0e68 2F01      	move.l %d1,-(%sp)
 1236 0e6a 2F00      	move.l %d0,-(%sp)
 1237 0e6c F21F 5480 	fmove.d (%sp)+,%fp1
 1238 0e70 F200 0423 	fmul.x %fp1,%fp0
 1239 0e74 F227 7400 	fmove.d %fp0,-(%sp)
 1240 0e78 201F      	move.l (%sp)+,%d0
 1241 0e7a 221F      	move.l (%sp)+,%d1
 1242 0e7c 2079 0000 	move.l tpi,%a0
 1242      0000 
 1243 0e82 2279 0000 	move.l tpi+4,%a1
 1243      0000 
 1244 0e88 2F01      	move.l %d1,-(%sp)
 1245 0e8a 2F00      	move.l %d0,-(%sp)
 1246 0e8c F21F 5400 	fmove.d (%sp)+,%fp0
 1247 0e90 2F09      	move.l %a1,-(%sp)
 1248 0e92 2F08      	move.l %a0,-(%sp)
 1249 0e94 F21F 5480 	fmove.d (%sp)+,%fp1
 1250 0e98 F200 0423 	fmul.x %fp1,%fp0
 1251 0e9c F227 7400 	fmove.d %fp0,-(%sp)
 1252 0ea0 201F      	move.l (%sp)+,%d0
 1253 0ea2 221F      	move.l (%sp)+,%d1
 1254 0ea4 2F03      	move.l %d3,-(%sp)
 1255 0ea6 2F02      	move.l %d2,-(%sp)
 1256 0ea8 F21F 5400 	fmove.d (%sp)+,%fp0
 1257 0eac 2F01      	move.l %d1,-(%sp)
 1258 0eae 2F00      	move.l %d0,-(%sp)
 1259 0eb0 F21F 5480 	fmove.d (%sp)+,%fp1
 1260 0eb4 F200 0422 	fadd.x %fp1,%fp0
 1261 0eb8 F227 7400 	fmove.d %fp0,-(%sp)
 1262 0ebc 201F      	move.l (%sp)+,%d0
 1263 0ebe 221F      	move.l (%sp)+,%d1
 1264               	.L14:
 1265 0ec0 2F01      	move.l %d1,-(%sp)
 1266 0ec2 2F00      	move.l %d0,-(%sp)
 1267 0ec4 F21F 5400 	fmove.d (%sp)+,%fp0
 1268 0ec8 4CEE 003C 	movem.l -84(%fp),#60
 1268      FFAC 
 1269 0ece 4E5E      	unlk %fp
68K GAS   			page 26


 1270 0ed0 4E75      	rts
 1272               	.section.rodata
 1273               	.align2
 1276               	pR8:
 1277 00b8 0000 0000 	.long0
 1278 00bc 0000 0000 	.long0
 1279 00c0 BFB1 FFFF 	.long-1078853633
 1280 00c4 FFFF FD32 	.long-718
 1281 00c8 C020 29D0 	.long-1071633968
 1282 00cc B44F A779 	.long-1269848199
 1283 00d0 C070 1102 	.long-1066397438
 1284 00d4 7B19 E863 	.long2065295459
 1285 00d8 C0A3 6A6E 	.long-1063032210
 1286 00dc CD4D CAFC 	.long-850539780
 1287 00e0 C0B4 850B 	.long-1061911285
 1288 00e4 36CC 643D 	.long919364669
 1289               	.align2
 1292               	pS8:
 1293 00e8 405D 2233 	.long1079845427
 1294 00ec 07A9 6751 	.long128542545
 1295 00f0 40AD F37D 	.long1085141885
 1296 00f4 5059 6938 	.long1348036920
 1297 00f8 40E3 D2BB 	.long1088672443
 1298 00fc 6EB6 B05F 	.long1857466463
 1299 0100 40FC 810F 	.long1090289935
 1300 0104 8F9F A9BD 	.long-1885361731
 1301 0108 40E7 4177 	.long1088897399
 1302 010c 4F2C 49DC 	.long1328302556
 1303               	.align2
 1306               	pR5:
 1307 0110 BDA9 18B1 	.long-1112991567
 1308 0114 47E4 95CC 	.long1206162892
 1309 0118 BFB1 FFFF 	.long-1078853633
 1310 011c E69A FBC6 	.long-426050618
 1311 0120 C010 A370 	.long-1072651408
 1312 0124 F90C 6BBF 	.long-116626497
 1313 0128 C050 EB2F 	.long-1068438737
 1314 012c 5A7D 1783 	.long1518147459
 1315 0130 C074 B3B3 	.long-1066093645
 1316 0134 6742 CC63 	.long1732430947
 1317 0138 C075 A6EF 	.long-1066031377
 1318 013c 28A3 8BD7 	.long681806807
 1319               	.align2
 1322               	pS5:
 1323 0140 404E 6081 	.long1078878337
 1324 0144 0C98 C5DE 	.long211338718
 1325 0148 4090 6D02 	.long1083206914
 1326 014c 5C7E 2864 	.long1551771748
 1327 0150 40B7 5AF8 	.long1085758200
 1328 0154 8FBE 1D60 	.long-1883366048
 1329 0158 40C2 CCB8 	.long1086508216
 1330 015c FA76 FA38 	.long-92865992
 1331 0160 40A2 CC1D 	.long1084410909
 1332 0164 C70B E864 	.long-955520924
 1333               	.align2
 1336               	pR3:
 1337 0168 BE25 E103 	.long-1104813821
68K GAS   			page 27


 1338 016c 6FE1 AA86 	.long1877060230
 1339 0170 BFB1 FFF6 	.long-1078853642
 1340 0174 F7C0 E24B 	.long-138354101
 1341 0178 C003 45B2 	.long-1073527374
 1342 017c AEA4 8074 	.long-1364950924
 1343 0180 C035 F74A 	.long-1070205110
 1344 0184 4CB9 4E14 	.long1287212564
 1345 0188 C04D 0A22 	.long-1068692958
 1346 018c 420A 1A45 	.long1107958341
 1347 0190 C03F 72AC 	.long-1069583700
 1348 0194 A892 D80F 	.long-1466771441
 1349               	.align2
 1352               	pS3:
 1353 0198 4041 ED92 	.long1078062482
 1354 019c 8407 7DD3 	.long-2079883821
 1355 01a0 4076 9839 	.long1081514041
 1356 01a4 464A 7C0E 	.long1179286542
 1357 01a8 4092 A66E 	.long1083352686
 1358 01ac 6D10 61D6 	.long1829790166
 1359 01b0 4091 9FFC 	.long1083285500
 1360 01b4 B8C3 9B7E 	.long-1195140226
 1361 01b8 4065 B296 	.long1080406678
 1362 01bc FC37 9081 	.long-63467391
 1363               	.align2
 1366               	pR2:
 1367 01c0 BE77 D316 	.long-1099443434
 1368 01c4 E927 026D 	.long-383319443
 1369 01c8 BFB1 FF62 	.long-1078853790
 1370 01cc 495E 1E42 	.long1230904898
 1371 01d0 BFF7 3639 	.long-1074317767
 1372 01d4 8A24 A843 	.long-1977309117
 1373 01d8 C01E 8AF3 	.long-1071740173
 1374 01dc EDAF A7F3 	.long-307255309
 1375 01e0 C026 62E6 	.long-1071226138
 1376 01e4 C524 6303 	.long-987471101
 1377 01e8 C009 DE81 	.long-1073095039
 1378 01ec AF8F E70F 	.long-1349523697
 1379               	.align2
 1382               	pS2:
 1383 01f0 4036 3865 	.long1077295205
 1384 01f4 908B 5959 	.long-1869915815
 1385 01f8 4061 069E 	.long1080100510
 1386 01fc 0EE8 878F 	.long250120079
 1387 0200 4070 E786 	.long1081141126
 1388 0204 42EA 079B 	.long1122633627
 1389 0208 4063 3C03 	.long1080245251
 1390 020c 3AB6 FAFF 	.long985070335
 1391 0210 402D 50B3 	.long1076711603
 1392 0214 4439 1809 	.long1144592393
 1393               	.text
 1394               	.align2
 1396               	pzero:
 1397 0ed2 4E56 FFDC 	link.w %fp,#-36
 1398 0ed6 48E7 3F38 	movem.l #16184,-(%sp)
 1399 0eda 200E      	move.l %fp,%d0
 1400 0edc 5080      	addq.l #8,%d0
 1401 0ede 2040      	move.l %d0,%a0
68K GAS   			page 28


 1402 0ee0 2010      	move.l (%a0),%d0
 1403 0ee2 2200      	move.l %d0,%d1
 1404 0ee4 0881 001F 	bclr #31,%d1
 1405 0ee8 2D41 FFF4 	move.l %d1,-12(%fp)
 1406 0eec 0CAE 401F 	cmp.l #1075838975,-12(%fp)
 1406      FFFF FFF4 
 1407 0ef4 6F12      	jle .L24
 1408 0ef6 2D7C 0000 	move.l #pR8,-4(%fp)
 1408      0000 FFFC 
 1409 0efe 2D7C 0000 	move.l #pS8,-8(%fp)
 1409      0000 FFF8 
 1410 0f06 6052      	jra .L25
 1411               	.L24:
 1412 0f08 0CAE 4012 	cmp.l #1074933386,-12(%fp)
 1412      2E8A FFF4 
 1413 0f10 6F12      	jle .L26
 1414 0f12 2D7C 0000 	move.l #pR5,-4(%fp)
 1414      0000 FFFC 
 1415 0f1a 2D7C 0000 	move.l #pS5,-8(%fp)
 1415      0000 FFF8 
 1416 0f22 6036      	jra .L25
 1417               	.L26:
 1418 0f24 0CAE 4006 	cmp.l #1074191212,-12(%fp)
 1418      DB6C FFF4 
 1419 0f2c 6F12      	jle .L27
 1420 0f2e 2D7C 0000 	move.l #pR3,-4(%fp)
 1420      0000 FFFC 
 1421 0f36 2D7C 0000 	move.l #pS3,-8(%fp)
 1421      0000 FFF8 
 1422 0f3e 601A      	jra .L25
 1423               	.L27:
 1424 0f40 0CAE 3FFF 	cmp.l #1073741823,-12(%fp)
 1424      FFFF FFF4 
 1425 0f48 6F10      	jle .L25
 1426 0f4a 2D7C 0000 	move.l #pR2,-4(%fp)
 1426      0000 FFFC 
 1427 0f52 2D7C 0000 	move.l #pS2,-8(%fp)
 1427      0000 FFF8 
 1428               	.L25:
 1429 0f5a 2079 0000 	move.l one,%a0
 1429      0000 
 1430 0f60 2279 0000 	move.l one+4,%a1
 1430      0000 
 1431 0f66 242E 0008 	move.l 8(%fp),%d2
 1432 0f6a 262E 000C 	move.l 12(%fp),%d3
 1433 0f6e 202E 0008 	move.l 8(%fp),%d0
 1434 0f72 222E 000C 	move.l 12(%fp),%d1
 1435 0f76 2F03      	move.l %d3,-(%sp)
 1436 0f78 2F02      	move.l %d2,-(%sp)
 1437 0f7a F21F 5400 	fmove.d (%sp)+,%fp0
 1438 0f7e 2F01      	move.l %d1,-(%sp)
 1439 0f80 2F00      	move.l %d0,-(%sp)
 1440 0f82 F21F 5480 	fmove.d (%sp)+,%fp1
 1441 0f86 F200 0423 	fmul.x %fp1,%fp0
 1442 0f8a F227 7400 	fmove.d %fp0,-(%sp)
 1443 0f8e 201F      	move.l (%sp)+,%d0
 1444 0f90 221F      	move.l (%sp)+,%d1
68K GAS   			page 29


 1445 0f92 2F09      	move.l %a1,-(%sp)
 1446 0f94 2F08      	move.l %a0,-(%sp)
 1447 0f96 F21F 5400 	fmove.d (%sp)+,%fp0
 1448 0f9a 2F01      	move.l %d1,-(%sp)
 1449 0f9c 2F00      	move.l %d0,-(%sp)
 1450 0f9e F21F 5480 	fmove.d (%sp)+,%fp1
 1451 0fa2 F200 0420 	fdiv.x %fp1,%fp0
 1452 0fa6 F22E 7400 	fmove.d %fp0,-20(%fp)
 1452      FFEC 
 1453 0fac 202E FFFC 	move.l -4(%fp),%d0
 1454 0fb0 2440      	move.l %d0,%a2
 1455 0fb2 2052      	move.l (%a2),%a0
 1456 0fb4 226A 0004 	move.l 4(%a2),%a1
 1457 0fb8 202E FFFC 	move.l -4(%fp),%d0
 1458 0fbc 5080      	addq.l #8,%d0
 1459 0fbe 2840      	move.l %d0,%a4
 1460 0fc0 2414      	move.l (%a4),%d2
 1461 0fc2 262C 0004 	move.l 4(%a4),%d3
 1462 0fc6 7010      	moveq #16,%d0
 1463 0fc8 D0AE FFFC 	add.l -4(%fp),%d0
 1464 0fcc 2440      	move.l %d0,%a2
 1465 0fce 2812      	move.l (%a2),%d4
 1466 0fd0 2A2A 0004 	move.l 4(%a2),%d5
 1467 0fd4 7018      	moveq #24,%d0
 1468 0fd6 D0AE FFFC 	add.l -4(%fp),%d0
 1469 0fda 2840      	move.l %d0,%a4
 1470 0fdc 2C14      	move.l (%a4),%d6
 1471 0fde 2E2C 0004 	move.l 4(%a4),%d7
 1472 0fe2 7020      	moveq #32,%d0
 1473 0fe4 D0AE FFFC 	add.l -4(%fp),%d0
 1474 0fe8 2840      	move.l %d0,%a4
 1475 0fea 2454      	move.l (%a4),%a2
 1476 0fec 266C 0004 	move.l 4(%a4),%a3
 1477 0ff0 7028      	moveq #40,%d0
 1478 0ff2 D0AE FFFC 	add.l -4(%fp),%d0
 1479 0ff6 2840      	move.l %d0,%a4
 1480 0ff8 2014      	move.l (%a4),%d0
 1481 0ffa 222C 0004 	move.l 4(%a4),%d1
 1482 0ffe 2F01      	move.l %d1,-(%sp)
 1483 1000 2F00      	move.l %d0,-(%sp)
 1484 1002 F21F 5400 	fmove.d (%sp)+,%fp0
 1485 1006 F22E 5423 	fmul.d -20(%fp),%fp0
 1485      FFEC 
 1486 100c F227 7400 	fmove.d %fp0,-(%sp)
 1487 1010 201F      	move.l (%sp)+,%d0
 1488 1012 221F      	move.l (%sp)+,%d1
 1489 1014 2F0B      	move.l %a3,-(%sp)
 1490 1016 2F0A      	move.l %a2,-(%sp)
 1491 1018 F21F 5480 	fmove.d (%sp)+,%fp1
 1492 101c 2F01      	move.l %d1,-(%sp)
 1493 101e 2F00      	move.l %d0,-(%sp)
 1494 1020 F21F 5400 	fmove.d (%sp)+,%fp0
 1495 1024 F200 00A2 	fadd.x %fp0,%fp1
 1496 1028 F227 7480 	fmove.d %fp1,-(%sp)
 1497 102c 201F      	move.l (%sp)+,%d0
 1498 102e 221F      	move.l (%sp)+,%d1
 1499 1030 2F01      	move.l %d1,-(%sp)
68K GAS   			page 30


 1500 1032 2F00      	move.l %d0,-(%sp)
 1501 1034 F21F 5480 	fmove.d (%sp)+,%fp1
 1502 1038 F22E 54A3 	fmul.d -20(%fp),%fp1
 1502      FFEC 
 1503 103e F227 7480 	fmove.d %fp1,-(%sp)
 1504 1042 201F      	move.l (%sp)+,%d0
 1505 1044 221F      	move.l (%sp)+,%d1
 1506 1046 2F07      	move.l %d7,-(%sp)
 1507 1048 2F06      	move.l %d6,-(%sp)
 1508 104a F21F 5400 	fmove.d (%sp)+,%fp0
 1509 104e 2F01      	move.l %d1,-(%sp)
 1510 1050 2F00      	move.l %d0,-(%sp)
 1511 1052 F21F 5480 	fmove.d (%sp)+,%fp1
 1512 1056 F200 0422 	fadd.x %fp1,%fp0
 1513 105a F227 7400 	fmove.d %fp0,-(%sp)
 1514 105e 201F      	move.l (%sp)+,%d0
 1515 1060 221F      	move.l (%sp)+,%d1
 1516 1062 2F01      	move.l %d1,-(%sp)
 1517 1064 2F00      	move.l %d0,-(%sp)
 1518 1066 F21F 5400 	fmove.d (%sp)+,%fp0
 1519 106a F22E 5423 	fmul.d -20(%fp),%fp0
 1519      FFEC 
 1520 1070 F227 7400 	fmove.d %fp0,-(%sp)
 1521 1074 201F      	move.l (%sp)+,%d0
 1522 1076 221F      	move.l (%sp)+,%d1
 1523 1078 2F05      	move.l %d5,-(%sp)
 1524 107a 2F04      	move.l %d4,-(%sp)
 1525 107c F21F 5480 	fmove.d (%sp)+,%fp1
 1526 1080 2F01      	move.l %d1,-(%sp)
 1527 1082 2F00      	move.l %d0,-(%sp)
 1528 1084 F21F 5400 	fmove.d (%sp)+,%fp0
 1529 1088 F200 00A2 	fadd.x %fp0,%fp1
 1530 108c F227 7480 	fmove.d %fp1,-(%sp)
 1531 1090 201F      	move.l (%sp)+,%d0
 1532 1092 221F      	move.l (%sp)+,%d1
 1533 1094 2F01      	move.l %d1,-(%sp)
 1534 1096 2F00      	move.l %d0,-(%sp)
 1535 1098 F21F 5480 	fmove.d (%sp)+,%fp1
 1536 109c F22E 54A3 	fmul.d -20(%fp),%fp1
 1536      FFEC 
 1537 10a2 F227 7480 	fmove.d %fp1,-(%sp)
 1538 10a6 201F      	move.l (%sp)+,%d0
 1539 10a8 221F      	move.l (%sp)+,%d1
 1540 10aa 2F03      	move.l %d3,-(%sp)
 1541 10ac 2F02      	move.l %d2,-(%sp)
 1542 10ae F21F 5400 	fmove.d (%sp)+,%fp0
 1543 10b2 2F01      	move.l %d1,-(%sp)
 1544 10b4 2F00      	move.l %d0,-(%sp)
 1545 10b6 F21F 5480 	fmove.d (%sp)+,%fp1
 1546 10ba F200 0422 	fadd.x %fp1,%fp0
 1547 10be F227 7400 	fmove.d %fp0,-(%sp)
 1548 10c2 201F      	move.l (%sp)+,%d0
 1549 10c4 221F      	move.l (%sp)+,%d1
 1550 10c6 2F01      	move.l %d1,-(%sp)
 1551 10c8 2F00      	move.l %d0,-(%sp)
 1552 10ca F21F 5400 	fmove.d (%sp)+,%fp0
 1553 10ce F22E 5423 	fmul.d -20(%fp),%fp0
68K GAS   			page 31


 1553      FFEC 
 1554 10d4 F227 7400 	fmove.d %fp0,-(%sp)
 1555 10d8 201F      	move.l (%sp)+,%d0
 1556 10da 221F      	move.l (%sp)+,%d1
 1557 10dc 2F09      	move.l %a1,-(%sp)
 1558 10de 2F08      	move.l %a0,-(%sp)
 1559 10e0 F21F 5480 	fmove.d (%sp)+,%fp1
 1560 10e4 2F01      	move.l %d1,-(%sp)
 1561 10e6 2F00      	move.l %d0,-(%sp)
 1562 10e8 F21F 5400 	fmove.d (%sp)+,%fp0
 1563 10ec F200 00A2 	fadd.x %fp0,%fp1
 1564 10f0 F22E 7480 	fmove.d %fp1,-28(%fp)
 1564      FFE4 
 1565 10f6 202E FFF8 	move.l -8(%fp),%d0
 1566 10fa 2440      	move.l %d0,%a2
 1567 10fc 2052      	move.l (%a2),%a0
 1568 10fe 226A 0004 	move.l 4(%a2),%a1
 1569 1102 202E FFF8 	move.l -8(%fp),%d0
 1570 1106 5080      	addq.l #8,%d0
 1571 1108 2840      	move.l %d0,%a4
 1572 110a 2414      	move.l (%a4),%d2
 1573 110c 262C 0004 	move.l 4(%a4),%d3
 1574 1110 7010      	moveq #16,%d0
 1575 1112 D0AE FFF8 	add.l -8(%fp),%d0
 1576 1116 2440      	move.l %d0,%a2
 1577 1118 2812      	move.l (%a2),%d4
 1578 111a 2A2A 0004 	move.l 4(%a2),%d5
 1579 111e 7018      	moveq #24,%d0
 1580 1120 D0AE FFF8 	add.l -8(%fp),%d0
 1581 1124 2840      	move.l %d0,%a4
 1582 1126 2C14      	move.l (%a4),%d6
 1583 1128 2E2C 0004 	move.l 4(%a4),%d7
 1584 112c 7020      	moveq #32,%d0
 1585 112e D0AE FFF8 	add.l -8(%fp),%d0
 1586 1132 2440      	move.l %d0,%a2
 1587 1134 2012      	move.l (%a2),%d0
 1588 1136 222A 0004 	move.l 4(%a2),%d1
 1589 113a 2F01      	move.l %d1,-(%sp)
 1590 113c 2F00      	move.l %d0,-(%sp)
 1591 113e F21F 5400 	fmove.d (%sp)+,%fp0
 1592 1142 F22E 5423 	fmul.d -20(%fp),%fp0
 1592      FFEC 
 1593 1148 F227 7400 	fmove.d %fp0,-(%sp)
 1594 114c 201F      	move.l (%sp)+,%d0
 1595 114e 221F      	move.l (%sp)+,%d1
 1596 1150 2F07      	move.l %d7,-(%sp)
 1597 1152 2F06      	move.l %d6,-(%sp)
 1598 1154 F21F 5480 	fmove.d (%sp)+,%fp1
 1599 1158 2F01      	move.l %d1,-(%sp)
 1600 115a 2F00      	move.l %d0,-(%sp)
 1601 115c F21F 5400 	fmove.d (%sp)+,%fp0
 1602 1160 F200 00A2 	fadd.x %fp0,%fp1
 1603 1164 F227 7480 	fmove.d %fp1,-(%sp)
 1604 1168 201F      	move.l (%sp)+,%d0
 1605 116a 221F      	move.l (%sp)+,%d1
 1606 116c 2F01      	move.l %d1,-(%sp)
 1607 116e 2F00      	move.l %d0,-(%sp)
68K GAS   			page 32


 1608 1170 F21F 5480 	fmove.d (%sp)+,%fp1
 1609 1174 F22E 54A3 	fmul.d -20(%fp),%fp1
 1609      FFEC 
 1610 117a F227 7480 	fmove.d %fp1,-(%sp)
 1611 117e 201F      	move.l (%sp)+,%d0
 1612 1180 221F      	move.l (%sp)+,%d1
 1613 1182 2F05      	move.l %d5,-(%sp)
 1614 1184 2F04      	move.l %d4,-(%sp)
 1615 1186 F21F 5400 	fmove.d (%sp)+,%fp0
 1616 118a 2F01      	move.l %d1,-(%sp)
 1617 118c 2F00      	move.l %d0,-(%sp)
 1618 118e F21F 5480 	fmove.d (%sp)+,%fp1
 1619 1192 F200 0422 	fadd.x %fp1,%fp0
 1620 1196 F227 7400 	fmove.d %fp0,-(%sp)
 1621 119a 201F      	move.l (%sp)+,%d0
 1622 119c 221F      	move.l (%sp)+,%d1
 1623 119e 2F01      	move.l %d1,-(%sp)
 1624 11a0 2F00      	move.l %d0,-(%sp)
 1625 11a2 F21F 5400 	fmove.d (%sp)+,%fp0
 1626 11a6 F22E 5423 	fmul.d -20(%fp),%fp0
 1626      FFEC 
 1627 11ac F227 7400 	fmove.d %fp0,-(%sp)
 1628 11b0 201F      	move.l (%sp)+,%d0
 1629 11b2 221F      	move.l (%sp)+,%d1
 1630 11b4 2F03      	move.l %d3,-(%sp)
 1631 11b6 2F02      	move.l %d2,-(%sp)
 1632 11b8 F21F 5480 	fmove.d (%sp)+,%fp1
 1633 11bc 2F01      	move.l %d1,-(%sp)
 1634 11be 2F00      	move.l %d0,-(%sp)
 1635 11c0 F21F 5400 	fmove.d (%sp)+,%fp0
 1636 11c4 F200 00A2 	fadd.x %fp0,%fp1
 1637 11c8 F227 7480 	fmove.d %fp1,-(%sp)
 1638 11cc 201F      	move.l (%sp)+,%d0
 1639 11ce 221F      	move.l (%sp)+,%d1
 1640 11d0 2F01      	move.l %d1,-(%sp)
 1641 11d2 2F00      	move.l %d0,-(%sp)
 1642 11d4 F21F 5480 	fmove.d (%sp)+,%fp1
 1643 11d8 F22E 54A3 	fmul.d -20(%fp),%fp1
 1643      FFEC 
 1644 11de F227 7480 	fmove.d %fp1,-(%sp)
 1645 11e2 201F      	move.l (%sp)+,%d0
 1646 11e4 221F      	move.l (%sp)+,%d1
 1647 11e6 2F09      	move.l %a1,-(%sp)
 1648 11e8 2F08      	move.l %a0,-(%sp)
 1649 11ea F21F 5400 	fmove.d (%sp)+,%fp0
 1650 11ee 2F01      	move.l %d1,-(%sp)
 1651 11f0 2F00      	move.l %d0,-(%sp)
 1652 11f2 F21F 5480 	fmove.d (%sp)+,%fp1
 1653 11f6 F200 0422 	fadd.x %fp1,%fp0
 1654 11fa F227 7400 	fmove.d %fp0,-(%sp)
 1655 11fe 201F      	move.l (%sp)+,%d0
 1656 1200 221F      	move.l (%sp)+,%d1
 1657 1202 2F01      	move.l %d1,-(%sp)
 1658 1204 2F00      	move.l %d0,-(%sp)
 1659 1206 F21F 5400 	fmove.d (%sp)+,%fp0
 1660 120a F22E 5423 	fmul.d -20(%fp),%fp0
 1660      FFEC 
68K GAS   			page 33


 1661 1210 F227 7400 	fmove.d %fp0,-(%sp)
 1662 1214 201F      	move.l (%sp)+,%d0
 1663 1216 221F      	move.l (%sp)+,%d1
 1664 1218 2079 0000 	move.l one,%a0
 1664      0000 
 1665 121e 2279 0000 	move.l one+4,%a1
 1665      0000 
 1666 1224 2F01      	move.l %d1,-(%sp)
 1667 1226 2F00      	move.l %d0,-(%sp)
 1668 1228 F21F 5480 	fmove.d (%sp)+,%fp1
 1669 122c 2F09      	move.l %a1,-(%sp)
 1670 122e 2F08      	move.l %a0,-(%sp)
 1671 1230 F21F 5400 	fmove.d (%sp)+,%fp0
 1672 1234 F200 00A2 	fadd.x %fp0,%fp1
 1673 1238 F22E 7480 	fmove.d %fp1,-36(%fp)
 1673      FFDC 
 1674 123e F22E 5480 	fmove.d -28(%fp),%fp1
 1674      FFE4 
 1675 1244 F22E 54A0 	fdiv.d -36(%fp),%fp1
 1675      FFDC 
 1676 124a F227 7480 	fmove.d %fp1,-(%sp)
 1677 124e 201F      	move.l (%sp)+,%d0
 1678 1250 221F      	move.l (%sp)+,%d1
 1679 1252 2079 0000 	move.l one,%a0
 1679      0000 
 1680 1258 2279 0000 	move.l one+4,%a1
 1680      0000 
 1681 125e 2F01      	move.l %d1,-(%sp)
 1682 1260 2F00      	move.l %d0,-(%sp)
 1683 1262 F21F 5400 	fmove.d (%sp)+,%fp0
 1684 1266 2F09      	move.l %a1,-(%sp)
 1685 1268 2F08      	move.l %a0,-(%sp)
 1686 126a F21F 5480 	fmove.d (%sp)+,%fp1
 1687 126e F200 0422 	fadd.x %fp1,%fp0
 1688 1272 F227 7400 	fmove.d %fp0,-(%sp)
 1689 1276 201F      	move.l (%sp)+,%d0
 1690 1278 221F      	move.l (%sp)+,%d1
 1691 127a 2F01      	move.l %d1,-(%sp)
 1692 127c 2F00      	move.l %d0,-(%sp)
 1693 127e F21F 5400 	fmove.d (%sp)+,%fp0
 1694 1282 4CDF 1CFC 	movem.l (%sp)+,#7420
 1695 1286 4E5E      	unlk %fp
 1696 1288 4E75      	rts
 1698               	.section.rodata
 1699               	.align2
 1702               	qR8:
 1703 0218 0000 0000 	.long0
 1704 021c 0000 0000 	.long0
 1705 0220 3FB2 BFFF 	.long1068679167
 1706 0224 FFFF FE2C 	.long-468
 1707 0228 4027 8952 	.long1076332882
 1708 022c 5BB3 34D6 	.long1538471126
 1709 0230 4081 6D63 	.long1082223971
 1710 0234 1530 1825 	.long355473445
 1711 0238 40C1 4D99 	.long1086410137
 1712 023c 3E18 F46D 	.long1041822829
 1713 0240 40E2 12D4 	.long1088557780
68K GAS   			page 34


 1714 0244 0E90 1566 	.long244323686
 1715               	.align2
 1718               	qS8:
 1719 0248 4064 78D5 	.long1080326357
 1720 024c 365B 39BC 	.long911948220
 1721 0250 40BF A258 	.long1086300760
 1722 0254 4E6B 0563 	.long1315636579
 1723 0258 4101 6652 	.long1090610770
 1724 025c 54D3 8C3F 	.long1423150143
 1725 0260 4128 83DA 	.long1093174234
 1726 0264 83A5 2B43 	.long-2086327485
 1727 0268 4129 A66B 	.long1093248619
 1728 026c 28DE 0B3D 	.long685640509
 1729 0270 C114 FD6D 	.long-1055589011
 1730 0274 2C95 30C5 	.long747974853
 1731               	.align2
 1734               	qR5:
 1735 0278 3DB4 3D8F 	.long1035222415
 1736 027c 29CC 8CD9 	.long701271257
 1737 0280 3FB2 BFFF 	.long1068679167
 1738 0284 D172 B04C 	.long-781012916
 1739 0288 4017 57B0 	.long1075271600
 1740 028c B995 3DD3 	.long-1181401645
 1741 0290 4060 E392 	.long1080091538
 1742 0294 0A87 88E9 	.long176654569
 1743 0298 4090 0CF9 	.long1083182329
 1744 029c 9DC8 C481 	.long-1647786879
 1745 02a0 409F 17E9 	.long1084168169
 1746 02a4 53C6 E3A6 	.long1405543334
 1747               	.align2
 1750               	qS5:
 1751 02a8 4054 B1B3 	.long1079292339
 1752 02ac FB5E 1543 	.long-77720253
 1753 02b0 40A0 3BA0 	.long1084242848
 1754 02b4 DA21 C0CE 	.long-635322162
 1755 02b8 40D2 67D2 	.long1087530962
 1756 02bc 7B59 1E6D 	.long2069438061
 1757 02c0 40EB B5E3 	.long1089189347
 1758 02c4 97E0 2372 	.long-1746918542
 1759 02c8 40E1 9118 	.long1088524568
 1760 02cc 1F7A 54A0 	.long528110752
 1761 02d0 C0B4 EA57 	.long-1061885353
 1762 02d4 BEDB C609 	.long-1092893175
 1763               	.align2
 1766               	qR3:
 1767 02d8 3E32 CD03 	.long1043516675
 1768 02dc 6ADE CB82 	.long1792985986
 1769 02e0 3FB2 BFEE 	.long1068679150
 1770 02e4 0E8D 0842 	.long244123714
 1771 02e8 400A C0FC 	.long1074446588
 1772 02ec 6114 9CF5 	.long1628740853
 1773 02f0 4045 4F98 	.long1078284184
 1774 02f4 962D AEDD 	.long-1775391011
 1775 02f8 4065 59DB 	.long1080383963
 1776 02fc E25E FD1F 	.long-497091297
 1777 0300 4064 D77C 	.long1080350588
 1778 0304 81FA 21E0 	.long-2114313760
68K GAS   			page 35


 1779               	.align2
 1782               	qS3:
 1783 0308 4048 6122 	.long1078485282
 1784 030c BFE3 43A6 	.long-1075625050
 1785 0310 4086 2D83 	.long1082535299
 1786 0314 8654 4EB3 	.long-2041295181
 1787 0318 40AC F04B 	.long1085075531
 1788 031c E44D FC63 	.long-464651165
 1789 0320 40B9 3C6C 	.long1085881452
 1790 0324 D7C7 6A28 	.long-674797016
 1791 0328 40A3 A8AA 	.long1084467370
 1792 032c D94F B1C0 	.long-649088576
 1793 0330 C062 A7EB 	.long-1067276309
 1794 0334 201C F40F 	.long538768399
 1795               	.align2
 1798               	qR2:
 1799 0338 3E84 313B 	.long1048850747
 1800 033c 54F7 6BDB 	.long1425501147
 1801 0340 3FB2 BEC5 	.long1068678853
 1802 0344 3E88 3E34 	.long1049116212
 1803 0348 3FFF F897 	.long1073739927
 1804 034c E727 779C 	.long-416843876
 1805 0350 402C FDBF 	.long1076690367
 1806 0354 AAF9 6FE5 	.long-1426493467
 1807 0358 403F AA8E 	.long1077914254
 1808 035c 29FB DC4A 	.long704371786
 1809 0360 4030 40B1 	.long1076904113
 1810 0364 7181 4BB4 	.long1904298932
 1811               	.align2
 1814               	qS2:
 1815 0368 403E 5D96 	.long1077829014
 1816 036c F7C0 7AED 	.long-138380563
 1817 0370 4070 D591 	.long1081136529
 1818 0374 E4D1 4B40 	.long-456045760
 1819 0378 408A 6645 	.long1082811973
 1820 037c 22B3 BF22 	.long582205218
 1821 0380 408B 977C 	.long1082890108
 1822 0384 9C5C C214 	.long-1671642604
 1823 0388 406A 9553 	.long1080726867
 1824 038c 0E00 1365 	.long234885989
 1825 0390 C015 3E6A 	.long-1072349590
 1826 0394 F8B3 2931 	.long-122476239
 1827               	.text
 1828               	.align2
 1830               	qzero:
 1831 128a 4E56 FFDC 	link.w %fp,#-36
 1832 128e 48E7 3F38 	movem.l #16184,-(%sp)
 1833 1292 200E      	move.l %fp,%d0
 1834 1294 5080      	addq.l #8,%d0
 1835 1296 2040      	move.l %d0,%a0
 1836 1298 2010      	move.l (%a0),%d0
 1837 129a 2200      	move.l %d0,%d1
 1838 129c 0881 001F 	bclr #31,%d1
 1839 12a0 2D41 FFF4 	move.l %d1,-12(%fp)
 1840 12a4 0CAE 401F 	cmp.l #1075838975,-12(%fp)
 1840      FFFF FFF4 
 1841 12ac 6F12      	jle .L29
68K GAS   			page 36


 1842 12ae 2D7C 0000 	move.l #qR8,-4(%fp)
 1842      0000 FFFC 
 1843 12b6 2D7C 0000 	move.l #qS8,-8(%fp)
 1843      0000 FFF8 
 1844 12be 6052      	jra .L30
 1845               	.L29:
 1846 12c0 0CAE 4012 	cmp.l #1074933386,-12(%fp)
 1846      2E8A FFF4 
 1847 12c8 6F12      	jle .L31
 1848 12ca 2D7C 0000 	move.l #qR5,-4(%fp)
 1848      0000 FFFC 
 1849 12d2 2D7C 0000 	move.l #qS5,-8(%fp)
 1849      0000 FFF8 
 1850 12da 6036      	jra .L30
 1851               	.L31:
 1852 12dc 0CAE 4006 	cmp.l #1074191212,-12(%fp)
 1852      DB6C FFF4 
 1853 12e4 6F12      	jle .L32
 1854 12e6 2D7C 0000 	move.l #qR3,-4(%fp)
 1854      0000 FFFC 
 1855 12ee 2D7C 0000 	move.l #qS3,-8(%fp)
 1855      0000 FFF8 
 1856 12f6 601A      	jra .L30
 1857               	.L32:
 1858 12f8 0CAE 3FFF 	cmp.l #1073741823,-12(%fp)
 1858      FFFF FFF4 
 1859 1300 6F10      	jle .L30
 1860 1302 2D7C 0000 	move.l #qR2,-4(%fp)
 1860      0000 FFFC 
 1861 130a 2D7C 0000 	move.l #qS2,-8(%fp)
 1861      0000 FFF8 
 1862               	.L30:
 1863 1312 2079 0000 	move.l one,%a0
 1863      0000 
 1864 1318 2279 0000 	move.l one+4,%a1
 1864      0000 
 1865 131e 242E 0008 	move.l 8(%fp),%d2
 1866 1322 262E 000C 	move.l 12(%fp),%d3
 1867 1326 202E 0008 	move.l 8(%fp),%d0
 1868 132a 222E 000C 	move.l 12(%fp),%d1
 1869 132e 2F03      	move.l %d3,-(%sp)
 1870 1330 2F02      	move.l %d2,-(%sp)
 1871 1332 F21F 5400 	fmove.d (%sp)+,%fp0
 1872 1336 2F01      	move.l %d1,-(%sp)
 1873 1338 2F00      	move.l %d0,-(%sp)
 1874 133a F21F 5480 	fmove.d (%sp)+,%fp1
 1875 133e F200 0423 	fmul.x %fp1,%fp0
 1876 1342 F227 7400 	fmove.d %fp0,-(%sp)
 1877 1346 201F      	move.l (%sp)+,%d0
 1878 1348 221F      	move.l (%sp)+,%d1
 1879 134a 2F09      	move.l %a1,-(%sp)
 1880 134c 2F08      	move.l %a0,-(%sp)
 1881 134e F21F 5400 	fmove.d (%sp)+,%fp0
 1882 1352 2F01      	move.l %d1,-(%sp)
 1883 1354 2F00      	move.l %d0,-(%sp)
 1884 1356 F21F 5480 	fmove.d (%sp)+,%fp1
 1885 135a F200 0420 	fdiv.x %fp1,%fp0
68K GAS   			page 37


 1886 135e F22E 7400 	fmove.d %fp0,-20(%fp)
 1886      FFEC 
 1887 1364 202E FFFC 	move.l -4(%fp),%d0
 1888 1368 2440      	move.l %d0,%a2
 1889 136a 2052      	move.l (%a2),%a0
 1890 136c 226A 0004 	move.l 4(%a2),%a1
 1891 1370 202E FFFC 	move.l -4(%fp),%d0
 1892 1374 5080      	addq.l #8,%d0
 1893 1376 2840      	move.l %d0,%a4
 1894 1378 2414      	move.l (%a4),%d2
 1895 137a 262C 0004 	move.l 4(%a4),%d3
 1896 137e 7010      	moveq #16,%d0
 1897 1380 D0AE FFFC 	add.l -4(%fp),%d0
 1898 1384 2440      	move.l %d0,%a2
 1899 1386 2812      	move.l (%a2),%d4
 1900 1388 2A2A 0004 	move.l 4(%a2),%d5
 1901 138c 7018      	moveq #24,%d0
 1902 138e D0AE FFFC 	add.l -4(%fp),%d0
 1903 1392 2840      	move.l %d0,%a4
 1904 1394 2C14      	move.l (%a4),%d6
 1905 1396 2E2C 0004 	move.l 4(%a4),%d7
 1906 139a 7020      	moveq #32,%d0
 1907 139c D0AE FFFC 	add.l -4(%fp),%d0
 1908 13a0 2840      	move.l %d0,%a4
 1909 13a2 2454      	move.l (%a4),%a2
 1910 13a4 266C 0004 	move.l 4(%a4),%a3
 1911 13a8 7028      	moveq #40,%d0
 1912 13aa D0AE FFFC 	add.l -4(%fp),%d0
 1913 13ae 2840      	move.l %d0,%a4
 1914 13b0 2014      	move.l (%a4),%d0
 1915 13b2 222C 0004 	move.l 4(%a4),%d1
 1916 13b6 2F01      	move.l %d1,-(%sp)
 1917 13b8 2F00      	move.l %d0,-(%sp)
 1918 13ba F21F 5400 	fmove.d (%sp)+,%fp0
 1919 13be F22E 5423 	fmul.d -20(%fp),%fp0
 1919      FFEC 
 1920 13c4 F227 7400 	fmove.d %fp0,-(%sp)
 1921 13c8 201F      	move.l (%sp)+,%d0
 1922 13ca 221F      	move.l (%sp)+,%d1
 1923 13cc 2F0B      	move.l %a3,-(%sp)
 1924 13ce 2F0A      	move.l %a2,-(%sp)
 1925 13d0 F21F 5480 	fmove.d (%sp)+,%fp1
 1926 13d4 2F01      	move.l %d1,-(%sp)
 1927 13d6 2F00      	move.l %d0,-(%sp)
 1928 13d8 F21F 5400 	fmove.d (%sp)+,%fp0
 1929 13dc F200 00A2 	fadd.x %fp0,%fp1
 1930 13e0 F227 7480 	fmove.d %fp1,-(%sp)
 1931 13e4 201F      	move.l (%sp)+,%d0
 1932 13e6 221F      	move.l (%sp)+,%d1
 1933 13e8 2F01      	move.l %d1,-(%sp)
 1934 13ea 2F00      	move.l %d0,-(%sp)
 1935 13ec F21F 5480 	fmove.d (%sp)+,%fp1
 1936 13f0 F22E 54A3 	fmul.d -20(%fp),%fp1
 1936      FFEC 
 1937 13f6 F227 7480 	fmove.d %fp1,-(%sp)
 1938 13fa 201F      	move.l (%sp)+,%d0
 1939 13fc 221F      	move.l (%sp)+,%d1
68K GAS   			page 38


 1940 13fe 2F07      	move.l %d7,-(%sp)
 1941 1400 2F06      	move.l %d6,-(%sp)
 1942 1402 F21F 5400 	fmove.d (%sp)+,%fp0
 1943 1406 2F01      	move.l %d1,-(%sp)
 1944 1408 2F00      	move.l %d0,-(%sp)
 1945 140a F21F 5480 	fmove.d (%sp)+,%fp1
 1946 140e F200 0422 	fadd.x %fp1,%fp0
 1947 1412 F227 7400 	fmove.d %fp0,-(%sp)
 1948 1416 201F      	move.l (%sp)+,%d0
 1949 1418 221F      	move.l (%sp)+,%d1
 1950 141a 2F01      	move.l %d1,-(%sp)
 1951 141c 2F00      	move.l %d0,-(%sp)
 1952 141e F21F 5400 	fmove.d (%sp)+,%fp0
 1953 1422 F22E 5423 	fmul.d -20(%fp),%fp0
 1953      FFEC 
 1954 1428 F227 7400 	fmove.d %fp0,-(%sp)
 1955 142c 201F      	move.l (%sp)+,%d0
 1956 142e 221F      	move.l (%sp)+,%d1
 1957 1430 2F05      	move.l %d5,-(%sp)
 1958 1432 2F04      	move.l %d4,-(%sp)
 1959 1434 F21F 5480 	fmove.d (%sp)+,%fp1
 1960 1438 2F01      	move.l %d1,-(%sp)
 1961 143a 2F00      	move.l %d0,-(%sp)
 1962 143c F21F 5400 	fmove.d (%sp)+,%fp0
 1963 1440 F200 00A2 	fadd.x %fp0,%fp1
 1964 1444 F227 7480 	fmove.d %fp1,-(%sp)
 1965 1448 201F      	move.l (%sp)+,%d0
 1966 144a 221F      	move.l (%sp)+,%d1
 1967 144c 2F01      	move.l %d1,-(%sp)
 1968 144e 2F00      	move.l %d0,-(%sp)
 1969 1450 F21F 5480 	fmove.d (%sp)+,%fp1
 1970 1454 F22E 54A3 	fmul.d -20(%fp),%fp1
 1970      FFEC 
 1971 145a F227 7480 	fmove.d %fp1,-(%sp)
 1972 145e 201F      	move.l (%sp)+,%d0
 1973 1460 221F      	move.l (%sp)+,%d1
 1974 1462 2F03      	move.l %d3,-(%sp)
 1975 1464 2F02      	move.l %d2,-(%sp)
 1976 1466 F21F 5400 	fmove.d (%sp)+,%fp0
 1977 146a 2F01      	move.l %d1,-(%sp)
 1978 146c 2F00      	move.l %d0,-(%sp)
 1979 146e F21F 5480 	fmove.d (%sp)+,%fp1
 1980 1472 F200 0422 	fadd.x %fp1,%fp0
 1981 1476 F227 7400 	fmove.d %fp0,-(%sp)
 1982 147a 201F      	move.l (%sp)+,%d0
 1983 147c 221F      	move.l (%sp)+,%d1
 1984 147e 2F01      	move.l %d1,-(%sp)
 1985 1480 2F00      	move.l %d0,-(%sp)
 1986 1482 F21F 5400 	fmove.d (%sp)+,%fp0
 1987 1486 F22E 5423 	fmul.d -20(%fp),%fp0
 1987      FFEC 
 1988 148c F227 7400 	fmove.d %fp0,-(%sp)
 1989 1490 201F      	move.l (%sp)+,%d0
 1990 1492 221F      	move.l (%sp)+,%d1
 1991 1494 2F09      	move.l %a1,-(%sp)
 1992 1496 2F08      	move.l %a0,-(%sp)
 1993 1498 F21F 5480 	fmove.d (%sp)+,%fp1
68K GAS   			page 39


 1994 149c 2F01      	move.l %d1,-(%sp)
 1995 149e 2F00      	move.l %d0,-(%sp)
 1996 14a0 F21F 5400 	fmove.d (%sp)+,%fp0
 1997 14a4 F200 00A2 	fadd.x %fp0,%fp1
 1998 14a8 F22E 7480 	fmove.d %fp1,-28(%fp)
 1998      FFE4 
 1999 14ae 202E FFF8 	move.l -8(%fp),%d0
 2000 14b2 2440      	move.l %d0,%a2
 2001 14b4 2052      	move.l (%a2),%a0
 2002 14b6 226A 0004 	move.l 4(%a2),%a1
 2003 14ba 202E FFF8 	move.l -8(%fp),%d0
 2004 14be 5080      	addq.l #8,%d0
 2005 14c0 2840      	move.l %d0,%a4
 2006 14c2 2414      	move.l (%a4),%d2
 2007 14c4 262C 0004 	move.l 4(%a4),%d3
 2008 14c8 7010      	moveq #16,%d0
 2009 14ca D0AE FFF8 	add.l -8(%fp),%d0
 2010 14ce 2440      	move.l %d0,%a2
 2011 14d0 2812      	move.l (%a2),%d4
 2012 14d2 2A2A 0004 	move.l 4(%a2),%d5
 2013 14d6 7018      	moveq #24,%d0
 2014 14d8 D0AE FFF8 	add.l -8(%fp),%d0
 2015 14dc 2840      	move.l %d0,%a4
 2016 14de 2C14      	move.l (%a4),%d6
 2017 14e0 2E2C 0004 	move.l 4(%a4),%d7
 2018 14e4 7020      	moveq #32,%d0
 2019 14e6 D0AE FFF8 	add.l -8(%fp),%d0
 2020 14ea 2840      	move.l %d0,%a4
 2021 14ec 2454      	move.l (%a4),%a2
 2022 14ee 266C 0004 	move.l 4(%a4),%a3
 2023 14f2 7028      	moveq #40,%d0
 2024 14f4 D0AE FFF8 	add.l -8(%fp),%d0
 2025 14f8 2840      	move.l %d0,%a4
 2026 14fa 2014      	move.l (%a4),%d0
 2027 14fc 222C 0004 	move.l 4(%a4),%d1
 2028 1500 2F01      	move.l %d1,-(%sp)
 2029 1502 2F00      	move.l %d0,-(%sp)
 2030 1504 F21F 5400 	fmove.d (%sp)+,%fp0
 2031 1508 F22E 5423 	fmul.d -20(%fp),%fp0
 2031      FFEC 
 2032 150e F227 7400 	fmove.d %fp0,-(%sp)
 2033 1512 201F      	move.l (%sp)+,%d0
 2034 1514 221F      	move.l (%sp)+,%d1
 2035 1516 2F0B      	move.l %a3,-(%sp)
 2036 1518 2F0A      	move.l %a2,-(%sp)
 2037 151a F21F 5480 	fmove.d (%sp)+,%fp1
 2038 151e 2F01      	move.l %d1,-(%sp)
 2039 1520 2F00      	move.l %d0,-(%sp)
 2040 1522 F21F 5400 	fmove.d (%sp)+,%fp0
 2041 1526 F200 00A2 	fadd.x %fp0,%fp1
 2042 152a F227 7480 	fmove.d %fp1,-(%sp)
 2043 152e 201F      	move.l (%sp)+,%d0
 2044 1530 221F      	move.l (%sp)+,%d1
 2045 1532 2F01      	move.l %d1,-(%sp)
 2046 1534 2F00      	move.l %d0,-(%sp)
 2047 1536 F21F 5480 	fmove.d (%sp)+,%fp1
 2048 153a F22E 54A3 	fmul.d -20(%fp),%fp1
68K GAS   			page 40


 2048      FFEC 
 2049 1540 F227 7480 	fmove.d %fp1,-(%sp)
 2050 1544 201F      	move.l (%sp)+,%d0
 2051 1546 221F      	move.l (%sp)+,%d1
 2052 1548 2F07      	move.l %d7,-(%sp)
 2053 154a 2F06      	move.l %d6,-(%sp)
 2054 154c F21F 5400 	fmove.d (%sp)+,%fp0
 2055 1550 2F01      	move.l %d1,-(%sp)
 2056 1552 2F00      	move.l %d0,-(%sp)
 2057 1554 F21F 5480 	fmove.d (%sp)+,%fp1
 2058 1558 F200 0422 	fadd.x %fp1,%fp0
 2059 155c F227 7400 	fmove.d %fp0,-(%sp)
 2060 1560 201F      	move.l (%sp)+,%d0
 2061 1562 221F      	move.l (%sp)+,%d1
 2062 1564 2F01      	move.l %d1,-(%sp)
 2063 1566 2F00      	move.l %d0,-(%sp)
 2064 1568 F21F 5400 	fmove.d (%sp)+,%fp0
 2065 156c F22E 5423 	fmul.d -20(%fp),%fp0
 2065      FFEC 
 2066 1572 F227 7400 	fmove.d %fp0,-(%sp)
 2067 1576 201F      	move.l (%sp)+,%d0
 2068 1578 221F      	move.l (%sp)+,%d1
 2069 157a 2F05      	move.l %d5,-(%sp)
 2070 157c 2F04      	move.l %d4,-(%sp)
 2071 157e F21F 5480 	fmove.d (%sp)+,%fp1
 2072 1582 2F01      	move.l %d1,-(%sp)
 2073 1584 2F00      	move.l %d0,-(%sp)
 2074 1586 F21F 5400 	fmove.d (%sp)+,%fp0
 2075 158a F200 00A2 	fadd.x %fp0,%fp1
 2076 158e F227 7480 	fmove.d %fp1,-(%sp)
 2077 1592 201F      	move.l (%sp)+,%d0
 2078 1594 221F      	move.l (%sp)+,%d1
 2079 1596 2F01      	move.l %d1,-(%sp)
 2080 1598 2F00      	move.l %d0,-(%sp)
 2081 159a F21F 5480 	fmove.d (%sp)+,%fp1
 2082 159e F22E 54A3 	fmul.d -20(%fp),%fp1
 2082      FFEC 
 2083 15a4 F227 7480 	fmove.d %fp1,-(%sp)
 2084 15a8 201F      	move.l (%sp)+,%d0
 2085 15aa 221F      	move.l (%sp)+,%d1
 2086 15ac 2F03      	move.l %d3,-(%sp)
 2087 15ae 2F02      	move.l %d2,-(%sp)
 2088 15b0 F21F 5400 	fmove.d (%sp)+,%fp0
 2089 15b4 2F01      	move.l %d1,-(%sp)
 2090 15b6 2F00      	move.l %d0,-(%sp)
 2091 15b8 F21F 5480 	fmove.d (%sp)+,%fp1
 2092 15bc F200 0422 	fadd.x %fp1,%fp0
 2093 15c0 F227 7400 	fmove.d %fp0,-(%sp)
 2094 15c4 201F      	move.l (%sp)+,%d0
 2095 15c6 221F      	move.l (%sp)+,%d1
 2096 15c8 2F01      	move.l %d1,-(%sp)
 2097 15ca 2F00      	move.l %d0,-(%sp)
 2098 15cc F21F 5400 	fmove.d (%sp)+,%fp0
 2099 15d0 F22E 5423 	fmul.d -20(%fp),%fp0
 2099      FFEC 
 2100 15d6 F227 7400 	fmove.d %fp0,-(%sp)
 2101 15da 201F      	move.l (%sp)+,%d0
68K GAS   			page 41


 2102 15dc 221F      	move.l (%sp)+,%d1
 2103 15de 2F09      	move.l %a1,-(%sp)
 2104 15e0 2F08      	move.l %a0,-(%sp)
 2105 15e2 F21F 5480 	fmove.d (%sp)+,%fp1
 2106 15e6 2F01      	move.l %d1,-(%sp)
 2107 15e8 2F00      	move.l %d0,-(%sp)
 2108 15ea F21F 5400 	fmove.d (%sp)+,%fp0
 2109 15ee F200 00A2 	fadd.x %fp0,%fp1
 2110 15f2 F227 7480 	fmove.d %fp1,-(%sp)
 2111 15f6 201F      	move.l (%sp)+,%d0
 2112 15f8 221F      	move.l (%sp)+,%d1
 2113 15fa 2F01      	move.l %d1,-(%sp)
 2114 15fc 2F00      	move.l %d0,-(%sp)
 2115 15fe F21F 5480 	fmove.d (%sp)+,%fp1
 2116 1602 F22E 54A3 	fmul.d -20(%fp),%fp1
 2116      FFEC 
 2117 1608 F227 7480 	fmove.d %fp1,-(%sp)
 2118 160c 201F      	move.l (%sp)+,%d0
 2119 160e 221F      	move.l (%sp)+,%d1
 2120 1610 2079 0000 	move.l one,%a0
 2120      0000 
 2121 1616 2279 0000 	move.l one+4,%a1
 2121      0000 
 2122 161c 2F01      	move.l %d1,-(%sp)
 2123 161e 2F00      	move.l %d0,-(%sp)
 2124 1620 F21F 5400 	fmove.d (%sp)+,%fp0
 2125 1624 2F09      	move.l %a1,-(%sp)
 2126 1626 2F08      	move.l %a0,-(%sp)
 2127 1628 F21F 5480 	fmove.d (%sp)+,%fp1
 2128 162c F200 0422 	fadd.x %fp1,%fp0
 2129 1630 F22E 7400 	fmove.d %fp0,-36(%fp)
 2129      FFDC 
 2130 1636 F22E 5400 	fmove.d -28(%fp),%fp0
 2130      FFE4 
 2131 163c F22E 5420 	fdiv.d -36(%fp),%fp0
 2131      FFDC 
 2132 1642 F227 7400 	fmove.d %fp0,-(%sp)
 2133 1646 201F      	move.l (%sp)+,%d0
 2134 1648 221F      	move.l (%sp)+,%d1
 2135 164a 2F01      	move.l %d1,-(%sp)
 2136 164c 2F00      	move.l %d0,-(%sp)
 2137 164e F21F 5480 	fmove.d (%sp)+,%fp1
 2138 1652 F23C 54A8 	fsub.d #0x3fc0000000000000,%fp1
 2138      3FC0 0000 
 2138      0000 0000 
 2139 165e F227 7480 	fmove.d %fp1,-(%sp)
 2140 1662 201F      	move.l (%sp)+,%d0
 2141 1664 221F      	move.l (%sp)+,%d1
 2142 1666 206E 0008 	move.l 8(%fp),%a0
 2143 166a 226E 000C 	move.l 12(%fp),%a1
 2144 166e 2F01      	move.l %d1,-(%sp)
 2145 1670 2F00      	move.l %d0,-(%sp)
 2146 1672 F21F 5400 	fmove.d (%sp)+,%fp0
 2147 1676 2F09      	move.l %a1,-(%sp)
 2148 1678 2F08      	move.l %a0,-(%sp)
 2149 167a F21F 5480 	fmove.d (%sp)+,%fp1
 2150 167e F200 0420 	fdiv.x %fp1,%fp0
68K GAS   			page 42


 2151 1682 F227 7400 	fmove.d %fp0,-(%sp)
 2152 1686 201F      	move.l (%sp)+,%d0
 2153 1688 221F      	move.l (%sp)+,%d1
 2154 168a 2F01      	move.l %d1,-(%sp)
 2155 168c 2F00      	move.l %d0,-(%sp)
 2156 168e F21F 5400 	fmove.d (%sp)+,%fp0
 2157 1692 4CDF 1CFC 	movem.l (%sp)+,#7420
 2158 1696 4E5E      	unlk %fp
 2159 1698 4E75      	rts
 2161               	.ident"GCC: (GNU) 4.5.1"
 2162               	.section.note.GNU-stack,"",@progbits
68K GAS   			page 43


DEFINED SYMBOLS
                            *ABS*:00000000 e_j0.c
    {standard input}:7      .rodata:00000000 huge
    {standard input}:13     .rodata:00000008 one
    {standard input}:19     .rodata:00000010 invsqrtpi
    {standard input}:25     .rodata:00000018 tpi
    {standard input}:31     .rodata:00000020 R02
    {standard input}:37     .rodata:00000028 R03
    {standard input}:43     .rodata:00000030 R04
    {standard input}:49     .rodata:00000038 R05
    {standard input}:55     .rodata:00000040 S01
    {standard input}:61     .rodata:00000048 S02
    {standard input}:67     .rodata:00000050 S03
    {standard input}:73     .rodata:00000058 S04
    {standard input}:77     .bss:00000000 zero
    {standard input}:82     .text:00000000 __ieee754_j0
    {standard input}:1396   .text:00000ed2 pzero
    {standard input}:1830   .text:0000128a qzero
    {standard input}:634    .rodata:00000060 u00
    {standard input}:640    .rodata:00000068 u01
    {standard input}:646    .rodata:00000070 u02
    {standard input}:652    .rodata:00000078 u03
    {standard input}:658    .rodata:00000080 u04
    {standard input}:664    .rodata:00000088 u05
    {standard input}:670    .rodata:00000090 u06
    {standard input}:676    .rodata:00000098 v01
    {standard input}:682    .rodata:000000a0 v02
    {standard input}:688    .rodata:000000a8 v03
    {standard input}:694    .rodata:000000b0 v04
    {standard input}:701    .text:0000075a __ieee754_y0
    {standard input}:1276   .rodata:000000b8 pR8
    {standard input}:1292   .rodata:000000e8 pS8
    {standard input}:1306   .rodata:00000110 pR5
    {standard input}:1322   .rodata:00000140 pS5
    {standard input}:1336   .rodata:00000168 pR3
    {standard input}:1352   .rodata:00000198 pS3
    {standard input}:1366   .rodata:000001c0 pR2
    {standard input}:1382   .rodata:000001f0 pS2
    {standard input}:1702   .rodata:00000218 qR8
    {standard input}:1718   .rodata:00000248 qS8
    {standard input}:1734   .rodata:00000278 qR5
    {standard input}:1750   .rodata:000002a8 qS5
    {standard input}:1766   .rodata:000002d8 qR3
    {standard input}:1782   .rodata:00000308 qS3
    {standard input}:1798   .rodata:00000338 qR2
    {standard input}:1814   .rodata:00000368 qS2

UNDEFINED SYMBOLS
fabs
sin
cos
sqrt
__ieee754_log
