68K GAS   			page 1


   1               	
   2               	.file"e_j1.c"
   3               	.section.rodata
   4               	.align2
   7               	huge:
   8 0000 7E37 E43C 	.long2117592124
   9 0004 8800 759C 	.long-2013235812
  10               	.align2
  13               	one:
  14 0008 3FF0 0000 	.long1072693248
  15 000c 0000 0000 	.long0
  16               	.align2
  19               	invsqrtpi:
  20 0010 3FE2 0DD7 	.long1071779287
  21 0014 5042 9B6D 	.long1346542445
  22               	.align2
  25               	tpi:
  26 0018 3FE4 5F30 	.long1071931184
  27 001c 6DC9 C883 	.long1841940611
  28               	.align2
  31               	r00:
  32 0020 BFB0 0000 	.long-1078984704
  33 0024 0000 0000 	.long0
  34               	.align2
  37               	r01:
  38 0028 3F57 0D9F 	.long1062669727
  39 002c 9847 2C61 	.long-1740166047
  40               	.align2
  43               	r02:
  44 0030 BEF0 C5C6 	.long-1091516986
  45 0034 BA16 9668 	.long-1172924824
  46               	.align2
  49               	r03:
  50 0038 3E6A AAFA 	.long1047177978
  51 003c 46CA 0BD9 	.long1187646425
  52               	.align2
  55               	s01:
  56 0040 3F93 9D0B 	.long1066638603
  57 0044 1263 7E53 	.long308510291
  58               	.align2
  61               	s02:
  62 0048 3F28 5F56 	.long1059610454
  63 004c B9CD F664 	.long-1177684380
  64               	.align2
  67               	s03:
  68 0050 3EB3 BFF8 	.long1051967480
  69 0054 333F 8498 	.long859800728
  70               	.align2
  73               	s04:
  74 0058 3E35 AC88 	.long1043704968
  75 005c C97D FF2C 	.long-914489556
  76               	.align2
  79               	s05:
  80 0060 3DAB 2ACF 	.long1034627791
  81 0064 CFB9 7ED8 	.long-809926952
  82               	.localzero
  83               	.commzero,8,2
68K GAS   			page 2


  84               	.text
  85               	.align2
  86               	.globl__ieee754_j1
  88               	__ieee754_j1:
  89 0000 4E56 FFB0 	link.w %fp,#-80
  90 0004 2F03      	move.l %d3,-(%sp)
  91 0006 2F02      	move.l %d2,-(%sp)
  92 0008 200E      	move.l %fp,%d0
  93 000a 5080      	addq.l #8,%d0
  94 000c 2040      	move.l %d0,%a0
  95 000e 2D50 FFE4 	move.l (%a0),-28(%fp)
  96 0012 202E FFE4 	move.l -28(%fp),%d0
  97 0016 0880 001F 	bclr #31,%d0
  98 001a 2D40 FFE0 	move.l %d0,-32(%fp)
  99 001e 0CAE 7FEF 	cmp.l #2146435071,-32(%fp)
  99      FFFF FFE0 
 100 0026 6F34      	jle .L2
 101 0028 2039 0000 	move.l one,%d0
 101      0000 
 102 002e 2239 0000 	move.l one+4,%d1
 102      0000 
 103 0034 206E 0008 	move.l 8(%fp),%a0
 104 0038 226E 000C 	move.l 12(%fp),%a1
 105 003c 2F01      	move.l %d1,-(%sp)
 106 003e 2F00      	move.l %d0,-(%sp)
 107 0040 F21F 5400 	fmove.d (%sp)+,%fp0
 108 0044 2F09      	move.l %a1,-(%sp)
 109 0046 2F08      	move.l %a0,-(%sp)
 110 0048 F21F 5480 	fmove.d (%sp)+,%fp1
 111 004c F200 0420 	fdiv.x %fp1,%fp0
 112 0050 F227 7400 	fmove.d %fp0,-(%sp)
 113 0054 201F      	move.l (%sp)+,%d0
 114 0056 221F      	move.l (%sp)+,%d1
 115 0058 6000 05B8 	jra .L3
 116               	.L2:
 117 005c 202E 0008 	move.l 8(%fp),%d0
 118 0060 222E 000C 	move.l 12(%fp),%d1
 119 0064 2F01      	move.l %d1,-(%sp)
 120 0066 2F00      	move.l %d0,-(%sp)
 121 0068 4EB9 0000 	jsr fabs
 121      0000 
 122 006e 508F      	addq.l #8,%sp
 123 0070 F22E 7400 	fmove.d %fp0,-40(%fp)
 123      FFD8 
 124 0076 0CAE 3FFF 	cmp.l #1073741823,-32(%fp)
 124      FFFF FFE0 
 125 007e 6F00 0250 	jle .L4
 126 0082 2F2E FFDC 	move.l -36(%fp),-(%sp)
 127 0086 2F2E FFD8 	move.l -40(%fp),-(%sp)
 128 008a 4EB9 0000 	jsr sin
 128      0000 
 129 0090 508F      	addq.l #8,%sp
 130 0092 F22E 7400 	fmove.d %fp0,-48(%fp)
 130      FFD0 
 131 0098 2F2E FFDC 	move.l -36(%fp),-(%sp)
 132 009c 2F2E FFD8 	move.l -40(%fp),-(%sp)
 133 00a0 4EB9 0000 	jsr cos
68K GAS   			page 3


 133      0000 
 134 00a6 508F      	addq.l #8,%sp
 135 00a8 F22E 7400 	fmove.d %fp0,-56(%fp)
 135      FFC8 
 136 00ae 202E FFD0 	move.l -48(%fp),%d0
 137 00b2 222E FFD4 	move.l -44(%fp),%d1
 138 00b6 0840 001F 	bchg #31,%d0
 139 00ba 2F01      	move.l %d1,-(%sp)
 140 00bc 2F00      	move.l %d0,-(%sp)
 141 00be F21F 5400 	fmove.d (%sp)+,%fp0
 142 00c2 F22E 5428 	fsub.d -56(%fp),%fp0
 142      FFC8 
 143 00c8 F22E 7400 	fmove.d %fp0,-16(%fp)
 143      FFF0 
 144 00ce F22E 5480 	fmove.d -48(%fp),%fp1
 144      FFD0 
 145 00d4 F22E 54A8 	fsub.d -56(%fp),%fp1
 145      FFC8 
 146 00da F22E 7480 	fmove.d %fp1,-24(%fp)
 146      FFE8 
 147 00e0 0CAE 7FDF 	cmp.l #2145386495,-32(%fp)
 147      FFFF FFE0 
 148 00e8 6E00 009C 	jgt .L5
 149 00ec 202E FFD8 	move.l -40(%fp),%d0
 150 00f0 222E FFDC 	move.l -36(%fp),%d1
 151 00f4 2F01      	move.l %d1,-(%sp)
 152 00f6 2F00      	move.l %d0,-(%sp)
 153 00f8 F21F 5400 	fmove.d (%sp)+,%fp0
 154 00fc 2F01      	move.l %d1,-(%sp)
 155 00fe 2F00      	move.l %d0,-(%sp)
 156 0100 F21F 5480 	fmove.d (%sp)+,%fp1
 157 0104 F200 0422 	fadd.x %fp1,%fp0
 158 0108 F227 7400 	fmove.d %fp0,-(%sp)
 159 010c 201F      	move.l (%sp)+,%d0
 160 010e 221F      	move.l (%sp)+,%d1
 161 0110 2F01      	move.l %d1,-(%sp)
 162 0112 2F00      	move.l %d0,-(%sp)
 163 0114 4EB9 0000 	jsr cos
 163      0000 
 164 011a 508F      	addq.l #8,%sp
 165 011c F22E 7400 	fmove.d %fp0,-8(%fp)
 165      FFF8 
 166 0122 F22E 5400 	fmove.d -48(%fp),%fp0
 166      FFD0 
 167 0128 F22E 5423 	fmul.d -56(%fp),%fp0
 167      FFC8 
 168 012e F227 7400 	fmove.d %fp0,-(%sp)
 169 0132 201F      	move.l (%sp)+,%d0
 170 0134 221F      	move.l (%sp)+,%d1
 171 0136 2079 0000 	move.l zero,%a0
 171      0000 
 172 013c 2279 0000 	move.l zero+4,%a1
 172      0000 
 173 0142 2F01      	move.l %d1,-(%sp)
 174 0144 2F00      	move.l %d0,-(%sp)
 175 0146 F21F 5480 	fmove.d (%sp)+,%fp1
 176 014a 2F09      	move.l %a1,-(%sp)
68K GAS   			page 4


 177 014c 2F08      	move.l %a0,-(%sp)
 178 014e F21F 5400 	fmove.d (%sp)+,%fp0
 179 0152 F200 00B8 	fcmp.x %fp0,%fp1
 180 0156 F240 0012 	fsgt %d0
 181 015a 4400      	neg.b %d0
 182 015c 4A00      	tst.b %d0
 183 015e 6714      	jeq .L6
 184 0160 F22E 5480 	fmove.d -8(%fp),%fp1
 184      FFF8 
 185 0166 F22E 54A0 	fdiv.d -16(%fp),%fp1
 185      FFF0 
 186 016c F22E 7480 	fmove.d %fp1,-24(%fp)
 186      FFE8 
 187 0172 6012      	jra .L5
 188               	.L6:
 189 0174 F22E 5400 	fmove.d -8(%fp),%fp0
 189      FFF8 
 190 017a F22E 5420 	fdiv.d -24(%fp),%fp0
 190      FFE8 
 191 0180 F22E 7400 	fmove.d %fp0,-16(%fp)
 191      FFF0 
 192               	.L5:
 193 0186 0CAE 4800 	cmp.l #1207959552,-32(%fp)
 193      0000 FFE0 
 194 018e 6F58      	jle .L7
 195 0190 2039 0000 	move.l invsqrtpi,%d0
 195      0000 
 196 0196 2239 0000 	move.l invsqrtpi+4,%d1
 196      0000 
 197 019c 2F01      	move.l %d1,-(%sp)
 198 019e 2F00      	move.l %d0,-(%sp)
 199 01a0 F21F 5480 	fmove.d (%sp)+,%fp1
 200 01a4 F22E 54A3 	fmul.d -24(%fp),%fp1
 200      FFE8 
 201 01aa F227 7480 	fmove.d %fp1,-(%sp)
 202 01ae 241F      	move.l (%sp)+,%d2
 203 01b0 261F      	move.l (%sp)+,%d3
 204 01b2 2F2E FFDC 	move.l -36(%fp),-(%sp)
 205 01b6 2F2E FFD8 	move.l -40(%fp),-(%sp)
 206 01ba 4EB9 0000 	jsr sqrt
 206      0000 
 207 01c0 508F      	addq.l #8,%sp
 208 01c2 F227 7400 	fmove.d %fp0,-(%sp)
 209 01c6 201F      	move.l (%sp)+,%d0
 210 01c8 221F      	move.l (%sp)+,%d1
 211 01ca 2F03      	move.l %d3,-(%sp)
 212 01cc 2F02      	move.l %d2,-(%sp)
 213 01ce F21F 5400 	fmove.d (%sp)+,%fp0
 214 01d2 2F01      	move.l %d1,-(%sp)
 215 01d4 2F00      	move.l %d0,-(%sp)
 216 01d6 F21F 5480 	fmove.d (%sp)+,%fp1
 217 01da F200 0420 	fdiv.x %fp1,%fp0
 218 01de F22E 7400 	fmove.d %fp0,-8(%fp)
 218      FFF8 
 219 01e4 6000 00C8 	jra .L8
 220               	.L7:
 221 01e8 2F2E FFDC 	move.l -36(%fp),-(%sp)
68K GAS   			page 5


 222 01ec 2F2E FFD8 	move.l -40(%fp),-(%sp)
 223 01f0 4EBA 0BA0 	jsr pone
 224 01f4 508F      	addq.l #8,%sp
 225 01f6 F22E 7400 	fmove.d %fp0,-64(%fp)
 225      FFC0 
 226 01fc 2F2E FFDC 	move.l -36(%fp),-(%sp)
 227 0200 2F2E FFD8 	move.l -40(%fp),-(%sp)
 228 0204 4EBA 0F44 	jsr qone
 229 0208 508F      	addq.l #8,%sp
 230 020a F22E 7400 	fmove.d %fp0,-72(%fp)
 230      FFB8 
 231 0210 F22E 5400 	fmove.d -64(%fp),%fp0
 231      FFC0 
 232 0216 F22E 5423 	fmul.d -24(%fp),%fp0
 232      FFE8 
 233 021c F227 7400 	fmove.d %fp0,-(%sp)
 234 0220 201F      	move.l (%sp)+,%d0
 235 0222 221F      	move.l (%sp)+,%d1
 236 0224 F22E 5480 	fmove.d -72(%fp),%fp1
 236      FFB8 
 237 022a F22E 54A3 	fmul.d -16(%fp),%fp1
 237      FFF0 
 238 0230 F227 7480 	fmove.d %fp1,-(%sp)
 239 0234 205F      	move.l (%sp)+,%a0
 240 0236 225F      	move.l (%sp)+,%a1
 241 0238 2F01      	move.l %d1,-(%sp)
 242 023a 2F00      	move.l %d0,-(%sp)
 243 023c F21F 5400 	fmove.d (%sp)+,%fp0
 244 0240 2F09      	move.l %a1,-(%sp)
 245 0242 2F08      	move.l %a0,-(%sp)
 246 0244 F21F 5480 	fmove.d (%sp)+,%fp1
 247 0248 F200 0428 	fsub.x %fp1,%fp0
 248 024c F227 7400 	fmove.d %fp0,-(%sp)
 249 0250 201F      	move.l (%sp)+,%d0
 250 0252 221F      	move.l (%sp)+,%d1
 251 0254 2079 0000 	move.l invsqrtpi,%a0
 251      0000 
 252 025a 2279 0000 	move.l invsqrtpi+4,%a1
 252      0000 
 253 0260 2F01      	move.l %d1,-(%sp)
 254 0262 2F00      	move.l %d0,-(%sp)
 255 0264 F21F 5400 	fmove.d (%sp)+,%fp0
 256 0268 2F09      	move.l %a1,-(%sp)
 257 026a 2F08      	move.l %a0,-(%sp)
 258 026c F21F 5480 	fmove.d (%sp)+,%fp1
 259 0270 F200 0423 	fmul.x %fp1,%fp0
 260 0274 F227 7400 	fmove.d %fp0,-(%sp)
 261 0278 241F      	move.l (%sp)+,%d2
 262 027a 261F      	move.l (%sp)+,%d3
 263 027c 2F2E FFDC 	move.l -36(%fp),-(%sp)
 264 0280 2F2E FFD8 	move.l -40(%fp),-(%sp)
 265 0284 4EB9 0000 	jsr sqrt
 265      0000 
 266 028a 508F      	addq.l #8,%sp
 267 028c F227 7400 	fmove.d %fp0,-(%sp)
 268 0290 201F      	move.l (%sp)+,%d0
 269 0292 221F      	move.l (%sp)+,%d1
68K GAS   			page 6


 270 0294 2F03      	move.l %d3,-(%sp)
 271 0296 2F02      	move.l %d2,-(%sp)
 272 0298 F21F 5400 	fmove.d (%sp)+,%fp0
 273 029c 2F01      	move.l %d1,-(%sp)
 274 029e 2F00      	move.l %d0,-(%sp)
 275 02a0 F21F 5480 	fmove.d (%sp)+,%fp1
 276 02a4 F200 0420 	fdiv.x %fp1,%fp0
 277 02a8 F22E 7400 	fmove.d %fp0,-8(%fp)
 277      FFF8 
 278               	.L8:
 279 02ae 4AAE FFE4 	tst.l -28(%fp)
 280 02b2 6C10      	jge .L9
 281 02b4 202E FFF8 	move.l -8(%fp),%d0
 282 02b8 222E FFFC 	move.l -4(%fp),%d1
 283 02bc 0840 001F 	bchg #31,%d0
 284 02c0 6000 0350 	jra .L3
 285               	.L9:
 286 02c4 202E FFF8 	move.l -8(%fp),%d0
 287 02c8 222E FFFC 	move.l -4(%fp),%d1
 288 02cc 6000 0344 	jra .L3
 289               	.L4:
 290 02d0 0CAE 3E3F 	cmp.l #1044381695,-32(%fp)
 290      FFFF FFE0 
 291 02d8 6E00 0084 	jgt .L10
 292 02dc 2079 0000 	move.l huge,%a0
 292      0000 
 293 02e2 2279 0000 	move.l huge+4,%a1
 293      0000 
 294 02e8 202E 0008 	move.l 8(%fp),%d0
 295 02ec 222E 000C 	move.l 12(%fp),%d1
 296 02f0 2F09      	move.l %a1,-(%sp)
 297 02f2 2F08      	move.l %a0,-(%sp)
 298 02f4 F21F 5400 	fmove.d (%sp)+,%fp0
 299 02f8 2F01      	move.l %d1,-(%sp)
 300 02fa 2F00      	move.l %d0,-(%sp)
 301 02fc F21F 5480 	fmove.d (%sp)+,%fp1
 302 0300 F200 0422 	fadd.x %fp1,%fp0
 303 0304 F227 7400 	fmove.d %fp0,-(%sp)
 304 0308 201F      	move.l (%sp)+,%d0
 305 030a 221F      	move.l (%sp)+,%d1
 306 030c 2079 0000 	move.l one,%a0
 306      0000 
 307 0312 2279 0000 	move.l one+4,%a1
 307      0000 
 308 0318 2F01      	move.l %d1,-(%sp)
 309 031a 2F00      	move.l %d0,-(%sp)
 310 031c F21F 5400 	fmove.d (%sp)+,%fp0
 311 0320 2F09      	move.l %a1,-(%sp)
 312 0322 2F08      	move.l %a0,-(%sp)
 313 0324 F21F 5480 	fmove.d (%sp)+,%fp1
 314 0328 F200 0438 	fcmp.x %fp1,%fp0
 315 032c F240 0012 	fsgt %d0
 316 0330 4400      	neg.b %d0
 317 0332 4A00      	tst.b %d0
 318 0334 6728      	jeq .L10
 319 0336 202E 0008 	move.l 8(%fp),%d0
 320 033a 222E 000C 	move.l 12(%fp),%d1
68K GAS   			page 7


 321 033e 2F01      	move.l %d1,-(%sp)
 322 0340 2F00      	move.l %d0,-(%sp)
 323 0342 F21F 5400 	fmove.d (%sp)+,%fp0
 324 0346 F23C 5423 	fmul.d #0x3fe0000000000000,%fp0
 324      3FE0 0000 
 324      0000 0000 
 325 0352 F227 7400 	fmove.d %fp0,-(%sp)
 326 0356 201F      	move.l (%sp)+,%d0
 327 0358 221F      	move.l (%sp)+,%d1
 328 035a 6000 02B6 	jra .L3
 329               	.L10:
 330 035e 206E 0008 	move.l 8(%fp),%a0
 331 0362 226E 000C 	move.l 12(%fp),%a1
 332 0366 202E 0008 	move.l 8(%fp),%d0
 333 036a 222E 000C 	move.l 12(%fp),%d1
 334 036e 2F09      	move.l %a1,-(%sp)
 335 0370 2F08      	move.l %a0,-(%sp)
 336 0372 F21F 5480 	fmove.d (%sp)+,%fp1
 337 0376 2F01      	move.l %d1,-(%sp)
 338 0378 2F00      	move.l %d0,-(%sp)
 339 037a F21F 5400 	fmove.d (%sp)+,%fp0
 340 037e F200 00A3 	fmul.x %fp0,%fp1
 341 0382 F22E 7480 	fmove.d %fp1,-8(%fp)
 341      FFF8 
 342 0388 2039 0000 	move.l r03,%d0
 342      0000 
 343 038e 2239 0000 	move.l r03+4,%d1
 343      0000 
 344 0394 2F01      	move.l %d1,-(%sp)
 345 0396 2F00      	move.l %d0,-(%sp)
 346 0398 F21F 5480 	fmove.d (%sp)+,%fp1
 347 039c F22E 54A3 	fmul.d -8(%fp),%fp1
 347      FFF8 
 348 03a2 F227 7480 	fmove.d %fp1,-(%sp)
 349 03a6 201F      	move.l (%sp)+,%d0
 350 03a8 221F      	move.l (%sp)+,%d1
 351 03aa 2079 0000 	move.l r02,%a0
 351      0000 
 352 03b0 2279 0000 	move.l r02+4,%a1
 352      0000 
 353 03b6 2F01      	move.l %d1,-(%sp)
 354 03b8 2F00      	move.l %d0,-(%sp)
 355 03ba F21F 5400 	fmove.d (%sp)+,%fp0
 356 03be 2F09      	move.l %a1,-(%sp)
 357 03c0 2F08      	move.l %a0,-(%sp)
 358 03c2 F21F 5480 	fmove.d (%sp)+,%fp1
 359 03c6 F200 0422 	fadd.x %fp1,%fp0
 360 03ca F227 7400 	fmove.d %fp0,-(%sp)
 361 03ce 201F      	move.l (%sp)+,%d0
 362 03d0 221F      	move.l (%sp)+,%d1
 363 03d2 2F01      	move.l %d1,-(%sp)
 364 03d4 2F00      	move.l %d0,-(%sp)
 365 03d6 F21F 5400 	fmove.d (%sp)+,%fp0
 366 03da F22E 5423 	fmul.d -8(%fp),%fp0
 366      FFF8 
 367 03e0 F227 7400 	fmove.d %fp0,-(%sp)
 368 03e4 201F      	move.l (%sp)+,%d0
68K GAS   			page 8


 369 03e6 221F      	move.l (%sp)+,%d1
 370 03e8 2079 0000 	move.l r01,%a0
 370      0000 
 371 03ee 2279 0000 	move.l r01+4,%a1
 371      0000 
 372 03f4 2F01      	move.l %d1,-(%sp)
 373 03f6 2F00      	move.l %d0,-(%sp)
 374 03f8 F21F 5480 	fmove.d (%sp)+,%fp1
 375 03fc 2F09      	move.l %a1,-(%sp)
 376 03fe 2F08      	move.l %a0,-(%sp)
 377 0400 F21F 5400 	fmove.d (%sp)+,%fp0
 378 0404 F200 00A2 	fadd.x %fp0,%fp1
 379 0408 F227 7480 	fmove.d %fp1,-(%sp)
 380 040c 201F      	move.l (%sp)+,%d0
 381 040e 221F      	move.l (%sp)+,%d1
 382 0410 2F01      	move.l %d1,-(%sp)
 383 0412 2F00      	move.l %d0,-(%sp)
 384 0414 F21F 5480 	fmove.d (%sp)+,%fp1
 385 0418 F22E 54A3 	fmul.d -8(%fp),%fp1
 385      FFF8 
 386 041e F227 7480 	fmove.d %fp1,-(%sp)
 387 0422 201F      	move.l (%sp)+,%d0
 388 0424 221F      	move.l (%sp)+,%d1
 389 0426 2079 0000 	move.l r00,%a0
 389      0000 
 390 042c 2279 0000 	move.l r00+4,%a1
 390      0000 
 391 0432 2F01      	move.l %d1,-(%sp)
 392 0434 2F00      	move.l %d0,-(%sp)
 393 0436 F21F 5400 	fmove.d (%sp)+,%fp0
 394 043a 2F09      	move.l %a1,-(%sp)
 395 043c 2F08      	move.l %a0,-(%sp)
 396 043e F21F 5480 	fmove.d (%sp)+,%fp1
 397 0442 F200 0422 	fadd.x %fp1,%fp0
 398 0446 F227 7400 	fmove.d %fp0,-(%sp)
 399 044a 201F      	move.l (%sp)+,%d0
 400 044c 221F      	move.l (%sp)+,%d1
 401 044e 2F01      	move.l %d1,-(%sp)
 402 0450 2F00      	move.l %d0,-(%sp)
 403 0452 F21F 5400 	fmove.d (%sp)+,%fp0
 404 0456 F22E 5423 	fmul.d -8(%fp),%fp0
 404      FFF8 
 405 045c F22E 7400 	fmove.d %fp0,-80(%fp)
 405      FFB0 
 406 0462 2039 0000 	move.l s05,%d0
 406      0000 
 407 0468 2239 0000 	move.l s05+4,%d1
 407      0000 
 408 046e 2F01      	move.l %d1,-(%sp)
 409 0470 2F00      	move.l %d0,-(%sp)
 410 0472 F21F 5480 	fmove.d (%sp)+,%fp1
 411 0476 F22E 54A3 	fmul.d -8(%fp),%fp1
 411      FFF8 
 412 047c F227 7480 	fmove.d %fp1,-(%sp)
 413 0480 201F      	move.l (%sp)+,%d0
 414 0482 221F      	move.l (%sp)+,%d1
 415 0484 2079 0000 	move.l s04,%a0
68K GAS   			page 9


 415      0000 
 416 048a 2279 0000 	move.l s04+4,%a1
 416      0000 
 417 0490 2F01      	move.l %d1,-(%sp)
 418 0492 2F00      	move.l %d0,-(%sp)
 419 0494 F21F 5400 	fmove.d (%sp)+,%fp0
 420 0498 2F09      	move.l %a1,-(%sp)
 421 049a 2F08      	move.l %a0,-(%sp)
 422 049c F21F 5480 	fmove.d (%sp)+,%fp1
 423 04a0 F200 0422 	fadd.x %fp1,%fp0
 424 04a4 F227 7400 	fmove.d %fp0,-(%sp)
 425 04a8 201F      	move.l (%sp)+,%d0
 426 04aa 221F      	move.l (%sp)+,%d1
 427 04ac 2F01      	move.l %d1,-(%sp)
 428 04ae 2F00      	move.l %d0,-(%sp)
 429 04b0 F21F 5400 	fmove.d (%sp)+,%fp0
 430 04b4 F22E 5423 	fmul.d -8(%fp),%fp0
 430      FFF8 
 431 04ba F227 7400 	fmove.d %fp0,-(%sp)
 432 04be 201F      	move.l (%sp)+,%d0
 433 04c0 221F      	move.l (%sp)+,%d1
 434 04c2 2079 0000 	move.l s03,%a0
 434      0000 
 435 04c8 2279 0000 	move.l s03+4,%a1
 435      0000 
 436 04ce 2F01      	move.l %d1,-(%sp)
 437 04d0 2F00      	move.l %d0,-(%sp)
 438 04d2 F21F 5480 	fmove.d (%sp)+,%fp1
 439 04d6 2F09      	move.l %a1,-(%sp)
 440 04d8 2F08      	move.l %a0,-(%sp)
 441 04da F21F 5400 	fmove.d (%sp)+,%fp0
 442 04de F200 00A2 	fadd.x %fp0,%fp1
 443 04e2 F227 7480 	fmove.d %fp1,-(%sp)
 444 04e6 201F      	move.l (%sp)+,%d0
 445 04e8 221F      	move.l (%sp)+,%d1
 446 04ea 2F01      	move.l %d1,-(%sp)
 447 04ec 2F00      	move.l %d0,-(%sp)
 448 04ee F21F 5480 	fmove.d (%sp)+,%fp1
 449 04f2 F22E 54A3 	fmul.d -8(%fp),%fp1
 449      FFF8 
 450 04f8 F227 7480 	fmove.d %fp1,-(%sp)
 451 04fc 201F      	move.l (%sp)+,%d0
 452 04fe 221F      	move.l (%sp)+,%d1
 453 0500 2079 0000 	move.l s02,%a0
 453      0000 
 454 0506 2279 0000 	move.l s02+4,%a1
 454      0000 
 455 050c 2F01      	move.l %d1,-(%sp)
 456 050e 2F00      	move.l %d0,-(%sp)
 457 0510 F21F 5400 	fmove.d (%sp)+,%fp0
 458 0514 2F09      	move.l %a1,-(%sp)
 459 0516 2F08      	move.l %a0,-(%sp)
 460 0518 F21F 5480 	fmove.d (%sp)+,%fp1
 461 051c F200 0422 	fadd.x %fp1,%fp0
 462 0520 F227 7400 	fmove.d %fp0,-(%sp)
 463 0524 201F      	move.l (%sp)+,%d0
 464 0526 221F      	move.l (%sp)+,%d1
68K GAS   			page 10


 465 0528 2F01      	move.l %d1,-(%sp)
 466 052a 2F00      	move.l %d0,-(%sp)
 467 052c F21F 5400 	fmove.d (%sp)+,%fp0
 468 0530 F22E 5423 	fmul.d -8(%fp),%fp0
 468      FFF8 
 469 0536 F227 7400 	fmove.d %fp0,-(%sp)
 470 053a 201F      	move.l (%sp)+,%d0
 471 053c 221F      	move.l (%sp)+,%d1
 472 053e 2079 0000 	move.l s01,%a0
 472      0000 
 473 0544 2279 0000 	move.l s01+4,%a1
 473      0000 
 474 054a 2F01      	move.l %d1,-(%sp)
 475 054c 2F00      	move.l %d0,-(%sp)
 476 054e F21F 5480 	fmove.d (%sp)+,%fp1
 477 0552 2F09      	move.l %a1,-(%sp)
 478 0554 2F08      	move.l %a0,-(%sp)
 479 0556 F21F 5400 	fmove.d (%sp)+,%fp0
 480 055a F200 00A2 	fadd.x %fp0,%fp1
 481 055e F227 7480 	fmove.d %fp1,-(%sp)
 482 0562 201F      	move.l (%sp)+,%d0
 483 0564 221F      	move.l (%sp)+,%d1
 484 0566 2F01      	move.l %d1,-(%sp)
 485 0568 2F00      	move.l %d0,-(%sp)
 486 056a F21F 5480 	fmove.d (%sp)+,%fp1
 487 056e F22E 54A3 	fmul.d -8(%fp),%fp1
 487      FFF8 
 488 0574 F227 7480 	fmove.d %fp1,-(%sp)
 489 0578 201F      	move.l (%sp)+,%d0
 490 057a 221F      	move.l (%sp)+,%d1
 491 057c 2079 0000 	move.l one,%a0
 491      0000 
 492 0582 2279 0000 	move.l one+4,%a1
 492      0000 
 493 0588 2F01      	move.l %d1,-(%sp)
 494 058a 2F00      	move.l %d0,-(%sp)
 495 058c F21F 5400 	fmove.d (%sp)+,%fp0
 496 0590 2F09      	move.l %a1,-(%sp)
 497 0592 2F08      	move.l %a0,-(%sp)
 498 0594 F21F 5480 	fmove.d (%sp)+,%fp1
 499 0598 F200 0422 	fadd.x %fp1,%fp0
 500 059c F22E 7400 	fmove.d %fp0,-48(%fp)
 500      FFD0 
 501 05a2 202E 0008 	move.l 8(%fp),%d0
 502 05a6 222E 000C 	move.l 12(%fp),%d1
 503 05aa 2F01      	move.l %d1,-(%sp)
 504 05ac 2F00      	move.l %d0,-(%sp)
 505 05ae F21F 5400 	fmove.d (%sp)+,%fp0
 506 05b2 F22E 5423 	fmul.d -80(%fp),%fp0
 506      FFB0 
 507 05b8 F22E 7400 	fmove.d %fp0,-80(%fp)
 507      FFB0 
 508 05be 202E 0008 	move.l 8(%fp),%d0
 509 05c2 222E 000C 	move.l 12(%fp),%d1
 510 05c6 2F01      	move.l %d1,-(%sp)
 511 05c8 2F00      	move.l %d0,-(%sp)
 512 05ca F21F 5480 	fmove.d (%sp)+,%fp1
68K GAS   			page 11


 513 05ce F23C 54A3 	fmul.d #0x3fe0000000000000,%fp1
 513      3FE0 0000 
 513      0000 0000 
 514 05da F227 7480 	fmove.d %fp1,-(%sp)
 515 05de 205F      	move.l (%sp)+,%a0
 516 05e0 225F      	move.l (%sp)+,%a1
 517 05e2 F22E 5400 	fmove.d -80(%fp),%fp0
 517      FFB0 
 518 05e8 F22E 5420 	fdiv.d -48(%fp),%fp0
 518      FFD0 
 519 05ee F227 7400 	fmove.d %fp0,-(%sp)
 520 05f2 201F      	move.l (%sp)+,%d0
 521 05f4 221F      	move.l (%sp)+,%d1
 522 05f6 2F09      	move.l %a1,-(%sp)
 523 05f8 2F08      	move.l %a0,-(%sp)
 524 05fa F21F 5480 	fmove.d (%sp)+,%fp1
 525 05fe 2F01      	move.l %d1,-(%sp)
 526 0600 2F00      	move.l %d0,-(%sp)
 527 0602 F21F 5400 	fmove.d (%sp)+,%fp0
 528 0606 F200 00A2 	fadd.x %fp0,%fp1
 529 060a F227 7480 	fmove.d %fp1,-(%sp)
 530 060e 201F      	move.l (%sp)+,%d0
 531 0610 221F      	move.l (%sp)+,%d1
 532               	.L3:
 533 0612 2F01      	move.l %d1,-(%sp)
 534 0614 2F00      	move.l %d0,-(%sp)
 535 0616 F21F 5400 	fmove.d (%sp)+,%fp0
 536 061a 242E FFA8 	move.l -88(%fp),%d2
 537 061e 262E FFAC 	move.l -84(%fp),%d3
 538 0622 4E5E      	unlk %fp
 539 0624 4E75      	rts
 541               	.section.rodata
 542               	.align2
 545               	U0:
 546 0068 BFC9 1866 	.long-1077340058
 547 006c 143C BC8A 	.long339524746
 548 0070 3FA9 D3C7 	.long1068094407
 549 0074 7629 2CD1 	.long1982409937
 550 0078 BF5F 55E5 	.long-1084271131
 551 007c 4844 F50F 	.long1212478735
 552 0080 3EF8 AB03 	.long1056484099
 553 0084 8FA6 B88E 	.long-1884899186
 554 0088 BE78 AC00 	.long-1099387904
 555 008c 5691 05B8 	.long1452344760
 556               	.align2
 559               	V0:
 560 0090 3F94 650D 	.long1066689805
 561 0094 3F4D A9F0 	.long1062054384
 562 0098 3F2A 8C89 	.long1059753097
 563 009c 6C25 7764 	.long1814394724
 564 00a0 3EB6 C05A 	.long1052164186
 565 00a4 894E 8CA6 	.long-1991340890
 566 00a8 3E3A BF1D 	.long1044037405
 567 00ac 5BA6 9A86 	.long1537645190
 568 00b0 3DB2 5039 	.long1035096121
 569 00b4 DACA 772A 	.long-624265430
 570               	.text
68K GAS   			page 12


 571               	.align2
 572               	.globl__ieee754_y1
 574               	__ieee754_y1:
 575 0626 4E56 FFBC 	link.w %fp,#-68
 576 062a 48E7 3F00 	movem.l #16128,-(%sp)
 577 062e 200E      	move.l %fp,%d0
 578 0630 5080      	addq.l #8,%d0
 579 0632 2040      	move.l %d0,%a0
 580 0634 2D50 FFE4 	move.l (%a0),-28(%fp)
 581 0638 202E FFE4 	move.l -28(%fp),%d0
 582 063c 0880 001F 	bclr #31,%d0
 583 0640 2D40 FFE0 	move.l %d0,-32(%fp)
 584 0644 200E      	move.l %fp,%d0
 585 0646 5080      	addq.l #8,%d0
 586 0648 5880      	addq.l #4,%d0
 587 064a 2040      	move.l %d0,%a0
 588 064c 2D50 FFDC 	move.l (%a0),-36(%fp)
 589 0650 0CAE 7FEF 	cmp.l #2146435071,-32(%fp)
 589      FFFF FFE0 
 590 0658 6F7C      	jle .L12
 591 065a 2079 0000 	move.l one,%a0
 591      0000 
 592 0660 2279 0000 	move.l one+4,%a1
 592      0000 
 593 0666 242E 0008 	move.l 8(%fp),%d2
 594 066a 262E 000C 	move.l 12(%fp),%d3
 595 066e 202E 0008 	move.l 8(%fp),%d0
 596 0672 222E 000C 	move.l 12(%fp),%d1
 597 0676 2F03      	move.l %d3,-(%sp)
 598 0678 2F02      	move.l %d2,-(%sp)
 599 067a F21F 5400 	fmove.d (%sp)+,%fp0
 600 067e 2F01      	move.l %d1,-(%sp)
 601 0680 2F00      	move.l %d0,-(%sp)
 602 0682 F21F 5480 	fmove.d (%sp)+,%fp1
 603 0686 F200 0423 	fmul.x %fp1,%fp0
 604 068a F227 7400 	fmove.d %fp0,-(%sp)
 605 068e 201F      	move.l (%sp)+,%d0
 606 0690 221F      	move.l (%sp)+,%d1
 607 0692 242E 0008 	move.l 8(%fp),%d2
 608 0696 262E 000C 	move.l 12(%fp),%d3
 609 069a 2F01      	move.l %d1,-(%sp)
 610 069c 2F00      	move.l %d0,-(%sp)
 611 069e F21F 5400 	fmove.d (%sp)+,%fp0
 612 06a2 2F03      	move.l %d3,-(%sp)
 613 06a4 2F02      	move.l %d2,-(%sp)
 614 06a6 F21F 5480 	fmove.d (%sp)+,%fp1
 615 06aa F200 0422 	fadd.x %fp1,%fp0
 616 06ae F227 7400 	fmove.d %fp0,-(%sp)
 617 06b2 201F      	move.l (%sp)+,%d0
 618 06b4 221F      	move.l (%sp)+,%d1
 619 06b6 2F09      	move.l %a1,-(%sp)
 620 06b8 2F08      	move.l %a0,-(%sp)
 621 06ba F21F 5400 	fmove.d (%sp)+,%fp0
 622 06be 2F01      	move.l %d1,-(%sp)
 623 06c0 2F00      	move.l %d0,-(%sp)
 624 06c2 F21F 5480 	fmove.d (%sp)+,%fp1
 625 06c6 F200 0420 	fdiv.x %fp1,%fp0
68K GAS   			page 13


 626 06ca F227 7400 	fmove.d %fp0,-(%sp)
 627 06ce 201F      	move.l (%sp)+,%d0
 628 06d0 221F      	move.l (%sp)+,%d1
 629 06d2 6000 06AC 	jra .L13
 630               	.L12:
 631 06d6 202E FFE0 	move.l -32(%fp),%d0
 632 06da 80AE FFDC 	or.l -36(%fp),%d0
 633 06de 4A80      	tst.l %d0
 634 06e0 663C      	jne .L14
 635 06e2 2039 0000 	move.l one,%d0
 635      0000 
 636 06e8 2239 0000 	move.l one+4,%d1
 636      0000 
 637 06ee 0840 001F 	bchg #31,%d0
 638 06f2 2079 0000 	move.l zero,%a0
 638      0000 
 639 06f8 2279 0000 	move.l zero+4,%a1
 639      0000 
 640 06fe 2F01      	move.l %d1,-(%sp)
 641 0700 2F00      	move.l %d0,-(%sp)
 642 0702 F21F 5400 	fmove.d (%sp)+,%fp0
 643 0706 2F09      	move.l %a1,-(%sp)
 644 0708 2F08      	move.l %a0,-(%sp)
 645 070a F21F 5480 	fmove.d (%sp)+,%fp1
 646 070e F200 0420 	fdiv.x %fp1,%fp0
 647 0712 F227 7400 	fmove.d %fp0,-(%sp)
 648 0716 201F      	move.l (%sp)+,%d0
 649 0718 221F      	move.l (%sp)+,%d1
 650 071a 6000 0664 	jra .L13
 651               	.L14:
 652 071e 4AAE FFE4 	tst.l -28(%fp)
 653 0722 6C38      	jge .L15
 654 0724 2039 0000 	move.l zero,%d0
 654      0000 
 655 072a 2239 0000 	move.l zero+4,%d1
 655      0000 
 656 0730 2079 0000 	move.l zero,%a0
 656      0000 
 657 0736 2279 0000 	move.l zero+4,%a1
 657      0000 
 658 073c 2F01      	move.l %d1,-(%sp)
 659 073e 2F00      	move.l %d0,-(%sp)
 660 0740 F21F 5400 	fmove.d (%sp)+,%fp0
 661 0744 2F09      	move.l %a1,-(%sp)
 662 0746 2F08      	move.l %a0,-(%sp)
 663 0748 F21F 5480 	fmove.d (%sp)+,%fp1
 664 074c F200 0420 	fdiv.x %fp1,%fp0
 665 0750 F227 7400 	fmove.d %fp0,-(%sp)
 666 0754 201F      	move.l (%sp)+,%d0
 667 0756 221F      	move.l (%sp)+,%d1
 668 0758 6000 0626 	jra .L13
 669               	.L15:
 670 075c 0CAE 3FFF 	cmp.l #1073741823,-32(%fp)
 670      FFFF FFE0 
 671 0764 6F00 0252 	jle .L16
 672 0768 202E 0008 	move.l 8(%fp),%d0
 673 076c 222E 000C 	move.l 12(%fp),%d1
68K GAS   			page 14


 674 0770 2F01      	move.l %d1,-(%sp)
 675 0772 2F00      	move.l %d0,-(%sp)
 676 0774 4EB9 0000 	jsr sin
 676      0000 
 677 077a 508F      	addq.l #8,%sp
 678 077c F22E 7400 	fmove.d %fp0,-44(%fp)
 678      FFD4 
 679 0782 202E 0008 	move.l 8(%fp),%d0
 680 0786 222E 000C 	move.l 12(%fp),%d1
 681 078a 2F01      	move.l %d1,-(%sp)
 682 078c 2F00      	move.l %d0,-(%sp)
 683 078e 4EB9 0000 	jsr cos
 683      0000 
 684 0794 508F      	addq.l #8,%sp
 685 0796 F22E 7400 	fmove.d %fp0,-52(%fp)
 685      FFCC 
 686 079c 202E FFD4 	move.l -44(%fp),%d0
 687 07a0 222E FFD8 	move.l -40(%fp),%d1
 688 07a4 0840 001F 	bchg #31,%d0
 689 07a8 2F01      	move.l %d1,-(%sp)
 690 07aa 2F00      	move.l %d0,-(%sp)
 691 07ac F21F 5400 	fmove.d (%sp)+,%fp0
 692 07b0 F22E 5428 	fsub.d -52(%fp),%fp0
 692      FFCC 
 693 07b6 F22E 7400 	fmove.d %fp0,-16(%fp)
 693      FFF0 
 694 07bc F22E 5480 	fmove.d -44(%fp),%fp1
 694      FFD4 
 695 07c2 F22E 54A8 	fsub.d -52(%fp),%fp1
 695      FFCC 
 696 07c8 F22E 7480 	fmove.d %fp1,-24(%fp)
 696      FFE8 
 697 07ce 0CAE 7FDF 	cmp.l #2145386495,-32(%fp)
 697      FFFF FFE0 
 698 07d6 6E00 009C 	jgt .L17
 699 07da 202E 0008 	move.l 8(%fp),%d0
 700 07de 222E 000C 	move.l 12(%fp),%d1
 701 07e2 2F01      	move.l %d1,-(%sp)
 702 07e4 2F00      	move.l %d0,-(%sp)
 703 07e6 F21F 5400 	fmove.d (%sp)+,%fp0
 704 07ea 2F01      	move.l %d1,-(%sp)
 705 07ec 2F00      	move.l %d0,-(%sp)
 706 07ee F21F 5480 	fmove.d (%sp)+,%fp1
 707 07f2 F200 0422 	fadd.x %fp1,%fp0
 708 07f6 F227 7400 	fmove.d %fp0,-(%sp)
 709 07fa 201F      	move.l (%sp)+,%d0
 710 07fc 221F      	move.l (%sp)+,%d1
 711 07fe 2F01      	move.l %d1,-(%sp)
 712 0800 2F00      	move.l %d0,-(%sp)
 713 0802 4EB9 0000 	jsr cos
 713      0000 
 714 0808 508F      	addq.l #8,%sp
 715 080a F22E 7400 	fmove.d %fp0,-8(%fp)
 715      FFF8 
 716 0810 F22E 5400 	fmove.d -44(%fp),%fp0
 716      FFD4 
 717 0816 F22E 5423 	fmul.d -52(%fp),%fp0
68K GAS   			page 15


 717      FFCC 
 718 081c F227 7400 	fmove.d %fp0,-(%sp)
 719 0820 201F      	move.l (%sp)+,%d0
 720 0822 221F      	move.l (%sp)+,%d1
 721 0824 2079 0000 	move.l zero,%a0
 721      0000 
 722 082a 2279 0000 	move.l zero+4,%a1
 722      0000 
 723 0830 2F01      	move.l %d1,-(%sp)
 724 0832 2F00      	move.l %d0,-(%sp)
 725 0834 F21F 5480 	fmove.d (%sp)+,%fp1
 726 0838 2F09      	move.l %a1,-(%sp)
 727 083a 2F08      	move.l %a0,-(%sp)
 728 083c F21F 5400 	fmove.d (%sp)+,%fp0
 729 0840 F200 00B8 	fcmp.x %fp0,%fp1
 730 0844 F240 0012 	fsgt %d0
 731 0848 4400      	neg.b %d0
 732 084a 4A00      	tst.b %d0
 733 084c 6714      	jeq .L18
 734 084e F22E 5480 	fmove.d -8(%fp),%fp1
 734      FFF8 
 735 0854 F22E 54A0 	fdiv.d -16(%fp),%fp1
 735      FFF0 
 736 085a F22E 7480 	fmove.d %fp1,-24(%fp)
 736      FFE8 
 737 0860 6012      	jra .L17
 738               	.L18:
 739 0862 F22E 5400 	fmove.d -8(%fp),%fp0
 739      FFF8 
 740 0868 F22E 5420 	fdiv.d -24(%fp),%fp0
 740      FFE8 
 741 086e F22E 7400 	fmove.d %fp0,-16(%fp)
 741      FFF0 
 742               	.L17:
 743 0874 0CAE 4800 	cmp.l #1207959552,-32(%fp)
 743      0000 FFE0 
 744 087c 6F5C      	jle .L19
 745 087e 2039 0000 	move.l invsqrtpi,%d0
 745      0000 
 746 0884 2239 0000 	move.l invsqrtpi+4,%d1
 746      0000 
 747 088a 2F01      	move.l %d1,-(%sp)
 748 088c 2F00      	move.l %d0,-(%sp)
 749 088e F21F 5480 	fmove.d (%sp)+,%fp1
 750 0892 F22E 54A3 	fmul.d -16(%fp),%fp1
 750      FFF0 
 751 0898 F227 7480 	fmove.d %fp1,-(%sp)
 752 089c 241F      	move.l (%sp)+,%d2
 753 089e 261F      	move.l (%sp)+,%d3
 754 08a0 202E 0008 	move.l 8(%fp),%d0
 755 08a4 222E 000C 	move.l 12(%fp),%d1
 756 08a8 2F01      	move.l %d1,-(%sp)
 757 08aa 2F00      	move.l %d0,-(%sp)
 758 08ac 4EB9 0000 	jsr sqrt
 758      0000 
 759 08b2 508F      	addq.l #8,%sp
 760 08b4 F227 7400 	fmove.d %fp0,-(%sp)
68K GAS   			page 16


 761 08b8 201F      	move.l (%sp)+,%d0
 762 08ba 221F      	move.l (%sp)+,%d1
 763 08bc 2F03      	move.l %d3,-(%sp)
 764 08be 2F02      	move.l %d2,-(%sp)
 765 08c0 F21F 5400 	fmove.d (%sp)+,%fp0
 766 08c4 2F01      	move.l %d1,-(%sp)
 767 08c6 2F00      	move.l %d0,-(%sp)
 768 08c8 F21F 5480 	fmove.d (%sp)+,%fp1
 769 08cc F200 0420 	fdiv.x %fp1,%fp0
 770 08d0 F22E 7400 	fmove.d %fp0,-8(%fp)
 770      FFF8 
 771 08d6 6000 00D4 	jra .L20
 772               	.L19:
 773 08da 202E 0008 	move.l 8(%fp),%d0
 774 08de 222E 000C 	move.l 12(%fp),%d1
 775 08e2 2F01      	move.l %d1,-(%sp)
 776 08e4 2F00      	move.l %d0,-(%sp)
 777 08e6 4EBA 04AA 	jsr pone
 778 08ea 508F      	addq.l #8,%sp
 779 08ec F22E 7400 	fmove.d %fp0,-60(%fp)
 779      FFC4 
 780 08f2 202E 0008 	move.l 8(%fp),%d0
 781 08f6 222E 000C 	move.l 12(%fp),%d1
 782 08fa 2F01      	move.l %d1,-(%sp)
 783 08fc 2F00      	move.l %d0,-(%sp)
 784 08fe 4EBA 084A 	jsr qone
 785 0902 508F      	addq.l #8,%sp
 786 0904 F22E 7400 	fmove.d %fp0,-68(%fp)
 786      FFBC 
 787 090a F22E 5400 	fmove.d -60(%fp),%fp0
 787      FFC4 
 788 0910 F22E 5423 	fmul.d -16(%fp),%fp0
 788      FFF0 
 789 0916 F227 7400 	fmove.d %fp0,-(%sp)
 790 091a 205F      	move.l (%sp)+,%a0
 791 091c 225F      	move.l (%sp)+,%a1
 792 091e F22E 5480 	fmove.d -68(%fp),%fp1
 792      FFBC 
 793 0924 F22E 54A3 	fmul.d -24(%fp),%fp1
 793      FFE8 
 794 092a F227 7480 	fmove.d %fp1,-(%sp)
 795 092e 201F      	move.l (%sp)+,%d0
 796 0930 221F      	move.l (%sp)+,%d1
 797 0932 2F09      	move.l %a1,-(%sp)
 798 0934 2F08      	move.l %a0,-(%sp)
 799 0936 F21F 5400 	fmove.d (%sp)+,%fp0
 800 093a 2F01      	move.l %d1,-(%sp)
 801 093c 2F00      	move.l %d0,-(%sp)
 802 093e F21F 5480 	fmove.d (%sp)+,%fp1
 803 0942 F200 0422 	fadd.x %fp1,%fp0
 804 0946 F227 7400 	fmove.d %fp0,-(%sp)
 805 094a 201F      	move.l (%sp)+,%d0
 806 094c 221F      	move.l (%sp)+,%d1
 807 094e 2079 0000 	move.l invsqrtpi,%a0
 807      0000 
 808 0954 2279 0000 	move.l invsqrtpi+4,%a1
 808      0000 
68K GAS   			page 17


 809 095a 2F01      	move.l %d1,-(%sp)
 810 095c 2F00      	move.l %d0,-(%sp)
 811 095e F21F 5400 	fmove.d (%sp)+,%fp0
 812 0962 2F09      	move.l %a1,-(%sp)
 813 0964 2F08      	move.l %a0,-(%sp)
 814 0966 F21F 5480 	fmove.d (%sp)+,%fp1
 815 096a F200 0423 	fmul.x %fp1,%fp0
 816 096e F227 7400 	fmove.d %fp0,-(%sp)
 817 0972 241F      	move.l (%sp)+,%d2
 818 0974 261F      	move.l (%sp)+,%d3
 819 0976 202E 0008 	move.l 8(%fp),%d0
 820 097a 222E 000C 	move.l 12(%fp),%d1
 821 097e 2F01      	move.l %d1,-(%sp)
 822 0980 2F00      	move.l %d0,-(%sp)
 823 0982 4EB9 0000 	jsr sqrt
 823      0000 
 824 0988 508F      	addq.l #8,%sp
 825 098a F227 7400 	fmove.d %fp0,-(%sp)
 826 098e 201F      	move.l (%sp)+,%d0
 827 0990 221F      	move.l (%sp)+,%d1
 828 0992 2F03      	move.l %d3,-(%sp)
 829 0994 2F02      	move.l %d2,-(%sp)
 830 0996 F21F 5400 	fmove.d (%sp)+,%fp0
 831 099a 2F01      	move.l %d1,-(%sp)
 832 099c 2F00      	move.l %d0,-(%sp)
 833 099e F21F 5480 	fmove.d (%sp)+,%fp1
 834 09a2 F200 0420 	fdiv.x %fp1,%fp0
 835 09a6 F22E 7400 	fmove.d %fp0,-8(%fp)
 835      FFF8 
 836               	.L20:
 837 09ac 202E FFF8 	move.l -8(%fp),%d0
 838 09b0 222E FFFC 	move.l -4(%fp),%d1
 839 09b4 6000 03CA 	jra .L13
 840               	.L16:
 841 09b8 0CAE 3C90 	cmp.l #1016070144,-32(%fp)
 841      0000 FFE0 
 842 09c0 6E38      	jgt .L21
 843 09c2 2039 0000 	move.l tpi,%d0
 843      0000 
 844 09c8 2239 0000 	move.l tpi+4,%d1
 844      0000 
 845 09ce 0840 001F 	bchg #31,%d0
 846 09d2 206E 0008 	move.l 8(%fp),%a0
 847 09d6 226E 000C 	move.l 12(%fp),%a1
 848 09da 2F01      	move.l %d1,-(%sp)
 849 09dc 2F00      	move.l %d0,-(%sp)
 850 09de F21F 5400 	fmove.d (%sp)+,%fp0
 851 09e2 2F09      	move.l %a1,-(%sp)
 852 09e4 2F08      	move.l %a0,-(%sp)
 853 09e6 F21F 5480 	fmove.d (%sp)+,%fp1
 854 09ea F200 0420 	fdiv.x %fp1,%fp0
 855 09ee F227 7400 	fmove.d %fp0,-(%sp)
 856 09f2 201F      	move.l (%sp)+,%d0
 857 09f4 221F      	move.l (%sp)+,%d1
 858 09f6 6000 0388 	jra .L13
 859               	.L21:
 860 09fa 206E 0008 	move.l 8(%fp),%a0
68K GAS   			page 18


 861 09fe 226E 000C 	move.l 12(%fp),%a1
 862 0a02 202E 0008 	move.l 8(%fp),%d0
 863 0a06 222E 000C 	move.l 12(%fp),%d1
 864 0a0a 2F09      	move.l %a1,-(%sp)
 865 0a0c 2F08      	move.l %a0,-(%sp)
 866 0a0e F21F 5400 	fmove.d (%sp)+,%fp0
 867 0a12 2F01      	move.l %d1,-(%sp)
 868 0a14 2F00      	move.l %d0,-(%sp)
 869 0a16 F21F 5480 	fmove.d (%sp)+,%fp1
 870 0a1a F200 0423 	fmul.x %fp1,%fp0
 871 0a1e F22E 7400 	fmove.d %fp0,-8(%fp)
 871      FFF8 
 872 0a24 2079 0000 	move.l U0,%a0
 872      0000 
 873 0a2a 2279 0000 	move.l U0+4,%a1
 873      0000 
 874 0a30 2439 0000 	move.l U0+8,%d2
 874      0000 
 875 0a36 2639 0000 	move.l U0+12,%d3
 875      0000 
 876 0a3c 2839 0000 	move.l U0+16,%d4
 876      0000 
 877 0a42 2A39 0000 	move.l U0+20,%d5
 877      0000 
 878 0a48 2C39 0000 	move.l U0+24,%d6
 878      0000 
 879 0a4e 2E39 0000 	move.l U0+28,%d7
 879      0000 
 880 0a54 2039 0000 	move.l U0+32,%d0
 880      0000 
 881 0a5a 2239 0000 	move.l U0+36,%d1
 881      0000 
 882 0a60 2F01      	move.l %d1,-(%sp)
 883 0a62 2F00      	move.l %d0,-(%sp)
 884 0a64 F21F 5400 	fmove.d (%sp)+,%fp0
 885 0a68 F22E 5423 	fmul.d -8(%fp),%fp0
 885      FFF8 
 886 0a6e F227 7400 	fmove.d %fp0,-(%sp)
 887 0a72 201F      	move.l (%sp)+,%d0
 888 0a74 221F      	move.l (%sp)+,%d1
 889 0a76 2F07      	move.l %d7,-(%sp)
 890 0a78 2F06      	move.l %d6,-(%sp)
 891 0a7a F21F 5480 	fmove.d (%sp)+,%fp1
 892 0a7e 2F01      	move.l %d1,-(%sp)
 893 0a80 2F00      	move.l %d0,-(%sp)
 894 0a82 F21F 5400 	fmove.d (%sp)+,%fp0
 895 0a86 F200 00A2 	fadd.x %fp0,%fp1
 896 0a8a F227 7480 	fmove.d %fp1,-(%sp)
 897 0a8e 201F      	move.l (%sp)+,%d0
 898 0a90 221F      	move.l (%sp)+,%d1
 899 0a92 2F01      	move.l %d1,-(%sp)
 900 0a94 2F00      	move.l %d0,-(%sp)
 901 0a96 F21F 5480 	fmove.d (%sp)+,%fp1
 902 0a9a F22E 54A3 	fmul.d -8(%fp),%fp1
 902      FFF8 
 903 0aa0 F227 7480 	fmove.d %fp1,-(%sp)
 904 0aa4 201F      	move.l (%sp)+,%d0
68K GAS   			page 19


 905 0aa6 221F      	move.l (%sp)+,%d1
 906 0aa8 2F05      	move.l %d5,-(%sp)
 907 0aaa 2F04      	move.l %d4,-(%sp)
 908 0aac F21F 5400 	fmove.d (%sp)+,%fp0
 909 0ab0 2F01      	move.l %d1,-(%sp)
 910 0ab2 2F00      	move.l %d0,-(%sp)
 911 0ab4 F21F 5480 	fmove.d (%sp)+,%fp1
 912 0ab8 F200 0422 	fadd.x %fp1,%fp0
 913 0abc F227 7400 	fmove.d %fp0,-(%sp)
 914 0ac0 201F      	move.l (%sp)+,%d0
 915 0ac2 221F      	move.l (%sp)+,%d1
 916 0ac4 2F01      	move.l %d1,-(%sp)
 917 0ac6 2F00      	move.l %d0,-(%sp)
 918 0ac8 F21F 5400 	fmove.d (%sp)+,%fp0
 919 0acc F22E 5423 	fmul.d -8(%fp),%fp0
 919      FFF8 
 920 0ad2 F227 7400 	fmove.d %fp0,-(%sp)
 921 0ad6 201F      	move.l (%sp)+,%d0
 922 0ad8 221F      	move.l (%sp)+,%d1
 923 0ada 2F03      	move.l %d3,-(%sp)
 924 0adc 2F02      	move.l %d2,-(%sp)
 925 0ade F21F 5480 	fmove.d (%sp)+,%fp1
 926 0ae2 2F01      	move.l %d1,-(%sp)
 927 0ae4 2F00      	move.l %d0,-(%sp)
 928 0ae6 F21F 5400 	fmove.d (%sp)+,%fp0
 929 0aea F200 00A2 	fadd.x %fp0,%fp1
 930 0aee F227 7480 	fmove.d %fp1,-(%sp)
 931 0af2 201F      	move.l (%sp)+,%d0
 932 0af4 221F      	move.l (%sp)+,%d1
 933 0af6 2F01      	move.l %d1,-(%sp)
 934 0af8 2F00      	move.l %d0,-(%sp)
 935 0afa F21F 5480 	fmove.d (%sp)+,%fp1
 936 0afe F22E 54A3 	fmul.d -8(%fp),%fp1
 936      FFF8 
 937 0b04 F227 7480 	fmove.d %fp1,-(%sp)
 938 0b08 201F      	move.l (%sp)+,%d0
 939 0b0a 221F      	move.l (%sp)+,%d1
 940 0b0c 2F09      	move.l %a1,-(%sp)
 941 0b0e 2F08      	move.l %a0,-(%sp)
 942 0b10 F21F 5400 	fmove.d (%sp)+,%fp0
 943 0b14 2F01      	move.l %d1,-(%sp)
 944 0b16 2F00      	move.l %d0,-(%sp)
 945 0b18 F21F 5480 	fmove.d (%sp)+,%fp1
 946 0b1c F200 0422 	fadd.x %fp1,%fp0
 947 0b20 F22E 7400 	fmove.d %fp0,-60(%fp)
 947      FFC4 
 948 0b26 2079 0000 	move.l V0,%a0
 948      0000 
 949 0b2c 2279 0000 	move.l V0+4,%a1
 949      0000 
 950 0b32 2439 0000 	move.l V0+8,%d2
 950      0000 
 951 0b38 2639 0000 	move.l V0+12,%d3
 951      0000 
 952 0b3e 2839 0000 	move.l V0+16,%d4
 952      0000 
 953 0b44 2A39 0000 	move.l V0+20,%d5
68K GAS   			page 20


 953      0000 
 954 0b4a 2C39 0000 	move.l V0+24,%d6
 954      0000 
 955 0b50 2E39 0000 	move.l V0+28,%d7
 955      0000 
 956 0b56 2039 0000 	move.l V0+32,%d0
 956      0000 
 957 0b5c 2239 0000 	move.l V0+36,%d1
 957      0000 
 958 0b62 2F01      	move.l %d1,-(%sp)
 959 0b64 2F00      	move.l %d0,-(%sp)
 960 0b66 F21F 5400 	fmove.d (%sp)+,%fp0
 961 0b6a F22E 5423 	fmul.d -8(%fp),%fp0
 961      FFF8 
 962 0b70 F227 7400 	fmove.d %fp0,-(%sp)
 963 0b74 201F      	move.l (%sp)+,%d0
 964 0b76 221F      	move.l (%sp)+,%d1
 965 0b78 2F07      	move.l %d7,-(%sp)
 966 0b7a 2F06      	move.l %d6,-(%sp)
 967 0b7c F21F 5480 	fmove.d (%sp)+,%fp1
 968 0b80 2F01      	move.l %d1,-(%sp)
 969 0b82 2F00      	move.l %d0,-(%sp)
 970 0b84 F21F 5400 	fmove.d (%sp)+,%fp0
 971 0b88 F200 00A2 	fadd.x %fp0,%fp1
 972 0b8c F227 7480 	fmove.d %fp1,-(%sp)
 973 0b90 201F      	move.l (%sp)+,%d0
 974 0b92 221F      	move.l (%sp)+,%d1
 975 0b94 2F01      	move.l %d1,-(%sp)
 976 0b96 2F00      	move.l %d0,-(%sp)
 977 0b98 F21F 5480 	fmove.d (%sp)+,%fp1
 978 0b9c F22E 54A3 	fmul.d -8(%fp),%fp1
 978      FFF8 
 979 0ba2 F227 7480 	fmove.d %fp1,-(%sp)
 980 0ba6 201F      	move.l (%sp)+,%d0
 981 0ba8 221F      	move.l (%sp)+,%d1
 982 0baa 2F05      	move.l %d5,-(%sp)
 983 0bac 2F04      	move.l %d4,-(%sp)
 984 0bae F21F 5400 	fmove.d (%sp)+,%fp0
 985 0bb2 2F01      	move.l %d1,-(%sp)
 986 0bb4 2F00      	move.l %d0,-(%sp)
 987 0bb6 F21F 5480 	fmove.d (%sp)+,%fp1
 988 0bba F200 0422 	fadd.x %fp1,%fp0
 989 0bbe F227 7400 	fmove.d %fp0,-(%sp)
 990 0bc2 201F      	move.l (%sp)+,%d0
 991 0bc4 221F      	move.l (%sp)+,%d1
 992 0bc6 2F01      	move.l %d1,-(%sp)
 993 0bc8 2F00      	move.l %d0,-(%sp)
 994 0bca F21F 5400 	fmove.d (%sp)+,%fp0
 995 0bce F22E 5423 	fmul.d -8(%fp),%fp0
 995      FFF8 
 996 0bd4 F227 7400 	fmove.d %fp0,-(%sp)
 997 0bd8 201F      	move.l (%sp)+,%d0
 998 0bda 221F      	move.l (%sp)+,%d1
 999 0bdc 2F03      	move.l %d3,-(%sp)
 1000 0bde 2F02      	move.l %d2,-(%sp)
 1001 0be0 F21F 5480 	fmove.d (%sp)+,%fp1
 1002 0be4 2F01      	move.l %d1,-(%sp)
68K GAS   			page 21


 1003 0be6 2F00      	move.l %d0,-(%sp)
 1004 0be8 F21F 5400 	fmove.d (%sp)+,%fp0
 1005 0bec F200 00A2 	fadd.x %fp0,%fp1
 1006 0bf0 F227 7480 	fmove.d %fp1,-(%sp)
 1007 0bf4 201F      	move.l (%sp)+,%d0
 1008 0bf6 221F      	move.l (%sp)+,%d1
 1009 0bf8 2F01      	move.l %d1,-(%sp)
 1010 0bfa 2F00      	move.l %d0,-(%sp)
 1011 0bfc F21F 5480 	fmove.d (%sp)+,%fp1
 1012 0c00 F22E 54A3 	fmul.d -8(%fp),%fp1
 1012      FFF8 
 1013 0c06 F227 7480 	fmove.d %fp1,-(%sp)
 1014 0c0a 201F      	move.l (%sp)+,%d0
 1015 0c0c 221F      	move.l (%sp)+,%d1
 1016 0c0e 2F09      	move.l %a1,-(%sp)
 1017 0c10 2F08      	move.l %a0,-(%sp)
 1018 0c12 F21F 5400 	fmove.d (%sp)+,%fp0
 1019 0c16 2F01      	move.l %d1,-(%sp)
 1020 0c18 2F00      	move.l %d0,-(%sp)
 1021 0c1a F21F 5480 	fmove.d (%sp)+,%fp1
 1022 0c1e F200 0422 	fadd.x %fp1,%fp0
 1023 0c22 F227 7400 	fmove.d %fp0,-(%sp)
 1024 0c26 201F      	move.l (%sp)+,%d0
 1025 0c28 221F      	move.l (%sp)+,%d1
 1026 0c2a 2F01      	move.l %d1,-(%sp)
 1027 0c2c 2F00      	move.l %d0,-(%sp)
 1028 0c2e F21F 5400 	fmove.d (%sp)+,%fp0
 1029 0c32 F22E 5423 	fmul.d -8(%fp),%fp0
 1029      FFF8 
 1030 0c38 F227 7400 	fmove.d %fp0,-(%sp)
 1031 0c3c 201F      	move.l (%sp)+,%d0
 1032 0c3e 221F      	move.l (%sp)+,%d1
 1033 0c40 2079 0000 	move.l one,%a0
 1033      0000 
 1034 0c46 2279 0000 	move.l one+4,%a1
 1034      0000 
 1035 0c4c 2F01      	move.l %d1,-(%sp)
 1036 0c4e 2F00      	move.l %d0,-(%sp)
 1037 0c50 F21F 5480 	fmove.d (%sp)+,%fp1
 1038 0c54 2F09      	move.l %a1,-(%sp)
 1039 0c56 2F08      	move.l %a0,-(%sp)
 1040 0c58 F21F 5400 	fmove.d (%sp)+,%fp0
 1041 0c5c F200 00A2 	fadd.x %fp0,%fp1
 1042 0c60 F22E 7480 	fmove.d %fp1,-68(%fp)
 1042      FFBC 
 1043 0c66 F22E 5480 	fmove.d -60(%fp),%fp1
 1043      FFC4 
 1044 0c6c F22E 54A0 	fdiv.d -68(%fp),%fp1
 1044      FFBC 
 1045 0c72 F227 7480 	fmove.d %fp1,-(%sp)
 1046 0c76 201F      	move.l (%sp)+,%d0
 1047 0c78 221F      	move.l (%sp)+,%d1
 1048 0c7a 206E 0008 	move.l 8(%fp),%a0
 1049 0c7e 226E 000C 	move.l 12(%fp),%a1
 1050 0c82 2F01      	move.l %d1,-(%sp)
 1051 0c84 2F00      	move.l %d0,-(%sp)
 1052 0c86 F21F 5400 	fmove.d (%sp)+,%fp0
68K GAS   			page 22


 1053 0c8a 2F09      	move.l %a1,-(%sp)
 1054 0c8c 2F08      	move.l %a0,-(%sp)
 1055 0c8e F21F 5480 	fmove.d (%sp)+,%fp1
 1056 0c92 F200 0423 	fmul.x %fp1,%fp0
 1057 0c96 F227 7400 	fmove.d %fp0,-(%sp)
 1058 0c9a 241F      	move.l (%sp)+,%d2
 1059 0c9c 261F      	move.l (%sp)+,%d3
 1060 0c9e 202E 0008 	move.l 8(%fp),%d0
 1061 0ca2 222E 000C 	move.l 12(%fp),%d1
 1062 0ca6 2F01      	move.l %d1,-(%sp)
 1063 0ca8 2F00      	move.l %d0,-(%sp)
 1064 0caa 4EBA F354 	jsr __ieee754_j1
 1065 0cae 508F      	addq.l #8,%sp
 1066 0cb0 F227 7400 	fmove.d %fp0,-(%sp)
 1067 0cb4 281F      	move.l (%sp)+,%d4
 1068 0cb6 2A1F      	move.l (%sp)+,%d5
 1069 0cb8 202E 0008 	move.l 8(%fp),%d0
 1070 0cbc 222E 000C 	move.l 12(%fp),%d1
 1071 0cc0 2F01      	move.l %d1,-(%sp)
 1072 0cc2 2F00      	move.l %d0,-(%sp)
 1073 0cc4 4EB9 0000 	jsr __ieee754_log
 1073      0000 
 1074 0cca 508F      	addq.l #8,%sp
 1075 0ccc F227 7400 	fmove.d %fp0,-(%sp)
 1076 0cd0 201F      	move.l (%sp)+,%d0
 1077 0cd2 221F      	move.l (%sp)+,%d1
 1078 0cd4 2F05      	move.l %d5,-(%sp)
 1079 0cd6 2F04      	move.l %d4,-(%sp)
 1080 0cd8 F21F 5400 	fmove.d (%sp)+,%fp0
 1081 0cdc 2F01      	move.l %d1,-(%sp)
 1082 0cde 2F00      	move.l %d0,-(%sp)
 1083 0ce0 F21F 5480 	fmove.d (%sp)+,%fp1
 1084 0ce4 F200 0423 	fmul.x %fp1,%fp0
 1085 0ce8 F227 7400 	fmove.d %fp0,-(%sp)
 1086 0cec 201F      	move.l (%sp)+,%d0
 1087 0cee 221F      	move.l (%sp)+,%d1
 1088 0cf0 2079 0000 	move.l one,%a0
 1088      0000 
 1089 0cf6 2279 0000 	move.l one+4,%a1
 1089      0000 
 1090 0cfc 282E 0008 	move.l 8(%fp),%d4
 1091 0d00 2A2E 000C 	move.l 12(%fp),%d5
 1092 0d04 2F09      	move.l %a1,-(%sp)
 1093 0d06 2F08      	move.l %a0,-(%sp)
 1094 0d08 F21F 5400 	fmove.d (%sp)+,%fp0
 1095 0d0c 2F05      	move.l %d5,-(%sp)
 1096 0d0e 2F04      	move.l %d4,-(%sp)
 1097 0d10 F21F 5480 	fmove.d (%sp)+,%fp1
 1098 0d14 F200 0420 	fdiv.x %fp1,%fp0
 1099 0d18 F227 7400 	fmove.d %fp0,-(%sp)
 1100 0d1c 205F      	move.l (%sp)+,%a0
 1101 0d1e 225F      	move.l (%sp)+,%a1
 1102 0d20 2F01      	move.l %d1,-(%sp)
 1103 0d22 2F00      	move.l %d0,-(%sp)
 1104 0d24 F21F 5400 	fmove.d (%sp)+,%fp0
 1105 0d28 2F09      	move.l %a1,-(%sp)
 1106 0d2a 2F08      	move.l %a0,-(%sp)
68K GAS   			page 23


 1107 0d2c F21F 5480 	fmove.d (%sp)+,%fp1
 1108 0d30 F200 0428 	fsub.x %fp1,%fp0
 1109 0d34 F227 7400 	fmove.d %fp0,-(%sp)
 1110 0d38 201F      	move.l (%sp)+,%d0
 1111 0d3a 221F      	move.l (%sp)+,%d1
 1112 0d3c 2079 0000 	move.l tpi,%a0
 1112      0000 
 1113 0d42 2279 0000 	move.l tpi+4,%a1
 1113      0000 
 1114 0d48 2F01      	move.l %d1,-(%sp)
 1115 0d4a 2F00      	move.l %d0,-(%sp)
 1116 0d4c F21F 5400 	fmove.d (%sp)+,%fp0
 1117 0d50 2F09      	move.l %a1,-(%sp)
 1118 0d52 2F08      	move.l %a0,-(%sp)
 1119 0d54 F21F 5480 	fmove.d (%sp)+,%fp1
 1120 0d58 F200 0423 	fmul.x %fp1,%fp0
 1121 0d5c F227 7400 	fmove.d %fp0,-(%sp)
 1122 0d60 201F      	move.l (%sp)+,%d0
 1123 0d62 221F      	move.l (%sp)+,%d1
 1124 0d64 2F03      	move.l %d3,-(%sp)
 1125 0d66 2F02      	move.l %d2,-(%sp)
 1126 0d68 F21F 5400 	fmove.d (%sp)+,%fp0
 1127 0d6c 2F01      	move.l %d1,-(%sp)
 1128 0d6e 2F00      	move.l %d0,-(%sp)
 1129 0d70 F21F 5480 	fmove.d (%sp)+,%fp1
 1130 0d74 F200 0422 	fadd.x %fp1,%fp0
 1131 0d78 F227 7400 	fmove.d %fp0,-(%sp)
 1132 0d7c 201F      	move.l (%sp)+,%d0
 1133 0d7e 221F      	move.l (%sp)+,%d1
 1134               	.L13:
 1135 0d80 2F01      	move.l %d1,-(%sp)
 1136 0d82 2F00      	move.l %d0,-(%sp)
 1137 0d84 F21F 5400 	fmove.d (%sp)+,%fp0
 1138 0d88 4CEE 00FC 	movem.l -92(%fp),#252
 1138      FFA4 
 1139 0d8e 4E5E      	unlk %fp
 1140 0d90 4E75      	rts
 1142               	.section.rodata
 1143               	.align2
 1146               	pr8:
 1147 00b8 0000 0000 	.long0
 1148 00bc 0000 0000 	.long0
 1149 00c0 3FBD FFFF 	.long1069416447
 1150 00c4 FFFF FCCE 	.long-818
 1151 00c8 402A 7A9D 	.long1076525725
 1152 00cc 357F 7FCE 	.long897548238
 1153 00d0 4079 C0D4 	.long1081721044
 1154 00d4 652E A590 	.long1697555856
 1155 00d8 40AE 457D 	.long1085162877
 1156 00dc A3A5 32CC 	.long-1549454644
 1157 00e0 40BE EA7A 	.long1086253690
 1158 00e4 C327 82DD 	.long-1020820771
 1159               	.align2
 1162               	ps8:
 1163 00e8 405C 8D45 	.long1079807301
 1164 00ec 8E65 6CAC 	.long-1905955668
 1165 00f0 40AC 85DC 	.long1085048284
68K GAS   			page 24


 1166 00f4 964D 274F 	.long-1773328561
 1167 00f8 40E2 0B86 	.long1088555910
 1168 00fc 97C5 BB7F 	.long-1748649089
 1169 0100 40F7 D42C 	.long1089983532
 1170 0104 B28F 17BB 	.long-1299245125
 1171 0108 40DE 1511 	.long1088296209
 1172 010c 697A 0B2D 	.long1769605933
 1173               	.align2
 1176               	pr5:
 1177 0110 3DAD 0667 	.long1034749543
 1178 0114 DAE1 CA7D 	.long-622736771
 1179 0118 3FBD FFFF 	.long1069416447
 1180 011c E2C1 0043 	.long-490667965
 1181 0120 401B 3604 	.long1075525124
 1182 0124 6E63 15E3 	.long1851987427
 1183 0128 405B 13B9 	.long1079710649
 1184 012c 4526 02ED 	.long1160119021
 1185 0130 4080 2D16 	.long1082141974
 1186 0134 D052 D649 	.long-799877559
 1187 0138 4080 85B8 	.long1082164664
 1188 013c BB7E 0CB7 	.long-1149367113
 1189               	.align2
 1192               	ps5:
 1193 0140 404D A3EA 	.long1078830058
 1194 0144 A8AF 633D 	.long-1464900803
 1195 0148 408E FB36 	.long1083112246
 1196 014c 1B06 6701 	.long453404417
 1197 0150 40B4 E944 	.long1085598020
 1198 0154 5706 B6FB 	.long1460057851
 1199 0158 40BE A4B0 	.long1086235824
 1200 015c B8A5 BB15 	.long-1197098219
 1201 0160 4097 8030 	.long1083670576
 1202 0164 036F 5E51 	.long57630289
 1203               	.align2
 1206               	pr3:
 1207 0168 3E29 FC21 	.long1042938913
 1208 016c A7AD 9EDD 	.long-1481793827
 1209 0170 3FBD FFF5 	.long1069416437
 1210 0174 5B21 D17B 	.long1528942971
 1211 0178 400F 76BC 	.long1074755260
 1212 017c E85E AD8A 	.long-396448374
 1213 0180 4041 8F48 	.long1078038344
 1214 0184 9DA6 D129 	.long-1650011863
 1215 0188 4056 C385 	.long1079427973
 1216 018c 4D2C 1837 	.long1294735415
 1217 0190 4048 478F 	.long1078478735
 1218 0194 8EA8 3EE5 	.long-1901576475
 1219               	.align2
 1222               	ps3:
 1223 0198 4041 6549 	.long1078027593
 1224 019c A134 069C 	.long-1590425956
 1225 01a0 4075 0C33 	.long1081412659
 1226 01a4 07F1 A75F 	.long133277535
 1227 01a8 4090 5B7C 	.long1083202428
 1228 01ac 5037 D523 	.long1345836323
 1229 01b0 408B D67D 	.long1082906237
 1230 01b4 A32E 31E9 	.long-1557253655
68K GAS   			page 25


 1231 01b8 4059 F26D 	.long1079636589
 1232 01bc 7C2E ED53 	.long2083450195
 1233               	.align2
 1236               	pr2:
 1237 01c0 3E7C E9D4 	.long1048373716
 1238 01c4 F655 44F4 	.long-162183948
 1239 01c8 3FBD FF42 	.long1069416258
 1240 01cc BE76 0D83 	.long-1099559549
 1241 01d0 4002 F2B7 	.long1073935031
 1242 01d4 F98F AEC0 	.long-108024128
 1243 01d8 4028 7C37 	.long1076395063
 1244 01dc 7F71 A964 	.long2138155364
 1245 01e0 4031 B1A8 	.long1076998568
 1246 01e4 177F 8EE2 	.long394235618
 1247 01e8 4014 4B49 	.long1075071817
 1248 01ec A574 C1FE 	.long-1519074818
 1249               	.align2
 1252               	ps2:
 1253 01f0 4035 6FBD 	.long1077243837
 1254 01f4 8AD5 ECDC 	.long-1965691684
 1255 01f8 405F 5293 	.long1079988883
 1256 01fc 14F9 2CD5 	.long351874261
 1257 0200 406D 08D8 	.long1080887512
 1258 0204 D5A2 DBD9 	.long-710747175
 1259 0208 405D 6B7A 	.long1079864186
 1260 020c DA18 84A9 	.long-635927383
 1261 0210 4020 BAB1 	.long1075886769
 1262 0214 F44E 5192 	.long-196193902
 1263               	.text
 1264               	.align2
 1266               	pone:
 1267 0d92 4E56 FFDC 	link.w %fp,#-36
 1268 0d96 48E7 3F38 	movem.l #16184,-(%sp)
 1269 0d9a 200E      	move.l %fp,%d0
 1270 0d9c 5080      	addq.l #8,%d0
 1271 0d9e 2040      	move.l %d0,%a0
 1272 0da0 2010      	move.l (%a0),%d0
 1273 0da2 2200      	move.l %d0,%d1
 1274 0da4 0881 001F 	bclr #31,%d1
 1275 0da8 2D41 FFF4 	move.l %d1,-12(%fp)
 1276 0dac 0CAE 401F 	cmp.l #1075838975,-12(%fp)
 1276      FFFF FFF4 
 1277 0db4 6F12      	jle .L23
 1278 0db6 2D7C 0000 	move.l #pr8,-4(%fp)
 1278      0000 FFFC 
 1279 0dbe 2D7C 0000 	move.l #ps8,-8(%fp)
 1279      0000 FFF8 
 1280 0dc6 6052      	jra .L24
 1281               	.L23:
 1282 0dc8 0CAE 4012 	cmp.l #1074933386,-12(%fp)
 1282      2E8A FFF4 
 1283 0dd0 6F12      	jle .L25
 1284 0dd2 2D7C 0000 	move.l #pr5,-4(%fp)
 1284      0000 FFFC 
 1285 0dda 2D7C 0000 	move.l #ps5,-8(%fp)
 1285      0000 FFF8 
 1286 0de2 6036      	jra .L24
68K GAS   			page 26


 1287               	.L25:
 1288 0de4 0CAE 4006 	cmp.l #1074191212,-12(%fp)
 1288      DB6C FFF4 
 1289 0dec 6F12      	jle .L26
 1290 0dee 2D7C 0000 	move.l #pr3,-4(%fp)
 1290      0000 FFFC 
 1291 0df6 2D7C 0000 	move.l #ps3,-8(%fp)
 1291      0000 FFF8 
 1292 0dfe 601A      	jra .L24
 1293               	.L26:
 1294 0e00 0CAE 3FFF 	cmp.l #1073741823,-12(%fp)
 1294      FFFF FFF4 
 1295 0e08 6F10      	jle .L24
 1296 0e0a 2D7C 0000 	move.l #pr2,-4(%fp)
 1296      0000 FFFC 
 1297 0e12 2D7C 0000 	move.l #ps2,-8(%fp)
 1297      0000 FFF8 
 1298               	.L24:
 1299 0e1a 2079 0000 	move.l one,%a0
 1299      0000 
 1300 0e20 2279 0000 	move.l one+4,%a1
 1300      0000 
 1301 0e26 242E 0008 	move.l 8(%fp),%d2
 1302 0e2a 262E 000C 	move.l 12(%fp),%d3
 1303 0e2e 202E 0008 	move.l 8(%fp),%d0
 1304 0e32 222E 000C 	move.l 12(%fp),%d1
 1305 0e36 2F03      	move.l %d3,-(%sp)
 1306 0e38 2F02      	move.l %d2,-(%sp)
 1307 0e3a F21F 5400 	fmove.d (%sp)+,%fp0
 1308 0e3e 2F01      	move.l %d1,-(%sp)
 1309 0e40 2F00      	move.l %d0,-(%sp)
 1310 0e42 F21F 5480 	fmove.d (%sp)+,%fp1
 1311 0e46 F200 0423 	fmul.x %fp1,%fp0
 1312 0e4a F227 7400 	fmove.d %fp0,-(%sp)
 1313 0e4e 201F      	move.l (%sp)+,%d0
 1314 0e50 221F      	move.l (%sp)+,%d1
 1315 0e52 2F09      	move.l %a1,-(%sp)
 1316 0e54 2F08      	move.l %a0,-(%sp)
 1317 0e56 F21F 5400 	fmove.d (%sp)+,%fp0
 1318 0e5a 2F01      	move.l %d1,-(%sp)
 1319 0e5c 2F00      	move.l %d0,-(%sp)
 1320 0e5e F21F 5480 	fmove.d (%sp)+,%fp1
 1321 0e62 F200 0420 	fdiv.x %fp1,%fp0
 1322 0e66 F22E 7400 	fmove.d %fp0,-20(%fp)
 1322      FFEC 
 1323 0e6c 202E FFFC 	move.l -4(%fp),%d0
 1324 0e70 2440      	move.l %d0,%a2
 1325 0e72 2052      	move.l (%a2),%a0
 1326 0e74 226A 0004 	move.l 4(%a2),%a1
 1327 0e78 202E FFFC 	move.l -4(%fp),%d0
 1328 0e7c 5080      	addq.l #8,%d0
 1329 0e7e 2840      	move.l %d0,%a4
 1330 0e80 2414      	move.l (%a4),%d2
 1331 0e82 262C 0004 	move.l 4(%a4),%d3
 1332 0e86 7010      	moveq #16,%d0
 1333 0e88 D0AE FFFC 	add.l -4(%fp),%d0
 1334 0e8c 2440      	move.l %d0,%a2
68K GAS   			page 27


 1335 0e8e 2812      	move.l (%a2),%d4
 1336 0e90 2A2A 0004 	move.l 4(%a2),%d5
 1337 0e94 7018      	moveq #24,%d0
 1338 0e96 D0AE FFFC 	add.l -4(%fp),%d0
 1339 0e9a 2840      	move.l %d0,%a4
 1340 0e9c 2C14      	move.l (%a4),%d6
 1341 0e9e 2E2C 0004 	move.l 4(%a4),%d7
 1342 0ea2 7020      	moveq #32,%d0
 1343 0ea4 D0AE FFFC 	add.l -4(%fp),%d0
 1344 0ea8 2840      	move.l %d0,%a4
 1345 0eaa 2454      	move.l (%a4),%a2
 1346 0eac 266C 0004 	move.l 4(%a4),%a3
 1347 0eb0 7028      	moveq #40,%d0
 1348 0eb2 D0AE FFFC 	add.l -4(%fp),%d0
 1349 0eb6 2840      	move.l %d0,%a4
 1350 0eb8 2014      	move.l (%a4),%d0
 1351 0eba 222C 0004 	move.l 4(%a4),%d1
 1352 0ebe 2F01      	move.l %d1,-(%sp)
 1353 0ec0 2F00      	move.l %d0,-(%sp)
 1354 0ec2 F21F 5400 	fmove.d (%sp)+,%fp0
 1355 0ec6 F22E 5423 	fmul.d -20(%fp),%fp0
 1355      FFEC 
 1356 0ecc F227 7400 	fmove.d %fp0,-(%sp)
 1357 0ed0 201F      	move.l (%sp)+,%d0
 1358 0ed2 221F      	move.l (%sp)+,%d1
 1359 0ed4 2F0B      	move.l %a3,-(%sp)
 1360 0ed6 2F0A      	move.l %a2,-(%sp)
 1361 0ed8 F21F 5480 	fmove.d (%sp)+,%fp1
 1362 0edc 2F01      	move.l %d1,-(%sp)
 1363 0ede 2F00      	move.l %d0,-(%sp)
 1364 0ee0 F21F 5400 	fmove.d (%sp)+,%fp0
 1365 0ee4 F200 00A2 	fadd.x %fp0,%fp1
 1366 0ee8 F227 7480 	fmove.d %fp1,-(%sp)
 1367 0eec 201F      	move.l (%sp)+,%d0
 1368 0eee 221F      	move.l (%sp)+,%d1
 1369 0ef0 2F01      	move.l %d1,-(%sp)
 1370 0ef2 2F00      	move.l %d0,-(%sp)
 1371 0ef4 F21F 5480 	fmove.d (%sp)+,%fp1
 1372 0ef8 F22E 54A3 	fmul.d -20(%fp),%fp1
 1372      FFEC 
 1373 0efe F227 7480 	fmove.d %fp1,-(%sp)
 1374 0f02 201F      	move.l (%sp)+,%d0
 1375 0f04 221F      	move.l (%sp)+,%d1
 1376 0f06 2F07      	move.l %d7,-(%sp)
 1377 0f08 2F06      	move.l %d6,-(%sp)
 1378 0f0a F21F 5400 	fmove.d (%sp)+,%fp0
 1379 0f0e 2F01      	move.l %d1,-(%sp)
 1380 0f10 2F00      	move.l %d0,-(%sp)
 1381 0f12 F21F 5480 	fmove.d (%sp)+,%fp1
 1382 0f16 F200 0422 	fadd.x %fp1,%fp0
 1383 0f1a F227 7400 	fmove.d %fp0,-(%sp)
 1384 0f1e 201F      	move.l (%sp)+,%d0
 1385 0f20 221F      	move.l (%sp)+,%d1
 1386 0f22 2F01      	move.l %d1,-(%sp)
 1387 0f24 2F00      	move.l %d0,-(%sp)
 1388 0f26 F21F 5400 	fmove.d (%sp)+,%fp0
 1389 0f2a F22E 5423 	fmul.d -20(%fp),%fp0
68K GAS   			page 28


 1389      FFEC 
 1390 0f30 F227 7400 	fmove.d %fp0,-(%sp)
 1391 0f34 201F      	move.l (%sp)+,%d0
 1392 0f36 221F      	move.l (%sp)+,%d1
 1393 0f38 2F05      	move.l %d5,-(%sp)
 1394 0f3a 2F04      	move.l %d4,-(%sp)
 1395 0f3c F21F 5480 	fmove.d (%sp)+,%fp1
 1396 0f40 2F01      	move.l %d1,-(%sp)
 1397 0f42 2F00      	move.l %d0,-(%sp)
 1398 0f44 F21F 5400 	fmove.d (%sp)+,%fp0
 1399 0f48 F200 00A2 	fadd.x %fp0,%fp1
 1400 0f4c F227 7480 	fmove.d %fp1,-(%sp)
 1401 0f50 201F      	move.l (%sp)+,%d0
 1402 0f52 221F      	move.l (%sp)+,%d1
 1403 0f54 2F01      	move.l %d1,-(%sp)
 1404 0f56 2F00      	move.l %d0,-(%sp)
 1405 0f58 F21F 5480 	fmove.d (%sp)+,%fp1
 1406 0f5c F22E 54A3 	fmul.d -20(%fp),%fp1
 1406      FFEC 
 1407 0f62 F227 7480 	fmove.d %fp1,-(%sp)
 1408 0f66 201F      	move.l (%sp)+,%d0
 1409 0f68 221F      	move.l (%sp)+,%d1
 1410 0f6a 2F03      	move.l %d3,-(%sp)
 1411 0f6c 2F02      	move.l %d2,-(%sp)
 1412 0f6e F21F 5400 	fmove.d (%sp)+,%fp0
 1413 0f72 2F01      	move.l %d1,-(%sp)
 1414 0f74 2F00      	move.l %d0,-(%sp)
 1415 0f76 F21F 5480 	fmove.d (%sp)+,%fp1
 1416 0f7a F200 0422 	fadd.x %fp1,%fp0
 1417 0f7e F227 7400 	fmove.d %fp0,-(%sp)
 1418 0f82 201F      	move.l (%sp)+,%d0
 1419 0f84 221F      	move.l (%sp)+,%d1
 1420 0f86 2F01      	move.l %d1,-(%sp)
 1421 0f88 2F00      	move.l %d0,-(%sp)
 1422 0f8a F21F 5400 	fmove.d (%sp)+,%fp0
 1423 0f8e F22E 5423 	fmul.d -20(%fp),%fp0
 1423      FFEC 
 1424 0f94 F227 7400 	fmove.d %fp0,-(%sp)
 1425 0f98 201F      	move.l (%sp)+,%d0
 1426 0f9a 221F      	move.l (%sp)+,%d1
 1427 0f9c 2F09      	move.l %a1,-(%sp)
 1428 0f9e 2F08      	move.l %a0,-(%sp)
 1429 0fa0 F21F 5480 	fmove.d (%sp)+,%fp1
 1430 0fa4 2F01      	move.l %d1,-(%sp)
 1431 0fa6 2F00      	move.l %d0,-(%sp)
 1432 0fa8 F21F 5400 	fmove.d (%sp)+,%fp0
 1433 0fac F200 00A2 	fadd.x %fp0,%fp1
 1434 0fb0 F22E 7480 	fmove.d %fp1,-28(%fp)
 1434      FFE4 
 1435 0fb6 202E FFF8 	move.l -8(%fp),%d0
 1436 0fba 2440      	move.l %d0,%a2
 1437 0fbc 2052      	move.l (%a2),%a0
 1438 0fbe 226A 0004 	move.l 4(%a2),%a1
 1439 0fc2 202E FFF8 	move.l -8(%fp),%d0
 1440 0fc6 5080      	addq.l #8,%d0
 1441 0fc8 2840      	move.l %d0,%a4
 1442 0fca 2414      	move.l (%a4),%d2
68K GAS   			page 29


 1443 0fcc 262C 0004 	move.l 4(%a4),%d3
 1444 0fd0 7010      	moveq #16,%d0
 1445 0fd2 D0AE FFF8 	add.l -8(%fp),%d0
 1446 0fd6 2440      	move.l %d0,%a2
 1447 0fd8 2812      	move.l (%a2),%d4
 1448 0fda 2A2A 0004 	move.l 4(%a2),%d5
 1449 0fde 7018      	moveq #24,%d0
 1450 0fe0 D0AE FFF8 	add.l -8(%fp),%d0
 1451 0fe4 2840      	move.l %d0,%a4
 1452 0fe6 2C14      	move.l (%a4),%d6
 1453 0fe8 2E2C 0004 	move.l 4(%a4),%d7
 1454 0fec 7020      	moveq #32,%d0
 1455 0fee D0AE FFF8 	add.l -8(%fp),%d0
 1456 0ff2 2440      	move.l %d0,%a2
 1457 0ff4 2012      	move.l (%a2),%d0
 1458 0ff6 222A 0004 	move.l 4(%a2),%d1
 1459 0ffa 2F01      	move.l %d1,-(%sp)
 1460 0ffc 2F00      	move.l %d0,-(%sp)
 1461 0ffe F21F 5400 	fmove.d (%sp)+,%fp0
 1462 1002 F22E 5423 	fmul.d -20(%fp),%fp0
 1462      FFEC 
 1463 1008 F227 7400 	fmove.d %fp0,-(%sp)
 1464 100c 201F      	move.l (%sp)+,%d0
 1465 100e 221F      	move.l (%sp)+,%d1
 1466 1010 2F07      	move.l %d7,-(%sp)
 1467 1012 2F06      	move.l %d6,-(%sp)
 1468 1014 F21F 5480 	fmove.d (%sp)+,%fp1
 1469 1018 2F01      	move.l %d1,-(%sp)
 1470 101a 2F00      	move.l %d0,-(%sp)
 1471 101c F21F 5400 	fmove.d (%sp)+,%fp0
 1472 1020 F200 00A2 	fadd.x %fp0,%fp1
 1473 1024 F227 7480 	fmove.d %fp1,-(%sp)
 1474 1028 201F      	move.l (%sp)+,%d0
 1475 102a 221F      	move.l (%sp)+,%d1
 1476 102c 2F01      	move.l %d1,-(%sp)
 1477 102e 2F00      	move.l %d0,-(%sp)
 1478 1030 F21F 5480 	fmove.d (%sp)+,%fp1
 1479 1034 F22E 54A3 	fmul.d -20(%fp),%fp1
 1479      FFEC 
 1480 103a F227 7480 	fmove.d %fp1,-(%sp)
 1481 103e 201F      	move.l (%sp)+,%d0
 1482 1040 221F      	move.l (%sp)+,%d1
 1483 1042 2F05      	move.l %d5,-(%sp)
 1484 1044 2F04      	move.l %d4,-(%sp)
 1485 1046 F21F 5400 	fmove.d (%sp)+,%fp0
 1486 104a 2F01      	move.l %d1,-(%sp)
 1487 104c 2F00      	move.l %d0,-(%sp)
 1488 104e F21F 5480 	fmove.d (%sp)+,%fp1
 1489 1052 F200 0422 	fadd.x %fp1,%fp0
 1490 1056 F227 7400 	fmove.d %fp0,-(%sp)
 1491 105a 201F      	move.l (%sp)+,%d0
 1492 105c 221F      	move.l (%sp)+,%d1
 1493 105e 2F01      	move.l %d1,-(%sp)
 1494 1060 2F00      	move.l %d0,-(%sp)
 1495 1062 F21F 5400 	fmove.d (%sp)+,%fp0
 1496 1066 F22E 5423 	fmul.d -20(%fp),%fp0
 1496      FFEC 
68K GAS   			page 30


 1497 106c F227 7400 	fmove.d %fp0,-(%sp)
 1498 1070 201F      	move.l (%sp)+,%d0
 1499 1072 221F      	move.l (%sp)+,%d1
 1500 1074 2F03      	move.l %d3,-(%sp)
 1501 1076 2F02      	move.l %d2,-(%sp)
 1502 1078 F21F 5480 	fmove.d (%sp)+,%fp1
 1503 107c 2F01      	move.l %d1,-(%sp)
 1504 107e 2F00      	move.l %d0,-(%sp)
 1505 1080 F21F 5400 	fmove.d (%sp)+,%fp0
 1506 1084 F200 00A2 	fadd.x %fp0,%fp1
 1507 1088 F227 7480 	fmove.d %fp1,-(%sp)
 1508 108c 201F      	move.l (%sp)+,%d0
 1509 108e 221F      	move.l (%sp)+,%d1
 1510 1090 2F01      	move.l %d1,-(%sp)
 1511 1092 2F00      	move.l %d0,-(%sp)
 1512 1094 F21F 5480 	fmove.d (%sp)+,%fp1
 1513 1098 F22E 54A3 	fmul.d -20(%fp),%fp1
 1513      FFEC 
 1514 109e F227 7480 	fmove.d %fp1,-(%sp)
 1515 10a2 201F      	move.l (%sp)+,%d0
 1516 10a4 221F      	move.l (%sp)+,%d1
 1517 10a6 2F09      	move.l %a1,-(%sp)
 1518 10a8 2F08      	move.l %a0,-(%sp)
 1519 10aa F21F 5400 	fmove.d (%sp)+,%fp0
 1520 10ae 2F01      	move.l %d1,-(%sp)
 1521 10b0 2F00      	move.l %d0,-(%sp)
 1522 10b2 F21F 5480 	fmove.d (%sp)+,%fp1
 1523 10b6 F200 0422 	fadd.x %fp1,%fp0
 1524 10ba F227 7400 	fmove.d %fp0,-(%sp)
 1525 10be 201F      	move.l (%sp)+,%d0
 1526 10c0 221F      	move.l (%sp)+,%d1
 1527 10c2 2F01      	move.l %d1,-(%sp)
 1528 10c4 2F00      	move.l %d0,-(%sp)
 1529 10c6 F21F 5400 	fmove.d (%sp)+,%fp0
 1530 10ca F22E 5423 	fmul.d -20(%fp),%fp0
 1530      FFEC 
 1531 10d0 F227 7400 	fmove.d %fp0,-(%sp)
 1532 10d4 201F      	move.l (%sp)+,%d0
 1533 10d6 221F      	move.l (%sp)+,%d1
 1534 10d8 2079 0000 	move.l one,%a0
 1534      0000 
 1535 10de 2279 0000 	move.l one+4,%a1
 1535      0000 
 1536 10e4 2F01      	move.l %d1,-(%sp)
 1537 10e6 2F00      	move.l %d0,-(%sp)
 1538 10e8 F21F 5480 	fmove.d (%sp)+,%fp1
 1539 10ec 2F09      	move.l %a1,-(%sp)
 1540 10ee 2F08      	move.l %a0,-(%sp)
 1541 10f0 F21F 5400 	fmove.d (%sp)+,%fp0
 1542 10f4 F200 00A2 	fadd.x %fp0,%fp1
 1543 10f8 F22E 7480 	fmove.d %fp1,-36(%fp)
 1543      FFDC 
 1544 10fe F22E 5480 	fmove.d -28(%fp),%fp1
 1544      FFE4 
 1545 1104 F22E 54A0 	fdiv.d -36(%fp),%fp1
 1545      FFDC 
 1546 110a F227 7480 	fmove.d %fp1,-(%sp)
68K GAS   			page 31


 1547 110e 201F      	move.l (%sp)+,%d0
 1548 1110 221F      	move.l (%sp)+,%d1
 1549 1112 2079 0000 	move.l one,%a0
 1549      0000 
 1550 1118 2279 0000 	move.l one+4,%a1
 1550      0000 
 1551 111e 2F01      	move.l %d1,-(%sp)
 1552 1120 2F00      	move.l %d0,-(%sp)
 1553 1122 F21F 5400 	fmove.d (%sp)+,%fp0
 1554 1126 2F09      	move.l %a1,-(%sp)
 1555 1128 2F08      	move.l %a0,-(%sp)
 1556 112a F21F 5480 	fmove.d (%sp)+,%fp1
 1557 112e F200 0422 	fadd.x %fp1,%fp0
 1558 1132 F227 7400 	fmove.d %fp0,-(%sp)
 1559 1136 201F      	move.l (%sp)+,%d0
 1560 1138 221F      	move.l (%sp)+,%d1
 1561 113a 2F01      	move.l %d1,-(%sp)
 1562 113c 2F00      	move.l %d0,-(%sp)
 1563 113e F21F 5400 	fmove.d (%sp)+,%fp0
 1564 1142 4CDF 1CFC 	movem.l (%sp)+,#7420
 1565 1146 4E5E      	unlk %fp
 1566 1148 4E75      	rts
 1568               	.section.rodata
 1569               	.align2
 1572               	qr8:
 1573 0218 0000 0000 	.long0
 1574 021c 0000 0000 	.long0
 1575 0220 BFBA 3FFF 	.long-1078312961
 1576 0224 FFFF FDF3 	.long-525
 1577 0228 C030 4591 	.long-1070578287
 1578 022c A267 79F7 	.long-1570276873
 1579 0230 C087 BCD0 	.long-1064846128
 1580 0234 53E4 B576 	.long1407497590
 1581 0238 C0C7 24E7 	.long-1060690713
 1582 023c 40F8 7415 	.long1090024469
 1583 0240 C0E7 A6D0 	.long-1058560304
 1584 0244 65D0 9C6A 	.long1708170346
 1585               	.align2
 1588               	qs8:
 1589 0248 4064 2CA6 	.long1080306854
 1590 024c DE5B CDE5 	.long-564408859
 1591 0250 40BE 9162 	.long1086230882
 1592 0254 D0D8 8419 	.long-791116775
 1593 0258 4100 579A 	.long1090541466
 1594 025c B0B7 5E98 	.long-1330159976
 1595 0260 4125 F653 	.long1093006931
 1596 0264 7286 9C19 	.long1921424409
 1597 0268 4124 57D2 	.long1092900818
 1598 026c 7719 AD5C 	.long1998171484
 1599 0270 C111 F969 	.long-1055786647
 1600 0274 0EA5 AA18 	.long245738008
 1601               	.align2
 1604               	qr5:
 1605 0278 BDB6 FA43 	.long-1112081853
 1606 027c 1AA1 A098 	.long446800024
 1607 0280 BFBA 3FFF 	.long-1078312961
 1608 0284 CB59 7FEF 	.long-883326993
68K GAS   			page 32


 1609 0288 C020 1CE6 	.long-1071637274
 1610 028c CA03 AD4B 	.long-905728693
 1611 0290 C066 F56D 	.long-1066994323
 1612 0294 6CA7 B9B0 	.long1822931376
 1613 0298 C095 74C6 	.long-1063947066
 1614 029c 6931 734F 	.long1764848463
 1615 02a0 C0A4 68E3 	.long-1062967069
 1616 02a4 88FD A79D 	.long-1996642403
 1617               	.align2
 1620               	qs5:
 1621 02a8 4054 51B2 	.long1079267762
 1622 02ac FF5A 11B2 	.long-10874446
 1623 02b0 409F 1F31 	.long1084170033
 1624 02b4 E77B F839 	.long-411305927
 1625 02b8 40D1 0F1F 	.long1087442719
 1626 02bc 0D64 CE29 	.long224710185
 1627 02c0 40E8 576D 	.long1088968557
 1628 02c4 AABA D197 	.long-1430597225
 1629 02c8 40DB 4B04 	.long1088113412
 1630 02cc CF7C 364B 	.long-813943221
 1631 02d0 C0B2 6F2E 	.long-1062047954
 1632 02d4 FCFF A004 	.long-50356220
 1633               	.align2
 1636               	qr3:
 1637 02d8 BE35 CFA9 	.long-1103769687
 1638 02dc D38F C84F 	.long-745551793
 1639 02e0 BFBA 3FEB 	.long-1078312981
 1640 02e4 51AE ED54 	.long1370418516
 1641 02e8 C012 70C2 	.long-1072533310
 1642 02ec 3302 D9FF 	.long855824895
 1643 02f0 C04C EC71 	.long-1068700559
 1644 02f4 C25D 16DA 	.long-1034086694
 1645 02f8 C06C 87D3 	.long-1066629165
 1646 02fc 4718 D55F 	.long1192809823
 1647 0300 C06B 66B9 	.long-1066703175
 1648 0304 5F5C 1BF6 	.long1599871990
 1649               	.align2
 1652               	qs3:
 1653 0308 4047 D523 	.long1078449443
 1654 030c CCD3 67E4 	.long-858560540
 1655 0310 4085 0EEB 	.long1082461931
 1656 0314 C031 EE3E 	.long-1070469570
 1657 0318 40AA 684E 	.long1084909646
 1658 031c 448E 7C9A 	.long1150188698
 1659 0320 40B5 ABBA 	.long1085647802
 1660 0324 A61D 54A6 	.long-1508027226
 1661 0328 409D BC7A 	.long1084079226
 1662 032c 0DD4 DF4B 	.long232054603
 1663 0330 C060 E670 	.long-1067391376
 1664 0334 290A 311F 	.long688533791
 1665               	.align2
 1668               	qr2:
 1669 0338 BE87 F126 	.long-1098387162
 1670 033c 44C6 26D2 	.long1153836754
 1671 0340 BFBA 3E8E 	.long-1078313330
 1672 0344 9148 B010 	.long-1857507312
 1673 0348 C006 0484 	.long-1073347452
68K GAS   			page 33


 1674 034c 69BB 4EDA 	.long1773883098
 1675 0350 C033 A9E2 	.long-1070355998
 1676 0354 C168 907F 	.long-1050111873
 1677 0358 C045 29A3 	.long-1069209181
 1678 035c DE10 4AAA 	.long-569357654
 1679 0360 C035 5F36 	.long-1070244042
 1680 0364 39CF 6E52 	.long969895506
 1681               	.align2
 1684               	qs2:
 1685 0368 403D 888A 	.long1077774474
 1686 036c 78AE 64FF 	.long2024695039
 1687 0370 406F 9F68 	.long1081057128
 1688 0374 DB82 1CBA 	.long-612229958
 1689 0378 4087 AC05 	.long1082633221
 1690 037c CE49 A0F7 	.long-834035465
 1691 0380 4087 1B25 	.long1082596133
 1692 0384 48D4 C029 	.long1221902377
 1693 0388 4063 7E5E 	.long1080262238
 1694 038c 3C3E D8D4 	.long1010751700
 1695 0390 C013 D686 	.long-1072441722
 1696 0394 E71B E86B 	.long-417601429
 1697               	.text
 1698               	.align2
 1700               	qone:
 1701 114a 4E56 FFDC 	link.w %fp,#-36
 1702 114e 48E7 3F38 	movem.l #16184,-(%sp)
 1703 1152 200E      	move.l %fp,%d0
 1704 1154 5080      	addq.l #8,%d0
 1705 1156 2040      	move.l %d0,%a0
 1706 1158 2010      	move.l (%a0),%d0
 1707 115a 2200      	move.l %d0,%d1
 1708 115c 0881 001F 	bclr #31,%d1
 1709 1160 2D41 FFF4 	move.l %d1,-12(%fp)
 1710 1164 0CAE 401F 	cmp.l #1075838975,-12(%fp)
 1710      FFFF FFF4 
 1711 116c 6F12      	jle .L28
 1712 116e 2D7C 0000 	move.l #qr8,-4(%fp)
 1712      0000 FFFC 
 1713 1176 2D7C 0000 	move.l #qs8,-8(%fp)
 1713      0000 FFF8 
 1714 117e 6052      	jra .L29
 1715               	.L28:
 1716 1180 0CAE 4012 	cmp.l #1074933386,-12(%fp)
 1716      2E8A FFF4 
 1717 1188 6F12      	jle .L30
 1718 118a 2D7C 0000 	move.l #qr5,-4(%fp)
 1718      0000 FFFC 
 1719 1192 2D7C 0000 	move.l #qs5,-8(%fp)
 1719      0000 FFF8 
 1720 119a 6036      	jra .L29
 1721               	.L30:
 1722 119c 0CAE 4006 	cmp.l #1074191212,-12(%fp)
 1722      DB6C FFF4 
 1723 11a4 6F12      	jle .L31
 1724 11a6 2D7C 0000 	move.l #qr3,-4(%fp)
 1724      0000 FFFC 
 1725 11ae 2D7C 0000 	move.l #qs3,-8(%fp)
68K GAS   			page 34


 1725      0000 FFF8 
 1726 11b6 601A      	jra .L29
 1727               	.L31:
 1728 11b8 0CAE 3FFF 	cmp.l #1073741823,-12(%fp)
 1728      FFFF FFF4 
 1729 11c0 6F10      	jle .L29
 1730 11c2 2D7C 0000 	move.l #qr2,-4(%fp)
 1730      0000 FFFC 
 1731 11ca 2D7C 0000 	move.l #qs2,-8(%fp)
 1731      0000 FFF8 
 1732               	.L29:
 1733 11d2 2079 0000 	move.l one,%a0
 1733      0000 
 1734 11d8 2279 0000 	move.l one+4,%a1
 1734      0000 
 1735 11de 242E 0008 	move.l 8(%fp),%d2
 1736 11e2 262E 000C 	move.l 12(%fp),%d3
 1737 11e6 202E 0008 	move.l 8(%fp),%d0
 1738 11ea 222E 000C 	move.l 12(%fp),%d1
 1739 11ee 2F03      	move.l %d3,-(%sp)
 1740 11f0 2F02      	move.l %d2,-(%sp)
 1741 11f2 F21F 5400 	fmove.d (%sp)+,%fp0
 1742 11f6 2F01      	move.l %d1,-(%sp)
 1743 11f8 2F00      	move.l %d0,-(%sp)
 1744 11fa F21F 5480 	fmove.d (%sp)+,%fp1
 1745 11fe F200 0423 	fmul.x %fp1,%fp0
 1746 1202 F227 7400 	fmove.d %fp0,-(%sp)
 1747 1206 201F      	move.l (%sp)+,%d0
 1748 1208 221F      	move.l (%sp)+,%d1
 1749 120a 2F09      	move.l %a1,-(%sp)
 1750 120c 2F08      	move.l %a0,-(%sp)
 1751 120e F21F 5400 	fmove.d (%sp)+,%fp0
 1752 1212 2F01      	move.l %d1,-(%sp)
 1753 1214 2F00      	move.l %d0,-(%sp)
 1754 1216 F21F 5480 	fmove.d (%sp)+,%fp1
 1755 121a F200 0420 	fdiv.x %fp1,%fp0
 1756 121e F22E 7400 	fmove.d %fp0,-20(%fp)
 1756      FFEC 
 1757 1224 202E FFFC 	move.l -4(%fp),%d0
 1758 1228 2440      	move.l %d0,%a2
 1759 122a 2052      	move.l (%a2),%a0
 1760 122c 226A 0004 	move.l 4(%a2),%a1
 1761 1230 202E FFFC 	move.l -4(%fp),%d0
 1762 1234 5080      	addq.l #8,%d0
 1763 1236 2840      	move.l %d0,%a4
 1764 1238 2414      	move.l (%a4),%d2
 1765 123a 262C 0004 	move.l 4(%a4),%d3
 1766 123e 7010      	moveq #16,%d0
 1767 1240 D0AE FFFC 	add.l -4(%fp),%d0
 1768 1244 2440      	move.l %d0,%a2
 1769 1246 2812      	move.l (%a2),%d4
 1770 1248 2A2A 0004 	move.l 4(%a2),%d5
 1771 124c 7018      	moveq #24,%d0
 1772 124e D0AE FFFC 	add.l -4(%fp),%d0
 1773 1252 2840      	move.l %d0,%a4
 1774 1254 2C14      	move.l (%a4),%d6
 1775 1256 2E2C 0004 	move.l 4(%a4),%d7
68K GAS   			page 35


 1776 125a 7020      	moveq #32,%d0
 1777 125c D0AE FFFC 	add.l -4(%fp),%d0
 1778 1260 2840      	move.l %d0,%a4
 1779 1262 2454      	move.l (%a4),%a2
 1780 1264 266C 0004 	move.l 4(%a4),%a3
 1781 1268 7028      	moveq #40,%d0
 1782 126a D0AE FFFC 	add.l -4(%fp),%d0
 1783 126e 2840      	move.l %d0,%a4
 1784 1270 2014      	move.l (%a4),%d0
 1785 1272 222C 0004 	move.l 4(%a4),%d1
 1786 1276 2F01      	move.l %d1,-(%sp)
 1787 1278 2F00      	move.l %d0,-(%sp)
 1788 127a F21F 5400 	fmove.d (%sp)+,%fp0
 1789 127e F22E 5423 	fmul.d -20(%fp),%fp0
 1789      FFEC 
 1790 1284 F227 7400 	fmove.d %fp0,-(%sp)
 1791 1288 201F      	move.l (%sp)+,%d0
 1792 128a 221F      	move.l (%sp)+,%d1
 1793 128c 2F0B      	move.l %a3,-(%sp)
 1794 128e 2F0A      	move.l %a2,-(%sp)
 1795 1290 F21F 5480 	fmove.d (%sp)+,%fp1
 1796 1294 2F01      	move.l %d1,-(%sp)
 1797 1296 2F00      	move.l %d0,-(%sp)
 1798 1298 F21F 5400 	fmove.d (%sp)+,%fp0
 1799 129c F200 00A2 	fadd.x %fp0,%fp1
 1800 12a0 F227 7480 	fmove.d %fp1,-(%sp)
 1801 12a4 201F      	move.l (%sp)+,%d0
 1802 12a6 221F      	move.l (%sp)+,%d1
 1803 12a8 2F01      	move.l %d1,-(%sp)
 1804 12aa 2F00      	move.l %d0,-(%sp)
 1805 12ac F21F 5480 	fmove.d (%sp)+,%fp1
 1806 12b0 F22E 54A3 	fmul.d -20(%fp),%fp1
 1806      FFEC 
 1807 12b6 F227 7480 	fmove.d %fp1,-(%sp)
 1808 12ba 201F      	move.l (%sp)+,%d0
 1809 12bc 221F      	move.l (%sp)+,%d1
 1810 12be 2F07      	move.l %d7,-(%sp)
 1811 12c0 2F06      	move.l %d6,-(%sp)
 1812 12c2 F21F 5400 	fmove.d (%sp)+,%fp0
 1813 12c6 2F01      	move.l %d1,-(%sp)
 1814 12c8 2F00      	move.l %d0,-(%sp)
 1815 12ca F21F 5480 	fmove.d (%sp)+,%fp1
 1816 12ce F200 0422 	fadd.x %fp1,%fp0
 1817 12d2 F227 7400 	fmove.d %fp0,-(%sp)
 1818 12d6 201F      	move.l (%sp)+,%d0
 1819 12d8 221F      	move.l (%sp)+,%d1
 1820 12da 2F01      	move.l %d1,-(%sp)
 1821 12dc 2F00      	move.l %d0,-(%sp)
 1822 12de F21F 5400 	fmove.d (%sp)+,%fp0
 1823 12e2 F22E 5423 	fmul.d -20(%fp),%fp0
 1823      FFEC 
 1824 12e8 F227 7400 	fmove.d %fp0,-(%sp)
 1825 12ec 201F      	move.l (%sp)+,%d0
 1826 12ee 221F      	move.l (%sp)+,%d1
 1827 12f0 2F05      	move.l %d5,-(%sp)
 1828 12f2 2F04      	move.l %d4,-(%sp)
 1829 12f4 F21F 5480 	fmove.d (%sp)+,%fp1
68K GAS   			page 36


 1830 12f8 2F01      	move.l %d1,-(%sp)
 1831 12fa 2F00      	move.l %d0,-(%sp)
 1832 12fc F21F 5400 	fmove.d (%sp)+,%fp0
 1833 1300 F200 00A2 	fadd.x %fp0,%fp1
 1834 1304 F227 7480 	fmove.d %fp1,-(%sp)
 1835 1308 201F      	move.l (%sp)+,%d0
 1836 130a 221F      	move.l (%sp)+,%d1
 1837 130c 2F01      	move.l %d1,-(%sp)
 1838 130e 2F00      	move.l %d0,-(%sp)
 1839 1310 F21F 5480 	fmove.d (%sp)+,%fp1
 1840 1314 F22E 54A3 	fmul.d -20(%fp),%fp1
 1840      FFEC 
 1841 131a F227 7480 	fmove.d %fp1,-(%sp)
 1842 131e 201F      	move.l (%sp)+,%d0
 1843 1320 221F      	move.l (%sp)+,%d1
 1844 1322 2F03      	move.l %d3,-(%sp)
 1845 1324 2F02      	move.l %d2,-(%sp)
 1846 1326 F21F 5400 	fmove.d (%sp)+,%fp0
 1847 132a 2F01      	move.l %d1,-(%sp)
 1848 132c 2F00      	move.l %d0,-(%sp)
 1849 132e F21F 5480 	fmove.d (%sp)+,%fp1
 1850 1332 F200 0422 	fadd.x %fp1,%fp0
 1851 1336 F227 7400 	fmove.d %fp0,-(%sp)
 1852 133a 201F      	move.l (%sp)+,%d0
 1853 133c 221F      	move.l (%sp)+,%d1
 1854 133e 2F01      	move.l %d1,-(%sp)
 1855 1340 2F00      	move.l %d0,-(%sp)
 1856 1342 F21F 5400 	fmove.d (%sp)+,%fp0
 1857 1346 F22E 5423 	fmul.d -20(%fp),%fp0
 1857      FFEC 
 1858 134c F227 7400 	fmove.d %fp0,-(%sp)
 1859 1350 201F      	move.l (%sp)+,%d0
 1860 1352 221F      	move.l (%sp)+,%d1
 1861 1354 2F09      	move.l %a1,-(%sp)
 1862 1356 2F08      	move.l %a0,-(%sp)
 1863 1358 F21F 5480 	fmove.d (%sp)+,%fp1
 1864 135c 2F01      	move.l %d1,-(%sp)
 1865 135e 2F00      	move.l %d0,-(%sp)
 1866 1360 F21F 5400 	fmove.d (%sp)+,%fp0
 1867 1364 F200 00A2 	fadd.x %fp0,%fp1
 1868 1368 F22E 7480 	fmove.d %fp1,-28(%fp)
 1868      FFE4 
 1869 136e 202E FFF8 	move.l -8(%fp),%d0
 1870 1372 2440      	move.l %d0,%a2
 1871 1374 2052      	move.l (%a2),%a0
 1872 1376 226A 0004 	move.l 4(%a2),%a1
 1873 137a 202E FFF8 	move.l -8(%fp),%d0
 1874 137e 5080      	addq.l #8,%d0
 1875 1380 2840      	move.l %d0,%a4
 1876 1382 2414      	move.l (%a4),%d2
 1877 1384 262C 0004 	move.l 4(%a4),%d3
 1878 1388 7010      	moveq #16,%d0
 1879 138a D0AE FFF8 	add.l -8(%fp),%d0
 1880 138e 2440      	move.l %d0,%a2
 1881 1390 2812      	move.l (%a2),%d4
 1882 1392 2A2A 0004 	move.l 4(%a2),%d5
 1883 1396 7018      	moveq #24,%d0
68K GAS   			page 37


 1884 1398 D0AE FFF8 	add.l -8(%fp),%d0
 1885 139c 2840      	move.l %d0,%a4
 1886 139e 2C14      	move.l (%a4),%d6
 1887 13a0 2E2C 0004 	move.l 4(%a4),%d7
 1888 13a4 7020      	moveq #32,%d0
 1889 13a6 D0AE FFF8 	add.l -8(%fp),%d0
 1890 13aa 2840      	move.l %d0,%a4
 1891 13ac 2454      	move.l (%a4),%a2
 1892 13ae 266C 0004 	move.l 4(%a4),%a3
 1893 13b2 7028      	moveq #40,%d0
 1894 13b4 D0AE FFF8 	add.l -8(%fp),%d0
 1895 13b8 2840      	move.l %d0,%a4
 1896 13ba 2014      	move.l (%a4),%d0
 1897 13bc 222C 0004 	move.l 4(%a4),%d1
 1898 13c0 2F01      	move.l %d1,-(%sp)
 1899 13c2 2F00      	move.l %d0,-(%sp)
 1900 13c4 F21F 5400 	fmove.d (%sp)+,%fp0
 1901 13c8 F22E 5423 	fmul.d -20(%fp),%fp0
 1901      FFEC 
 1902 13ce F227 7400 	fmove.d %fp0,-(%sp)
 1903 13d2 201F      	move.l (%sp)+,%d0
 1904 13d4 221F      	move.l (%sp)+,%d1
 1905 13d6 2F0B      	move.l %a3,-(%sp)
 1906 13d8 2F0A      	move.l %a2,-(%sp)
 1907 13da F21F 5480 	fmove.d (%sp)+,%fp1
 1908 13de 2F01      	move.l %d1,-(%sp)
 1909 13e0 2F00      	move.l %d0,-(%sp)
 1910 13e2 F21F 5400 	fmove.d (%sp)+,%fp0
 1911 13e6 F200 00A2 	fadd.x %fp0,%fp1
 1912 13ea F227 7480 	fmove.d %fp1,-(%sp)
 1913 13ee 201F      	move.l (%sp)+,%d0
 1914 13f0 221F      	move.l (%sp)+,%d1
 1915 13f2 2F01      	move.l %d1,-(%sp)
 1916 13f4 2F00      	move.l %d0,-(%sp)
 1917 13f6 F21F 5480 	fmove.d (%sp)+,%fp1
 1918 13fa F22E 54A3 	fmul.d -20(%fp),%fp1
 1918      FFEC 
 1919 1400 F227 7480 	fmove.d %fp1,-(%sp)
 1920 1404 201F      	move.l (%sp)+,%d0
 1921 1406 221F      	move.l (%sp)+,%d1
 1922 1408 2F07      	move.l %d7,-(%sp)
 1923 140a 2F06      	move.l %d6,-(%sp)
 1924 140c F21F 5400 	fmove.d (%sp)+,%fp0
 1925 1410 2F01      	move.l %d1,-(%sp)
 1926 1412 2F00      	move.l %d0,-(%sp)
 1927 1414 F21F 5480 	fmove.d (%sp)+,%fp1
 1928 1418 F200 0422 	fadd.x %fp1,%fp0
 1929 141c F227 7400 	fmove.d %fp0,-(%sp)
 1930 1420 201F      	move.l (%sp)+,%d0
 1931 1422 221F      	move.l (%sp)+,%d1
 1932 1424 2F01      	move.l %d1,-(%sp)
 1933 1426 2F00      	move.l %d0,-(%sp)
 1934 1428 F21F 5400 	fmove.d (%sp)+,%fp0
 1935 142c F22E 5423 	fmul.d -20(%fp),%fp0
 1935      FFEC 
 1936 1432 F227 7400 	fmove.d %fp0,-(%sp)
 1937 1436 201F      	move.l (%sp)+,%d0
68K GAS   			page 38


 1938 1438 221F      	move.l (%sp)+,%d1
 1939 143a 2F05      	move.l %d5,-(%sp)
 1940 143c 2F04      	move.l %d4,-(%sp)
 1941 143e F21F 5480 	fmove.d (%sp)+,%fp1
 1942 1442 2F01      	move.l %d1,-(%sp)
 1943 1444 2F00      	move.l %d0,-(%sp)
 1944 1446 F21F 5400 	fmove.d (%sp)+,%fp0
 1945 144a F200 00A2 	fadd.x %fp0,%fp1
 1946 144e F227 7480 	fmove.d %fp1,-(%sp)
 1947 1452 201F      	move.l (%sp)+,%d0
 1948 1454 221F      	move.l (%sp)+,%d1
 1949 1456 2F01      	move.l %d1,-(%sp)
 1950 1458 2F00      	move.l %d0,-(%sp)
 1951 145a F21F 5480 	fmove.d (%sp)+,%fp1
 1952 145e F22E 54A3 	fmul.d -20(%fp),%fp1
 1952      FFEC 
 1953 1464 F227 7480 	fmove.d %fp1,-(%sp)
 1954 1468 201F      	move.l (%sp)+,%d0
 1955 146a 221F      	move.l (%sp)+,%d1
 1956 146c 2F03      	move.l %d3,-(%sp)
 1957 146e 2F02      	move.l %d2,-(%sp)
 1958 1470 F21F 5400 	fmove.d (%sp)+,%fp0
 1959 1474 2F01      	move.l %d1,-(%sp)
 1960 1476 2F00      	move.l %d0,-(%sp)
 1961 1478 F21F 5480 	fmove.d (%sp)+,%fp1
 1962 147c F200 0422 	fadd.x %fp1,%fp0
 1963 1480 F227 7400 	fmove.d %fp0,-(%sp)
 1964 1484 201F      	move.l (%sp)+,%d0
 1965 1486 221F      	move.l (%sp)+,%d1
 1966 1488 2F01      	move.l %d1,-(%sp)
 1967 148a 2F00      	move.l %d0,-(%sp)
 1968 148c F21F 5400 	fmove.d (%sp)+,%fp0
 1969 1490 F22E 5423 	fmul.d -20(%fp),%fp0
 1969      FFEC 
 1970 1496 F227 7400 	fmove.d %fp0,-(%sp)
 1971 149a 201F      	move.l (%sp)+,%d0
 1972 149c 221F      	move.l (%sp)+,%d1
 1973 149e 2F09      	move.l %a1,-(%sp)
 1974 14a0 2F08      	move.l %a0,-(%sp)
 1975 14a2 F21F 5480 	fmove.d (%sp)+,%fp1
 1976 14a6 2F01      	move.l %d1,-(%sp)
 1977 14a8 2F00      	move.l %d0,-(%sp)
 1978 14aa F21F 5400 	fmove.d (%sp)+,%fp0
 1979 14ae F200 00A2 	fadd.x %fp0,%fp1
 1980 14b2 F227 7480 	fmove.d %fp1,-(%sp)
 1981 14b6 201F      	move.l (%sp)+,%d0
 1982 14b8 221F      	move.l (%sp)+,%d1
 1983 14ba 2F01      	move.l %d1,-(%sp)
 1984 14bc 2F00      	move.l %d0,-(%sp)
 1985 14be F21F 5480 	fmove.d (%sp)+,%fp1
 1986 14c2 F22E 54A3 	fmul.d -20(%fp),%fp1
 1986      FFEC 
 1987 14c8 F227 7480 	fmove.d %fp1,-(%sp)
 1988 14cc 201F      	move.l (%sp)+,%d0
 1989 14ce 221F      	move.l (%sp)+,%d1
 1990 14d0 2079 0000 	move.l one,%a0
 1990      0000 
68K GAS   			page 39


 1991 14d6 2279 0000 	move.l one+4,%a1
 1991      0000 
 1992 14dc 2F01      	move.l %d1,-(%sp)
 1993 14de 2F00      	move.l %d0,-(%sp)
 1994 14e0 F21F 5400 	fmove.d (%sp)+,%fp0
 1995 14e4 2F09      	move.l %a1,-(%sp)
 1996 14e6 2F08      	move.l %a0,-(%sp)
 1997 14e8 F21F 5480 	fmove.d (%sp)+,%fp1
 1998 14ec F200 0422 	fadd.x %fp1,%fp0
 1999 14f0 F22E 7400 	fmove.d %fp0,-36(%fp)
 1999      FFDC 
 2000 14f6 F22E 5400 	fmove.d -28(%fp),%fp0
 2000      FFE4 
 2001 14fc F22E 5420 	fdiv.d -36(%fp),%fp0
 2001      FFDC 
 2002 1502 F227 7400 	fmove.d %fp0,-(%sp)
 2003 1506 201F      	move.l (%sp)+,%d0
 2004 1508 221F      	move.l (%sp)+,%d1
 2005 150a 2F01      	move.l %d1,-(%sp)
 2006 150c 2F00      	move.l %d0,-(%sp)
 2007 150e F21F 5480 	fmove.d (%sp)+,%fp1
 2008 1512 F23C 54A2 	fadd.d #0x3fd8000000000000,%fp1
 2008      3FD8 0000 
 2008      0000 0000 
 2009 151e F227 7480 	fmove.d %fp1,-(%sp)
 2010 1522 201F      	move.l (%sp)+,%d0
 2011 1524 221F      	move.l (%sp)+,%d1
 2012 1526 206E 0008 	move.l 8(%fp),%a0
 2013 152a 226E 000C 	move.l 12(%fp),%a1
 2014 152e 2F01      	move.l %d1,-(%sp)
 2015 1530 2F00      	move.l %d0,-(%sp)
 2016 1532 F21F 5400 	fmove.d (%sp)+,%fp0
 2017 1536 2F09      	move.l %a1,-(%sp)
 2018 1538 2F08      	move.l %a0,-(%sp)
 2019 153a F21F 5480 	fmove.d (%sp)+,%fp1
 2020 153e F200 0420 	fdiv.x %fp1,%fp0
 2021 1542 F227 7400 	fmove.d %fp0,-(%sp)
 2022 1546 201F      	move.l (%sp)+,%d0
 2023 1548 221F      	move.l (%sp)+,%d1
 2024 154a 2F01      	move.l %d1,-(%sp)
 2025 154c 2F00      	move.l %d0,-(%sp)
 2026 154e F21F 5400 	fmove.d (%sp)+,%fp0
 2027 1552 4CDF 1CFC 	movem.l (%sp)+,#7420
 2028 1556 4E5E      	unlk %fp
 2029 1558 4E75      	rts
 2031               	.ident"GCC: (GNU) 4.5.1"
 2032               	.section.note.GNU-stack,"",@progbits
68K GAS   			page 40


DEFINED SYMBOLS
                            *ABS*:00000000 e_j1.c
    {standard input}:7      .rodata:00000000 huge
    {standard input}:13     .rodata:00000008 one
    {standard input}:19     .rodata:00000010 invsqrtpi
    {standard input}:25     .rodata:00000018 tpi
    {standard input}:31     .rodata:00000020 r00
    {standard input}:37     .rodata:00000028 r01
    {standard input}:43     .rodata:00000030 r02
    {standard input}:49     .rodata:00000038 r03
    {standard input}:55     .rodata:00000040 s01
    {standard input}:61     .rodata:00000048 s02
    {standard input}:67     .rodata:00000050 s03
    {standard input}:73     .rodata:00000058 s04
    {standard input}:79     .rodata:00000060 s05
    {standard input}:83     .bss:00000000 zero
    {standard input}:88     .text:00000000 __ieee754_j1
    {standard input}:1266   .text:00000d92 pone
    {standard input}:1700   .text:0000114a qone
    {standard input}:545    .rodata:00000068 U0
    {standard input}:559    .rodata:00000090 V0
    {standard input}:574    .text:00000626 __ieee754_y1
    {standard input}:1146   .rodata:000000b8 pr8
    {standard input}:1162   .rodata:000000e8 ps8
    {standard input}:1176   .rodata:00000110 pr5
    {standard input}:1192   .rodata:00000140 ps5
    {standard input}:1206   .rodata:00000168 pr3
    {standard input}:1222   .rodata:00000198 ps3
    {standard input}:1236   .rodata:000001c0 pr2
    {standard input}:1252   .rodata:000001f0 ps2
    {standard input}:1572   .rodata:00000218 qr8
    {standard input}:1588   .rodata:00000248 qs8
    {standard input}:1604   .rodata:00000278 qr5
    {standard input}:1620   .rodata:000002a8 qs5
    {standard input}:1636   .rodata:000002d8 qr3
    {standard input}:1652   .rodata:00000308 qs3
    {standard input}:1668   .rodata:00000338 qr2
    {standard input}:1684   .rodata:00000368 qs2

UNDEFINED SYMBOLS
fabs
sin
cos
sqrt
__ieee754_log
