68K GAS   			page 1


   1               	
   2               	.file"e_log.c"
   3               	.section.rodata
   4               	.align2
   7               	ln2_hi:
   8 0000 3FE6 2E42 	.long1072049730
   9 0004 FEE0 0000 	.long-18874368
  10               	.align2
  13               	ln2_lo:
  14 0008 3DEA 39EF 	.long1038760431
  15 000c 3579 3C76 	.long897137782
  16               	.align2
  19               	two54:
  20 0010 4350 0000 	.long1129316352
  21 0014 0000 0000 	.long0
  22               	.align2
  25               	Lg1:
  26 0018 3FE5 5555 	.long1071994197
  27 001c 5555 5593 	.long1431655827
  28               	.align2
  31               	Lg2:
  32 0020 3FD9 9999 	.long1071225241
  33 0024 9997 FA04 	.long-1718093308
  34               	.align2
  37               	Lg3:
  38 0028 3FD2 4924 	.long1070745892
  39 002c 9422 9359 	.long-1809673383
  40               	.align2
  43               	Lg4:
  44 0030 3FCC 71C5 	.long1070363077
  45 0034 1D8E 78AF 	.long495876271
  46               	.align2
  49               	Lg5:
  50 0038 3FC7 4664 	.long1070024292
  51 003c 96CB 03DE 	.long-1765080098
  52               	.align2
  55               	Lg6:
  56 0040 3FC3 9A09 	.long1069783561
  57 0044 D078 C69F 	.long-797391201
  58               	.align2
  61               	Lg7:
  62 0048 3FC2 F112 	.long1069740306
  63 004c DF3E 5244 	.long-549563836
  64               	.localzero
  65               	.commzero,8,2
  66               	.text
  67               	.align2
  68               	.globl__ieee754_log
  70               	__ieee754_log:
  71 0000 4E56 FFA4 	link.w %fp,#-92
  72 0004 2F03      	move.l %d3,-(%sp)
  73 0006 2F02      	move.l %d2,-(%sp)
  74 0008 200E      	move.l %fp,%d0
  75 000a 5080      	addq.l #8,%d0
  76 000c 2040      	move.l %d0,%a0
  77 000e 2D50 FFF8 	move.l (%a0),-8(%fp)
  78 0012 200E      	move.l %fp,%d0
68K GAS   			page 2


  79 0014 5080      	addq.l #8,%d0
  80 0016 5880      	addq.l #4,%d0
  81 0018 2040      	move.l %d0,%a0
  82 001a 2010      	move.l (%a0),%d0
  83 001c 2D40 FFF4 	move.l %d0,-12(%fp)
  84 0020 42AE FFFC 	clr.l -4(%fp)
  85 0024 0CAE 000F 	cmp.l #1048575,-8(%fp)
  85      FFFF FFF8 
  86 002c 6E00 00F4 	jgt .L2
  87 0030 202E FFF8 	move.l -8(%fp),%d0
  88 0034 0880 001F 	bclr #31,%d0
  89 0038 80AE FFF4 	or.l -12(%fp),%d0
  90 003c 4A80      	tst.l %d0
  91 003e 663C      	jne .L3
  92 0040 2039 0000 	move.l two54,%d0
  92      0000 
  93 0046 2239 0000 	move.l two54+4,%d1
  93      0000 
  94 004c 0840 001F 	bchg #31,%d0
  95 0050 2079 0000 	move.l zero,%a0
  95      0000 
  96 0056 2279 0000 	move.l zero+4,%a1
  96      0000 
  97 005c 2F01      	move.l %d1,-(%sp)
  98 005e 2F00      	move.l %d0,-(%sp)
  99 0060 F21F 5400 	fmove.d (%sp)+,%fp0
 100 0064 2F09      	move.l %a1,-(%sp)
 101 0066 2F08      	move.l %a0,-(%sp)
 102 0068 F21F 5480 	fmove.d (%sp)+,%fp1
 103 006c F200 0420 	fdiv.x %fp1,%fp0
 104 0070 F227 7400 	fmove.d %fp0,-(%sp)
 105 0074 201F      	move.l (%sp)+,%d0
 106 0076 221F      	move.l (%sp)+,%d1
 107 0078 6000 07C6 	jra .L4
 108               	.L3:
 109 007c 4AAE FFF8 	tst.l -8(%fp)
 110 0080 6C58      	jge .L5
 111 0082 202E 0008 	move.l 8(%fp),%d0
 112 0086 222E 000C 	move.l 12(%fp),%d1
 113 008a 206E 0008 	move.l 8(%fp),%a0
 114 008e 226E 000C 	move.l 12(%fp),%a1
 115 0092 2F01      	move.l %d1,-(%sp)
 116 0094 2F00      	move.l %d0,-(%sp)
 117 0096 F21F 5400 	fmove.d (%sp)+,%fp0
 118 009a 2F09      	move.l %a1,-(%sp)
 119 009c 2F08      	move.l %a0,-(%sp)
 120 009e F21F 5480 	fmove.d (%sp)+,%fp1
 121 00a2 F200 0428 	fsub.x %fp1,%fp0
 122 00a6 F227 7400 	fmove.d %fp0,-(%sp)
 123 00aa 201F      	move.l (%sp)+,%d0
 124 00ac 221F      	move.l (%sp)+,%d1
 125 00ae 2079 0000 	move.l zero,%a0
 125      0000 
 126 00b4 2279 0000 	move.l zero+4,%a1
 126      0000 
 127 00ba 2F01      	move.l %d1,-(%sp)
 128 00bc 2F00      	move.l %d0,-(%sp)
68K GAS   			page 3


 129 00be F21F 5400 	fmove.d (%sp)+,%fp0
 130 00c2 2F09      	move.l %a1,-(%sp)
 131 00c4 2F08      	move.l %a0,-(%sp)
 132 00c6 F21F 5480 	fmove.d (%sp)+,%fp1
 133 00ca F200 0420 	fdiv.x %fp1,%fp0
 134 00ce F227 7400 	fmove.d %fp0,-(%sp)
 135 00d2 201F      	move.l (%sp)+,%d0
 136 00d4 221F      	move.l (%sp)+,%d1
 137 00d6 6000 0768 	jra .L4
 138               	.L5:
 139 00da 70CA      	moveq #-54,%d0
 140 00dc D1AE FFFC 	add.l %d0,-4(%fp)
 141 00e0 206E 0008 	move.l 8(%fp),%a0
 142 00e4 226E 000C 	move.l 12(%fp),%a1
 143 00e8 2039 0000 	move.l two54,%d0
 143      0000 
 144 00ee 2239 0000 	move.l two54+4,%d1
 144      0000 
 145 00f4 2F09      	move.l %a1,-(%sp)
 146 00f6 2F08      	move.l %a0,-(%sp)
 147 00f8 F21F 5400 	fmove.d (%sp)+,%fp0
 148 00fc 2F01      	move.l %d1,-(%sp)
 149 00fe 2F00      	move.l %d0,-(%sp)
 150 0100 F21F 5480 	fmove.d (%sp)+,%fp1
 151 0104 F200 0423 	fmul.x %fp1,%fp0
 152 0108 F227 7400 	fmove.d %fp0,-(%sp)
 153 010c 201F      	move.l (%sp)+,%d0
 154 010e 221F      	move.l (%sp)+,%d1
 155 0110 2D40 0008 	move.l %d0,8(%fp)
 156 0114 2D41 000C 	move.l %d1,12(%fp)
 157 0118 200E      	move.l %fp,%d0
 158 011a 5080      	addq.l #8,%d0
 159 011c 2040      	move.l %d0,%a0
 160 011e 2D50 FFF8 	move.l (%a0),-8(%fp)
 161               	.L2:
 162 0122 0CAE 7FEF 	cmp.l #2146435071,-8(%fp)
 162      FFFF FFF8 
 163 012a 6F28      	jle .L6
 164 012c 202E 0008 	move.l 8(%fp),%d0
 165 0130 222E 000C 	move.l 12(%fp),%d1
 166 0134 2F01      	move.l %d1,-(%sp)
 167 0136 2F00      	move.l %d0,-(%sp)
 168 0138 F21F 5400 	fmove.d (%sp)+,%fp0
 169 013c 2F01      	move.l %d1,-(%sp)
 170 013e 2F00      	move.l %d0,-(%sp)
 171 0140 F21F 5480 	fmove.d (%sp)+,%fp1
 172 0144 F200 0422 	fadd.x %fp1,%fp0
 173 0148 F227 7400 	fmove.d %fp0,-(%sp)
 174 014c 201F      	move.l (%sp)+,%d0
 175 014e 221F      	move.l (%sp)+,%d1
 176 0150 6000 06EE 	jra .L4
 177               	.L6:
 178 0154 202E FFF8 	move.l -8(%fp),%d0
 179 0158 7214      	moveq #20,%d1
 180 015a E2A0      	asr.l %d1,%d0
 181 015c 0680 FFFF 	add.l #-1023,%d0
 181      FC01 
68K GAS   			page 4


 182 0162 D1AE FFFC 	add.l %d0,-4(%fp)
 183 0166 02AE 000F 	and.l #1048575,-8(%fp)
 183      FFFF FFF8 
 184 016e 202E FFF8 	move.l -8(%fp),%d0
 185 0172 0680 0009 	add.l #614244,%d0
 185      5F64 
 186 0178 2200      	move.l %d0,%d1
 187 017a 0281 0010 	and.l #1048576,%d1
 187      0000 
 188 0180 2D41 FFF0 	move.l %d1,-16(%fp)
 189 0184 200E      	move.l %fp,%d0
 190 0186 5080      	addq.l #8,%d0
 191 0188 222E FFF0 	move.l -16(%fp),%d1
 192 018c 0A81 3FF0 	eor.l #1072693248,%d1
 192      0000 
 193 0192 82AE FFF8 	or.l -8(%fp),%d1
 194 0196 2040      	move.l %d0,%a0
 195 0198 2081      	move.l %d1,(%a0)
 196 019a 202E FFF0 	move.l -16(%fp),%d0
 197 019e 7214      	moveq #20,%d1
 198 01a0 E2A0      	asr.l %d1,%d0
 199 01a2 D1AE FFFC 	add.l %d0,-4(%fp)
 200 01a6 202E 0008 	move.l 8(%fp),%d0
 201 01aa 222E 000C 	move.l 12(%fp),%d1
 202 01ae 2F01      	move.l %d1,-(%sp)
 203 01b0 2F00      	move.l %d0,-(%sp)
 204 01b2 F21F 5400 	fmove.d (%sp)+,%fp0
 205 01b6 F200 5CB2 	fmovecr #0x32,%fp1
 206 01ba F200 0428 	fsub.x %fp1,%fp0
 207 01be F22E 7400 	fmove.d %fp0,-24(%fp)
 207      FFE8 
 208 01c4 202E FFF8 	move.l -8(%fp),%d0
 209 01c8 5480      	addq.l #2,%d0
 210 01ca 0280 000F 	and.l #1048575,%d0
 210      FFFF 
 211 01d0 7202      	moveq #2,%d1
 212 01d2 B280      	cmp.l %d0,%d1
 213 01d4 6D00 01DA 	jlt .L7
 214 01d8 2039 0000 	move.l zero,%d0
 214      0000 
 215 01de 2239 0000 	move.l zero+4,%d1
 215      0000 
 216 01e4 206E FFE8 	move.l -24(%fp),%a0
 217 01e8 226E FFEC 	move.l -20(%fp),%a1
 218 01ec 2F09      	move.l %a1,-(%sp)
 219 01ee 2F08      	move.l %a0,-(%sp)
 220 01f0 F21F 5400 	fmove.d (%sp)+,%fp0
 221 01f4 2F01      	move.l %d1,-(%sp)
 222 01f6 2F00      	move.l %d0,-(%sp)
 223 01f8 F21F 5480 	fmove.d (%sp)+,%fp1
 224 01fc F200 0438 	fcmp.x %fp1,%fp0
 225 0200 F28E 0088 	fjne .L8
 226 0204 4AAE FFFC 	tst.l -4(%fp)
 227 0208 6610      	jne .L9
 228 020a 2039 0000 	move.l zero,%d0
 228      0000 
 229 0210 2239 0000 	move.l zero+4,%d1
68K GAS   			page 5


 229      0000 
 230 0216 6000 0628 	jra .L4
 231               	.L9:
 232 021a F22E 4000 	fmove.l -4(%fp),%fp0
 232      FFFC 
 233 0220 F22E 7400 	fmove.d %fp0,-32(%fp)
 233      FFE0 
 234 0226 2039 0000 	move.l ln2_hi,%d0
 234      0000 
 235 022c 2239 0000 	move.l ln2_hi+4,%d1
 235      0000 
 236 0232 2F01      	move.l %d1,-(%sp)
 237 0234 2F00      	move.l %d0,-(%sp)
 238 0236 F21F 5480 	fmove.d (%sp)+,%fp1
 239 023a F22E 54A3 	fmul.d -32(%fp),%fp1
 239      FFE0 
 240 0240 F227 7480 	fmove.d %fp1,-(%sp)
 241 0244 205F      	move.l (%sp)+,%a0
 242 0246 225F      	move.l (%sp)+,%a1
 243 0248 2039 0000 	move.l ln2_lo,%d0
 243      0000 
 244 024e 2239 0000 	move.l ln2_lo+4,%d1
 244      0000 
 245 0254 2F01      	move.l %d1,-(%sp)
 246 0256 2F00      	move.l %d0,-(%sp)
 247 0258 F21F 5400 	fmove.d (%sp)+,%fp0
 248 025c F22E 5423 	fmul.d -32(%fp),%fp0
 248      FFE0 
 249 0262 F227 7400 	fmove.d %fp0,-(%sp)
 250 0266 201F      	move.l (%sp)+,%d0
 251 0268 221F      	move.l (%sp)+,%d1
 252 026a 2F09      	move.l %a1,-(%sp)
 253 026c 2F08      	move.l %a0,-(%sp)
 254 026e F21F 5480 	fmove.d (%sp)+,%fp1
 255 0272 2F01      	move.l %d1,-(%sp)
 256 0274 2F00      	move.l %d0,-(%sp)
 257 0276 F21F 5400 	fmove.d (%sp)+,%fp0
 258 027a F200 00A2 	fadd.x %fp0,%fp1
 259 027e F227 7480 	fmove.d %fp1,-(%sp)
 260 0282 201F      	move.l (%sp)+,%d0
 261 0284 221F      	move.l (%sp)+,%d1
 262 0286 6000 05B8 	jra .L4
 263               	.L8:
 264 028a F22E 5480 	fmove.d -24(%fp),%fp1
 264      FFE8 
 265 0290 F22E 54A3 	fmul.d -24(%fp),%fp1
 265      FFE8 
 266 0296 F227 7480 	fmove.d %fp1,-(%sp)
 267 029a 205F      	move.l (%sp)+,%a0
 268 029c 225F      	move.l (%sp)+,%a1
 269 029e F22E 5400 	fmove.d -24(%fp),%fp0
 269      FFE8 
 270 02a4 F23C 5423 	fmul.d #0x3fd5555555555555,%fp0
 270      3FD5 5555 
 270      5555 5555 
 271 02b0 F227 7400 	fmove.d %fp0,-(%sp)
 272 02b4 201F      	move.l (%sp)+,%d0
68K GAS   			page 6


 273 02b6 221F      	move.l (%sp)+,%d1
 274 02b8 F23C 5480 	fmove.d #0x3fe0000000000000,%fp1
 274      3FE0 0000 
 274      0000 0000 
 275 02c4 2F01      	move.l %d1,-(%sp)
 276 02c6 2F00      	move.l %d0,-(%sp)
 277 02c8 F21F 5400 	fmove.d (%sp)+,%fp0
 278 02cc F200 00A8 	fsub.x %fp0,%fp1
 279 02d0 F227 7480 	fmove.d %fp1,-(%sp)
 280 02d4 201F      	move.l (%sp)+,%d0
 281 02d6 221F      	move.l (%sp)+,%d1
 282 02d8 2F09      	move.l %a1,-(%sp)
 283 02da 2F08      	move.l %a0,-(%sp)
 284 02dc F21F 5480 	fmove.d (%sp)+,%fp1
 285 02e0 2F01      	move.l %d1,-(%sp)
 286 02e2 2F00      	move.l %d0,-(%sp)
 287 02e4 F21F 5400 	fmove.d (%sp)+,%fp0
 288 02e8 F200 00A3 	fmul.x %fp0,%fp1
 289 02ec F22E 7480 	fmove.d %fp1,-40(%fp)
 289      FFD8 
 290 02f2 4AAE FFFC 	tst.l -4(%fp)
 291 02f6 6618      	jne .L10
 292 02f8 F22E 5480 	fmove.d -24(%fp),%fp1
 292      FFE8 
 293 02fe F22E 54A8 	fsub.d -40(%fp),%fp1
 293      FFD8 
 294 0304 F227 7480 	fmove.d %fp1,-(%sp)
 295 0308 201F      	move.l (%sp)+,%d0
 296 030a 221F      	move.l (%sp)+,%d1
 297 030c 6000 0532 	jra .L4
 298               	.L10:
 299 0310 F22E 4000 	fmove.l -4(%fp),%fp0
 299      FFFC 
 300 0316 F22E 7400 	fmove.d %fp0,-32(%fp)
 300      FFE0 
 301 031c 2039 0000 	move.l ln2_hi,%d0
 301      0000 
 302 0322 2239 0000 	move.l ln2_hi+4,%d1
 302      0000 
 303 0328 2F01      	move.l %d1,-(%sp)
 304 032a 2F00      	move.l %d0,-(%sp)
 305 032c F21F 5480 	fmove.d (%sp)+,%fp1
 306 0330 F22E 54A3 	fmul.d -32(%fp),%fp1
 306      FFE0 
 307 0336 F227 7480 	fmove.d %fp1,-(%sp)
 308 033a 201F      	move.l (%sp)+,%d0
 309 033c 221F      	move.l (%sp)+,%d1
 310 033e 2079 0000 	move.l ln2_lo,%a0
 310      0000 
 311 0344 2279 0000 	move.l ln2_lo+4,%a1
 311      0000 
 312 034a 2F09      	move.l %a1,-(%sp)
 313 034c 2F08      	move.l %a0,-(%sp)
 314 034e F21F 5400 	fmove.d (%sp)+,%fp0
 315 0352 F22E 5423 	fmul.d -32(%fp),%fp0
 315      FFE0 
 316 0358 F227 7400 	fmove.d %fp0,-(%sp)
68K GAS   			page 7


 317 035c 205F      	move.l (%sp)+,%a0
 318 035e 225F      	move.l (%sp)+,%a1
 319 0360 F22E 5480 	fmove.d -40(%fp),%fp1
 319      FFD8 
 320 0366 2F09      	move.l %a1,-(%sp)
 321 0368 2F08      	move.l %a0,-(%sp)
 322 036a F21F 5400 	fmove.d (%sp)+,%fp0
 323 036e F200 00A8 	fsub.x %fp0,%fp1
 324 0372 F227 7480 	fmove.d %fp1,-(%sp)
 325 0376 205F      	move.l (%sp)+,%a0
 326 0378 225F      	move.l (%sp)+,%a1
 327 037a 2F09      	move.l %a1,-(%sp)
 328 037c 2F08      	move.l %a0,-(%sp)
 329 037e F21F 5480 	fmove.d (%sp)+,%fp1
 330 0382 F22E 54A8 	fsub.d -24(%fp),%fp1
 330      FFE8 
 331 0388 F227 7480 	fmove.d %fp1,-(%sp)
 332 038c 205F      	move.l (%sp)+,%a0
 333 038e 225F      	move.l (%sp)+,%a1
 334 0390 2F01      	move.l %d1,-(%sp)
 335 0392 2F00      	move.l %d0,-(%sp)
 336 0394 F21F 5400 	fmove.d (%sp)+,%fp0
 337 0398 2F09      	move.l %a1,-(%sp)
 338 039a 2F08      	move.l %a0,-(%sp)
 339 039c F21F 5480 	fmove.d (%sp)+,%fp1
 340 03a0 F200 0428 	fsub.x %fp1,%fp0
 341 03a4 F227 7400 	fmove.d %fp0,-(%sp)
 342 03a8 201F      	move.l (%sp)+,%d0
 343 03aa 221F      	move.l (%sp)+,%d1
 344 03ac 6000 0492 	jra .L4
 345               	.L7:
 346 03b0 F22E 5400 	fmove.d -24(%fp),%fp0
 346      FFE8 
 347 03b6 F23C 5422 	fadd.d #0x4000000000000000,%fp0
 347      4000 0000 
 347      0000 0000 
 348 03c2 F227 7400 	fmove.d %fp0,-(%sp)
 349 03c6 201F      	move.l (%sp)+,%d0
 350 03c8 221F      	move.l (%sp)+,%d1
 351 03ca F22E 5480 	fmove.d -24(%fp),%fp1
 351      FFE8 
 352 03d0 2F01      	move.l %d1,-(%sp)
 353 03d2 2F00      	move.l %d0,-(%sp)
 354 03d4 F21F 5400 	fmove.d (%sp)+,%fp0
 355 03d8 F200 00A0 	fdiv.x %fp0,%fp1
 356 03dc F22E 7480 	fmove.d %fp1,-48(%fp)
 356      FFD0 
 357 03e2 F22E 4080 	fmove.l -4(%fp),%fp1
 357      FFFC 
 358 03e8 F22E 7480 	fmove.d %fp1,-32(%fp)
 358      FFE0 
 359 03ee F22E 5400 	fmove.d -48(%fp),%fp0
 359      FFD0 
 360 03f4 F22E 5423 	fmul.d -48(%fp),%fp0
 360      FFD0 
 361 03fa F22E 7400 	fmove.d %fp0,-56(%fp)
 361      FFC8 
68K GAS   			page 8


 362 0400 202E FFF8 	move.l -8(%fp),%d0
 363 0404 0680 FFF9 	add.l #-398458,%d0
 363      EB86 
 364 040a 2D40 FFF0 	move.l %d0,-16(%fp)
 365 040e F22E 5400 	fmove.d -56(%fp),%fp0
 365      FFC8 
 366 0414 F22E 5423 	fmul.d -56(%fp),%fp0
 366      FFC8 
 367 041a F22E 7400 	fmove.d %fp0,-64(%fp)
 367      FFC0 
 368 0420 203C 0006 	move.l #440401,%d0
 368      B851 
 369 0426 90AE FFF8 	sub.l -8(%fp),%d0
 370 042a 2D40 FFBC 	move.l %d0,-68(%fp)
 371 042e 2039 0000 	move.l Lg6,%d0
 371      0000 
 372 0434 2239 0000 	move.l Lg6+4,%d1
 372      0000 
 373 043a 2F01      	move.l %d1,-(%sp)
 374 043c 2F00      	move.l %d0,-(%sp)
 375 043e F21F 5400 	fmove.d (%sp)+,%fp0
 376 0442 F22E 5423 	fmul.d -64(%fp),%fp0
 376      FFC0 
 377 0448 F227 7400 	fmove.d %fp0,-(%sp)
 378 044c 201F      	move.l (%sp)+,%d0
 379 044e 221F      	move.l (%sp)+,%d1
 380 0450 2079 0000 	move.l Lg4,%a0
 380      0000 
 381 0456 2279 0000 	move.l Lg4+4,%a1
 381      0000 
 382 045c 2F01      	move.l %d1,-(%sp)
 383 045e 2F00      	move.l %d0,-(%sp)
 384 0460 F21F 5480 	fmove.d (%sp)+,%fp1
 385 0464 2F09      	move.l %a1,-(%sp)
 386 0466 2F08      	move.l %a0,-(%sp)
 387 0468 F21F 5400 	fmove.d (%sp)+,%fp0
 388 046c F200 00A2 	fadd.x %fp0,%fp1
 389 0470 F227 7480 	fmove.d %fp1,-(%sp)
 390 0474 201F      	move.l (%sp)+,%d0
 391 0476 221F      	move.l (%sp)+,%d1
 392 0478 2F01      	move.l %d1,-(%sp)
 393 047a 2F00      	move.l %d0,-(%sp)
 394 047c F21F 5480 	fmove.d (%sp)+,%fp1
 395 0480 F22E 54A3 	fmul.d -64(%fp),%fp1
 395      FFC0 
 396 0486 F227 7480 	fmove.d %fp1,-(%sp)
 397 048a 201F      	move.l (%sp)+,%d0
 398 048c 221F      	move.l (%sp)+,%d1
 399 048e 2079 0000 	move.l Lg2,%a0
 399      0000 
 400 0494 2279 0000 	move.l Lg2+4,%a1
 400      0000 
 401 049a 2F01      	move.l %d1,-(%sp)
 402 049c 2F00      	move.l %d0,-(%sp)
 403 049e F21F 5400 	fmove.d (%sp)+,%fp0
 404 04a2 2F09      	move.l %a1,-(%sp)
 405 04a4 2F08      	move.l %a0,-(%sp)
68K GAS   			page 9


 406 04a6 F21F 5480 	fmove.d (%sp)+,%fp1
 407 04aa F200 0422 	fadd.x %fp1,%fp0
 408 04ae F227 7400 	fmove.d %fp0,-(%sp)
 409 04b2 201F      	move.l (%sp)+,%d0
 410 04b4 221F      	move.l (%sp)+,%d1
 411 04b6 2F01      	move.l %d1,-(%sp)
 412 04b8 2F00      	move.l %d0,-(%sp)
 413 04ba F21F 5400 	fmove.d (%sp)+,%fp0
 414 04be F22E 5423 	fmul.d -64(%fp),%fp0
 414      FFC0 
 415 04c4 F22E 7400 	fmove.d %fp0,-76(%fp)
 415      FFB4 
 416 04ca 2039 0000 	move.l Lg7,%d0
 416      0000 
 417 04d0 2239 0000 	move.l Lg7+4,%d1
 417      0000 
 418 04d6 2F01      	move.l %d1,-(%sp)
 419 04d8 2F00      	move.l %d0,-(%sp)
 420 04da F21F 5480 	fmove.d (%sp)+,%fp1
 421 04de F22E 54A3 	fmul.d -64(%fp),%fp1
 421      FFC0 
 422 04e4 F227 7480 	fmove.d %fp1,-(%sp)
 423 04e8 201F      	move.l (%sp)+,%d0
 424 04ea 221F      	move.l (%sp)+,%d1
 425 04ec 2079 0000 	move.l Lg5,%a0
 425      0000 
 426 04f2 2279 0000 	move.l Lg5+4,%a1
 426      0000 
 427 04f8 2F01      	move.l %d1,-(%sp)
 428 04fa 2F00      	move.l %d0,-(%sp)
 429 04fc F21F 5400 	fmove.d (%sp)+,%fp0
 430 0500 2F09      	move.l %a1,-(%sp)
 431 0502 2F08      	move.l %a0,-(%sp)
 432 0504 F21F 5480 	fmove.d (%sp)+,%fp1
 433 0508 F200 0422 	fadd.x %fp1,%fp0
 434 050c F227 7400 	fmove.d %fp0,-(%sp)
 435 0510 201F      	move.l (%sp)+,%d0
 436 0512 221F      	move.l (%sp)+,%d1
 437 0514 2F01      	move.l %d1,-(%sp)
 438 0516 2F00      	move.l %d0,-(%sp)
 439 0518 F21F 5400 	fmove.d (%sp)+,%fp0
 440 051c F22E 5423 	fmul.d -64(%fp),%fp0
 440      FFC0 
 441 0522 F227 7400 	fmove.d %fp0,-(%sp)
 442 0526 201F      	move.l (%sp)+,%d0
 443 0528 221F      	move.l (%sp)+,%d1
 444 052a 2079 0000 	move.l Lg3,%a0
 444      0000 
 445 0530 2279 0000 	move.l Lg3+4,%a1
 445      0000 
 446 0536 2F01      	move.l %d1,-(%sp)
 447 0538 2F00      	move.l %d0,-(%sp)
 448 053a F21F 5480 	fmove.d (%sp)+,%fp1
 449 053e 2F09      	move.l %a1,-(%sp)
 450 0540 2F08      	move.l %a0,-(%sp)
 451 0542 F21F 5400 	fmove.d (%sp)+,%fp0
 452 0546 F200 00A2 	fadd.x %fp0,%fp1
68K GAS   			page 10


 453 054a F227 7480 	fmove.d %fp1,-(%sp)
 454 054e 201F      	move.l (%sp)+,%d0
 455 0550 221F      	move.l (%sp)+,%d1
 456 0552 2F01      	move.l %d1,-(%sp)
 457 0554 2F00      	move.l %d0,-(%sp)
 458 0556 F21F 5480 	fmove.d (%sp)+,%fp1
 459 055a F22E 54A3 	fmul.d -64(%fp),%fp1
 459      FFC0 
 460 0560 F227 7480 	fmove.d %fp1,-(%sp)
 461 0564 201F      	move.l (%sp)+,%d0
 462 0566 221F      	move.l (%sp)+,%d1
 463 0568 2079 0000 	move.l Lg1,%a0
 463      0000 
 464 056e 2279 0000 	move.l Lg1+4,%a1
 464      0000 
 465 0574 2F01      	move.l %d1,-(%sp)
 466 0576 2F00      	move.l %d0,-(%sp)
 467 0578 F21F 5400 	fmove.d (%sp)+,%fp0
 468 057c 2F09      	move.l %a1,-(%sp)
 469 057e 2F08      	move.l %a0,-(%sp)
 470 0580 F21F 5480 	fmove.d (%sp)+,%fp1
 471 0584 F200 0422 	fadd.x %fp1,%fp0
 472 0588 F227 7400 	fmove.d %fp0,-(%sp)
 473 058c 201F      	move.l (%sp)+,%d0
 474 058e 221F      	move.l (%sp)+,%d1
 475 0590 2F01      	move.l %d1,-(%sp)
 476 0592 2F00      	move.l %d0,-(%sp)
 477 0594 F21F 5400 	fmove.d (%sp)+,%fp0
 478 0598 F22E 5423 	fmul.d -56(%fp),%fp0
 478      FFC8 
 479 059e F22E 7400 	fmove.d %fp0,-84(%fp)
 479      FFAC 
 480 05a4 202E FFBC 	move.l -68(%fp),%d0
 481 05a8 81AE FFF0 	or.l %d0,-16(%fp)
 482 05ac F22E 5400 	fmove.d -84(%fp),%fp0
 482      FFAC 
 483 05b2 F22E 5422 	fadd.d -76(%fp),%fp0
 483      FFB4 
 484 05b8 F22E 7400 	fmove.d %fp0,-40(%fp)
 484      FFD8 
 485 05be 4AAE FFF0 	tst.l -16(%fp)
 486 05c2 6F00 0172 	jle .L11
 487 05c6 F22E 5480 	fmove.d -24(%fp),%fp1
 487      FFE8 
 488 05cc F23C 54A3 	fmul.d #0x3fe0000000000000,%fp1
 488      3FE0 0000 
 488      0000 0000 
 489 05d8 F227 7480 	fmove.d %fp1,-(%sp)
 490 05dc 201F      	move.l (%sp)+,%d0
 491 05de 221F      	move.l (%sp)+,%d1
 492 05e0 2F01      	move.l %d1,-(%sp)
 493 05e2 2F00      	move.l %d0,-(%sp)
 494 05e4 F21F 5400 	fmove.d (%sp)+,%fp0
 495 05e8 F22E 5423 	fmul.d -24(%fp),%fp0
 495      FFE8 
 496 05ee F22E 7400 	fmove.d %fp0,-92(%fp)
 496      FFA4 
68K GAS   			page 11


 497 05f4 4AAE FFFC 	tst.l -4(%fp)
 498 05f8 6662      	jne .L12
 499 05fa F22E 5480 	fmove.d -92(%fp),%fp1
 499      FFA4 
 500 0600 F22E 54A2 	fadd.d -40(%fp),%fp1
 500      FFD8 
 501 0606 F227 7480 	fmove.d %fp1,-(%sp)
 502 060a 201F      	move.l (%sp)+,%d0
 503 060c 221F      	move.l (%sp)+,%d1
 504 060e 2F01      	move.l %d1,-(%sp)
 505 0610 2F00      	move.l %d0,-(%sp)
 506 0612 F21F 5400 	fmove.d (%sp)+,%fp0
 507 0616 F22E 5423 	fmul.d -48(%fp),%fp0
 507      FFD0 
 508 061c F227 7400 	fmove.d %fp0,-(%sp)
 509 0620 201F      	move.l (%sp)+,%d0
 510 0622 221F      	move.l (%sp)+,%d1
 511 0624 F22E 5480 	fmove.d -92(%fp),%fp1
 511      FFA4 
 512 062a 2F01      	move.l %d1,-(%sp)
 513 062c 2F00      	move.l %d0,-(%sp)
 514 062e F21F 5400 	fmove.d (%sp)+,%fp0
 515 0632 F200 00A8 	fsub.x %fp0,%fp1
 516 0636 F227 7480 	fmove.d %fp1,-(%sp)
 517 063a 201F      	move.l (%sp)+,%d0
 518 063c 221F      	move.l (%sp)+,%d1
 519 063e F22E 5480 	fmove.d -24(%fp),%fp1
 519      FFE8 
 520 0644 2F01      	move.l %d1,-(%sp)
 521 0646 2F00      	move.l %d0,-(%sp)
 522 0648 F21F 5400 	fmove.d (%sp)+,%fp0
 523 064c F200 00A8 	fsub.x %fp0,%fp1
 524 0650 F227 7480 	fmove.d %fp1,-(%sp)
 525 0654 201F      	move.l (%sp)+,%d0
 526 0656 221F      	move.l (%sp)+,%d1
 527 0658 6000 01E6 	jra .L4
 528               	.L12:
 529 065c 2039 0000 	move.l ln2_hi,%d0
 529      0000 
 530 0662 2239 0000 	move.l ln2_hi+4,%d1
 530      0000 
 531 0668 2F01      	move.l %d1,-(%sp)
 532 066a 2F00      	move.l %d0,-(%sp)
 533 066c F21F 5480 	fmove.d (%sp)+,%fp1
 534 0670 F22E 54A3 	fmul.d -32(%fp),%fp1
 534      FFE0 
 535 0676 F227 7480 	fmove.d %fp1,-(%sp)
 536 067a 201F      	move.l (%sp)+,%d0
 537 067c 221F      	move.l (%sp)+,%d1
 538 067e F22E 5400 	fmove.d -92(%fp),%fp0
 538      FFA4 
 539 0684 F22E 5422 	fadd.d -40(%fp),%fp0
 539      FFD8 
 540 068a F227 7400 	fmove.d %fp0,-(%sp)
 541 068e 205F      	move.l (%sp)+,%a0
 542 0690 225F      	move.l (%sp)+,%a1
 543 0692 2F09      	move.l %a1,-(%sp)
68K GAS   			page 12


 544 0694 2F08      	move.l %a0,-(%sp)
 545 0696 F21F 5480 	fmove.d (%sp)+,%fp1
 546 069a F22E 54A3 	fmul.d -48(%fp),%fp1
 546      FFD0 
 547 06a0 F227 7480 	fmove.d %fp1,-(%sp)
 548 06a4 241F      	move.l (%sp)+,%d2
 549 06a6 261F      	move.l (%sp)+,%d3
 550 06a8 2079 0000 	move.l ln2_lo,%a0
 550      0000 
 551 06ae 2279 0000 	move.l ln2_lo+4,%a1
 551      0000 
 552 06b4 2F09      	move.l %a1,-(%sp)
 553 06b6 2F08      	move.l %a0,-(%sp)
 554 06b8 F21F 5400 	fmove.d (%sp)+,%fp0
 555 06bc F22E 5423 	fmul.d -32(%fp),%fp0
 555      FFE0 
 556 06c2 F227 7400 	fmove.d %fp0,-(%sp)
 557 06c6 205F      	move.l (%sp)+,%a0
 558 06c8 225F      	move.l (%sp)+,%a1
 559 06ca 2F03      	move.l %d3,-(%sp)
 560 06cc 2F02      	move.l %d2,-(%sp)
 561 06ce F21F 5480 	fmove.d (%sp)+,%fp1
 562 06d2 2F09      	move.l %a1,-(%sp)
 563 06d4 2F08      	move.l %a0,-(%sp)
 564 06d6 F21F 5400 	fmove.d (%sp)+,%fp0
 565 06da F200 00A2 	fadd.x %fp0,%fp1
 566 06de F227 7480 	fmove.d %fp1,-(%sp)
 567 06e2 205F      	move.l (%sp)+,%a0
 568 06e4 225F      	move.l (%sp)+,%a1
 569 06e6 F22E 5480 	fmove.d -92(%fp),%fp1
 569      FFA4 
 570 06ec 2F09      	move.l %a1,-(%sp)
 571 06ee 2F08      	move.l %a0,-(%sp)
 572 06f0 F21F 5400 	fmove.d (%sp)+,%fp0
 573 06f4 F200 00A8 	fsub.x %fp0,%fp1
 574 06f8 F227 7480 	fmove.d %fp1,-(%sp)
 575 06fc 205F      	move.l (%sp)+,%a0
 576 06fe 225F      	move.l (%sp)+,%a1
 577 0700 2F09      	move.l %a1,-(%sp)
 578 0702 2F08      	move.l %a0,-(%sp)
 579 0704 F21F 5480 	fmove.d (%sp)+,%fp1
 580 0708 F22E 54A8 	fsub.d -24(%fp),%fp1
 580      FFE8 
 581 070e F227 7480 	fmove.d %fp1,-(%sp)
 582 0712 205F      	move.l (%sp)+,%a0
 583 0714 225F      	move.l (%sp)+,%a1
 584 0716 2F01      	move.l %d1,-(%sp)
 585 0718 2F00      	move.l %d0,-(%sp)
 586 071a F21F 5400 	fmove.d (%sp)+,%fp0
 587 071e 2F09      	move.l %a1,-(%sp)
 588 0720 2F08      	move.l %a0,-(%sp)
 589 0722 F21F 5480 	fmove.d (%sp)+,%fp1
 590 0726 F200 0428 	fsub.x %fp1,%fp0
 591 072a F227 7400 	fmove.d %fp0,-(%sp)
 592 072e 201F      	move.l (%sp)+,%d0
 593 0730 221F      	move.l (%sp)+,%d1
 594 0732 6000 010C 	jra .L4
68K GAS   			page 13


 595               	.L11:
 596 0736 4AAE FFFC 	tst.l -4(%fp)
 597 073a 6648      	jne .L13
 598 073c F22E 5400 	fmove.d -24(%fp),%fp0
 598      FFE8 
 599 0742 F22E 5428 	fsub.d -40(%fp),%fp0
 599      FFD8 
 600 0748 F227 7400 	fmove.d %fp0,-(%sp)
 601 074c 201F      	move.l (%sp)+,%d0
 602 074e 221F      	move.l (%sp)+,%d1
 603 0750 2F01      	move.l %d1,-(%sp)
 604 0752 2F00      	move.l %d0,-(%sp)
 605 0754 F21F 5480 	fmove.d (%sp)+,%fp1
 606 0758 F22E 54A3 	fmul.d -48(%fp),%fp1
 606      FFD0 
 607 075e F227 7480 	fmove.d %fp1,-(%sp)
 608 0762 201F      	move.l (%sp)+,%d0
 609 0764 221F      	move.l (%sp)+,%d1
 610 0766 F22E 5400 	fmove.d -24(%fp),%fp0
 610      FFE8 
 611 076c 2F01      	move.l %d1,-(%sp)
 612 076e 2F00      	move.l %d0,-(%sp)
 613 0770 F21F 5480 	fmove.d (%sp)+,%fp1
 614 0774 F200 0428 	fsub.x %fp1,%fp0
 615 0778 F227 7400 	fmove.d %fp0,-(%sp)
 616 077c 201F      	move.l (%sp)+,%d0
 617 077e 221F      	move.l (%sp)+,%d1
 618 0780 6000 00BE 	jra .L4
 619               	.L13:
 620 0784 2039 0000 	move.l ln2_hi,%d0
 620      0000 
 621 078a 2239 0000 	move.l ln2_hi+4,%d1
 621      0000 
 622 0790 2F01      	move.l %d1,-(%sp)
 623 0792 2F00      	move.l %d0,-(%sp)
 624 0794 F21F 5400 	fmove.d (%sp)+,%fp0
 625 0798 F22E 5423 	fmul.d -32(%fp),%fp0
 625      FFE0 
 626 079e F227 7400 	fmove.d %fp0,-(%sp)
 627 07a2 201F      	move.l (%sp)+,%d0
 628 07a4 221F      	move.l (%sp)+,%d1
 629 07a6 F22E 5480 	fmove.d -24(%fp),%fp1
 629      FFE8 
 630 07ac F22E 54A8 	fsub.d -40(%fp),%fp1
 630      FFD8 
 631 07b2 F227 7480 	fmove.d %fp1,-(%sp)
 632 07b6 205F      	move.l (%sp)+,%a0
 633 07b8 225F      	move.l (%sp)+,%a1
 634 07ba 2F09      	move.l %a1,-(%sp)
 635 07bc 2F08      	move.l %a0,-(%sp)
 636 07be F21F 5400 	fmove.d (%sp)+,%fp0
 637 07c2 F22E 5423 	fmul.d -48(%fp),%fp0
 637      FFD0 
 638 07c8 F227 7400 	fmove.d %fp0,-(%sp)
 639 07cc 205F      	move.l (%sp)+,%a0
 640 07ce 225F      	move.l (%sp)+,%a1
 641 07d0 2439 0000 	move.l ln2_lo,%d2
68K GAS   			page 14


 641      0000 
 642 07d6 2639 0000 	move.l ln2_lo+4,%d3
 642      0000 
 643 07dc 2F03      	move.l %d3,-(%sp)
 644 07de 2F02      	move.l %d2,-(%sp)
 645 07e0 F21F 5480 	fmove.d (%sp)+,%fp1
 646 07e4 F22E 54A3 	fmul.d -32(%fp),%fp1
 646      FFE0 
 647 07ea F227 7480 	fmove.d %fp1,-(%sp)
 648 07ee 241F      	move.l (%sp)+,%d2
 649 07f0 261F      	move.l (%sp)+,%d3
 650 07f2 2F09      	move.l %a1,-(%sp)
 651 07f4 2F08      	move.l %a0,-(%sp)
 652 07f6 F21F 5400 	fmove.d (%sp)+,%fp0
 653 07fa 2F03      	move.l %d3,-(%sp)
 654 07fc 2F02      	move.l %d2,-(%sp)
 655 07fe F21F 5480 	fmove.d (%sp)+,%fp1
 656 0802 F200 0428 	fsub.x %fp1,%fp0
 657 0806 F227 7400 	fmove.d %fp0,-(%sp)
 658 080a 205F      	move.l (%sp)+,%a0
 659 080c 225F      	move.l (%sp)+,%a1
 660 080e 2F09      	move.l %a1,-(%sp)
 661 0810 2F08      	move.l %a0,-(%sp)
 662 0812 F21F 5400 	fmove.d (%sp)+,%fp0
 663 0816 F22E 5428 	fsub.d -24(%fp),%fp0
 663      FFE8 
 664 081c F227 7400 	fmove.d %fp0,-(%sp)
 665 0820 205F      	move.l (%sp)+,%a0
 666 0822 225F      	move.l (%sp)+,%a1
 667 0824 2F01      	move.l %d1,-(%sp)
 668 0826 2F00      	move.l %d0,-(%sp)
 669 0828 F21F 5480 	fmove.d (%sp)+,%fp1
 670 082c 2F09      	move.l %a1,-(%sp)
 671 082e 2F08      	move.l %a0,-(%sp)
 672 0830 F21F 5400 	fmove.d (%sp)+,%fp0
 673 0834 F200 00A8 	fsub.x %fp0,%fp1
 674 0838 F227 7480 	fmove.d %fp1,-(%sp)
 675 083c 201F      	move.l (%sp)+,%d0
 676 083e 221F      	move.l (%sp)+,%d1
 677               	.L4:
 678 0840 2F01      	move.l %d1,-(%sp)
 679 0842 2F00      	move.l %d0,-(%sp)
 680 0844 F21F 5400 	fmove.d (%sp)+,%fp0
 681 0848 241F      	move.l (%sp)+,%d2
 682 084a 261F      	move.l (%sp)+,%d3
 683 084c 4E5E      	unlk %fp
 684 084e 4E75      	rts
 686               	.ident"GCC: (GNU) 4.5.1"
 687               	.section.note.GNU-stack,"",@progbits
68K GAS   			page 15


DEFINED SYMBOLS
                            *ABS*:00000000 e_log.c
    {standard input}:7      .rodata:00000000 ln2_hi
    {standard input}:13     .rodata:00000008 ln2_lo
    {standard input}:19     .rodata:00000010 two54
    {standard input}:25     .rodata:00000018 Lg1
    {standard input}:31     .rodata:00000020 Lg2
    {standard input}:37     .rodata:00000028 Lg3
    {standard input}:43     .rodata:00000030 Lg4
    {standard input}:49     .rodata:00000038 Lg5
    {standard input}:55     .rodata:00000040 Lg6
    {standard input}:61     .rodata:00000048 Lg7
    {standard input}:65     .bss:00000000 zero
    {standard input}:70     .text:00000000 __ieee754_log

NO UNDEFINED SYMBOLS
