68K GAS   			page 1


   1               	
   2               	.file"e_pow.c"
   3               	.data
   6               	sccsid:
   7 0000 4028 2329 	.string"@(#)e_pow.c 1.5 04/04/22 SMI"
   7      655F 706F 
   7      772E 6320 
   7      312E 3520 
   7      3034 2F30 
   8               	.section.rodata
   9               	.align2
  12               	bp:
  13 0000 3FF0 0000 	.long1072693248
  14 0004 0000 0000 	.long0
  15 0008 3FF8 0000 	.long1073217536
  16 000c 0000 0000 	.long0
  17               	.align2
  20               	dp_h:
  21 0010 0000 0000 	.long0
  22 0014 0000 0000 	.long0
  23 0018 3FE2 B803 	.long1071822851
  24 001c 4000 0000 	.long1073741824
  25               	.align2
  28               	dp_l:
  29 0020 0000 0000 	.long0
  30 0024 0000 0000 	.long0
  31 0028 3E4C FDEB 	.long1045233131
  32 002c 43CF D006 	.long1137692678
  33               	.align2
  36               	zero:
  37 0030 0000 0000 	.zero8
  37      0000 0000 
  38               	.align2
  41               	one:
  42 0038 3FF0 0000 	.long1072693248
  43 003c 0000 0000 	.long0
  44               	.align2
  47               	two:
  48 0040 4000 0000 	.long1073741824
  49 0044 0000 0000 	.long0
  50               	.align2
  53               	two53:
  54 0048 4340 0000 	.long1128267776
  55 004c 0000 0000 	.long0
  56               	.align2
  59               	huge:
  60 0050 7E37 E43C 	.long2117592124
  61 0054 8800 759C 	.long-2013235812
  62               	.align2
  65               	tiny:
  66 0058 01A5 6E1F 	.long27618847
  67 005c C2F8 F359 	.long-1023872167
  68               	.align2
  71               	L1:
  72 0060 3FE3 3333 	.long1071854387
  73 0064 3333 3303 	.long858993411
  74               	.align2
68K GAS   			page 2


  77               	L2:
  78 0068 3FDB 6DB6 	.long1071345078
  79 006c DB6F ABFF 	.long-613438465
  80               	.align2
  83               	L3:
  84 0070 3FD5 5555 	.long1070945621
  85 0074 518F 264D 	.long1368335949
  86               	.align2
  89               	L4:
  90 0078 3FD1 7460 	.long1070691424
  91 007c A91D 4101 	.long-1457700607
  92               	.align2
  95               	L5:
  96 0080 3FCD 864A 	.long1070433866
  97 0084 93C9 DB65 	.long-1815487643
  98               	.align2
 101               	L6:
 102 0088 3FCA 7E28 	.long1070235176
 103 008c 4A45 4EEF 	.long1246056175
 104               	.align2
 107               	P1:
 108 0090 3FC5 5555 	.long1069897045
 109 0094 5555 553E 	.long1431655742
 110               	.align2
 113               	P2:
 114 0098 BF66 C16C 	.long-1083784852
 115 009c 16BE BD93 	.long381599123
 116               	.align2
 119               	P3:
 120 00a0 3F11 566A 	.long1058100842
 121 00a4 AF25 DE2C 	.long-1356472788
 122               	.align2
 125               	P4:
 126 00a8 BEBB BD41 	.long-1094992575
 127 00ac C5D2 6BF1 	.long-976065551
 128               	.align2
 131               	P5:
 132 00b0 3E66 3769 	.long1046886249
 133 00b4 72BE A4D0 	.long1925096656
 134               	.align2
 137               	lg2:
 138 00b8 3FE6 2E42 	.long1072049730
 139 00bc FEFA 39EF 	.long-17155601
 140               	.align2
 143               	lg2_h:
 144 00c0 3FE6 2E43 	.long1072049731
 145 00c4 0000 0000 	.long0
 146               	.align2
 149               	lg2_l:
 150 00c8 BE20 5C61 	.long-1105175455
 151 00cc 0CA8 6C39 	.long212364345
 152               	.align2
 155               	ovt:
 156 00d0 3C97 1547 	.long1016534343
 157 00d4 652B 82FE 	.long1697350398
 158               	.align2
 161               	cp:
68K GAS   			page 3


 162 00d8 3FEE C709 	.long1072613129
 163 00dc DC3A 03FD 	.long-600177667
 164               	.align2
 167               	cp_h:
 168 00e0 3FEE C709 	.long1072613129
 169 00e4 E000 0000 	.long-536870912
 170               	.align2
 173               	cp_l:
 174 00e8 BE3E 2FE0 	.long-1103220768
 175 00ec 145B 01F5 	.long341508597
 176               	.align2
 179               	ivln2:
 180 00f0 3FF7 1547 	.long1073157447
 181 00f4 652B 82FE 	.long1697350398
 182               	.align2
 185               	ivln2_h:
 186 00f8 3FF7 1547 	.long1073157447
 187 00fc 6000 0000 	.long1610612736
 188               	.align2
 191               	ivln2_l:
 192 0100 3E54 AE0B 	.long1045736971
 193 0104 F85D DF44 	.long-128065724
 194               	.text
 195               	.align2
 196               	.globl__ieee754_pow
 198               	__ieee754_pow:
 199 0000 4E56 FF24 	link.w %fp,#-220
 200 0004 2F03      	move.l %d3,-(%sp)
 201 0006 2F02      	move.l %d2,-(%sp)
 202 0008 203C 0000 	move.l #one,%d0
 202      0000 
 203 000e 2040      	move.l %d0,%a0
 204 0010 2010      	move.l (%a0),%d0
 205 0012 721D      	moveq #29,%d1
 206 0014 E2A0      	asr.l %d1,%d0
 207 0016 2400      	move.l %d0,%d2
 208 0018 0A42 0001 	eor.w #1,%d2
 209 001c 2D42 FFDC 	move.l %d2,-36(%fp)
 210 0020 7001      	moveq #1,%d0
 211 0022 90AE FFDC 	sub.l -36(%fp),%d0
 212 0026 2D40 FFD8 	move.l %d0,-40(%fp)
 213 002a 200E      	move.l %fp,%d0
 214 002c 5080      	addq.l #8,%d0
 215 002e 2040      	move.l %d0,%a0
 216 0030 2D50 FFD4 	move.l (%a0),-44(%fp)
 217 0034 200E      	move.l %fp,%d0
 218 0036 5080      	addq.l #8,%d0
 219 0038 5880      	addq.l #4,%d0
 220 003a 2240      	move.l %d0,%a1
 221 003c 2011      	move.l (%a1),%d0
 222 003e 2D40 FFD0 	move.l %d0,-48(%fp)
 223 0042 7010      	moveq #16,%d0
 224 0044 D08E      	add.l %fp,%d0
 225 0046 2040      	move.l %d0,%a0
 226 0048 2D50 FFCC 	move.l (%a0),-52(%fp)
 227 004c 7010      	moveq #16,%d0
 228 004e D08E      	add.l %fp,%d0
68K GAS   			page 4


 229 0050 5880      	addq.l #4,%d0
 230 0052 2240      	move.l %d0,%a1
 231 0054 2011      	move.l (%a1),%d0
 232 0056 2D40 FFC8 	move.l %d0,-56(%fp)
 233 005a 202E FFD4 	move.l -44(%fp),%d0
 234 005e 0880 001F 	bclr #31,%d0
 235 0062 2D40 FFE0 	move.l %d0,-32(%fp)
 236 0066 222E FFCC 	move.l -52(%fp),%d1
 237 006a 0881 001F 	bclr #31,%d1
 238 006e 2D41 FFC4 	move.l %d1,-60(%fp)
 239 0072 202E FFC4 	move.l -60(%fp),%d0
 240 0076 80AE FFC8 	or.l -56(%fp),%d0
 241 007a 4A80      	tst.l %d0
 242 007c 6610      	jne .L2
 243 007e 2039 0000 	move.l one,%d0
 243      0000 
 244 0084 2239 0000 	move.l one+4,%d1
 244      0000 
 245 008a 6000 1A2A 	jra .L3
 246               	.L2:
 247 008e 0CAE 7FF0 	cmp.l #2146435072,-32(%fp)
 247      0000 FFE0 
 248 0096 6E2A      	jgt .L4
 249 0098 0CAE 7FF0 	cmp.l #2146435072,-32(%fp)
 249      0000 FFE0 
 250 00a0 6606      	jne .L5
 251 00a2 4AAE FFD0 	tst.l -48(%fp)
 252 00a6 661A      	jne .L4
 253               	.L5:
 254 00a8 0CAE 7FF0 	cmp.l #2146435072,-60(%fp)
 254      0000 FFC4 
 255 00b0 6E10      	jgt .L4
 256 00b2 0CAE 7FF0 	cmp.l #2146435072,-60(%fp)
 256      0000 FFC4 
 257 00ba 6636      	jne .L6
 258 00bc 4AAE FFC8 	tst.l -56(%fp)
 259 00c0 6730      	jeq .L6
 260               	.L4:
 261 00c2 206E 0008 	move.l 8(%fp),%a0
 262 00c6 226E 000C 	move.l 12(%fp),%a1
 263 00ca 202E 0010 	move.l 16(%fp),%d0
 264 00ce 222E 0014 	move.l 20(%fp),%d1
 265 00d2 2F09      	move.l %a1,-(%sp)
 266 00d4 2F08      	move.l %a0,-(%sp)
 267 00d6 F21F 5400 	fmove.d (%sp)+,%fp0
 268 00da 2F01      	move.l %d1,-(%sp)
 269 00dc 2F00      	move.l %d0,-(%sp)
 270 00de F21F 5480 	fmove.d (%sp)+,%fp1
 271 00e2 F200 0422 	fadd.x %fp1,%fp0
 272 00e6 F227 7400 	fmove.d %fp0,-(%sp)
 273 00ea 201F      	move.l (%sp)+,%d0
 274 00ec 221F      	move.l (%sp)+,%d1
 275 00ee 6000 19C6 	jra .L3
 276               	.L6:
 277 00f2 42AE FFE8 	clr.l -24(%fp)
 278 00f6 4AAE FFD4 	tst.l -44(%fp)
 279 00fa 6C00 00B6 	jge .L7
68K GAS   			page 5


 280 00fe 0CAE 433F 	cmp.l #1128267775,-60(%fp)
 280      FFFF FFC4 
 281 0106 6F0A      	jle .L8
 282 0108 7002      	moveq #2,%d0
 283 010a 2D40 FFE8 	move.l %d0,-24(%fp)
 284 010e 6000 00A2 	jra .L7
 285               	.L8:
 286 0112 0CAE 3FEF 	cmp.l #1072693247,-60(%fp)
 286      FFFF FFC4 
 287 011a 6F00 0096 	jle .L7
 288 011e 202E FFC4 	move.l -60(%fp),%d0
 289 0122 7214      	moveq #20,%d1
 290 0124 E2A0      	asr.l %d1,%d0
 291 0126 2400      	move.l %d0,%d2
 292 0128 0682 FFFF 	add.l #-1023,%d2
 292      FC01 
 293 012e 2D42 FFEC 	move.l %d2,-20(%fp)
 294 0132 7014      	moveq #20,%d0
 295 0134 B0AE FFEC 	cmp.l -20(%fp),%d0
 296 0138 6C3A      	jge .L9
 297 013a 7034      	moveq #52,%d0
 298 013c 90AE FFEC 	sub.l -20(%fp),%d0
 299 0140 222E FFC8 	move.l -56(%fp),%d1
 300 0144 2401      	move.l %d1,%d2
 301 0146 E0AA      	lsr.l %d0,%d2
 302 0148 2002      	move.l %d2,%d0
 303 014a 2D40 FFC0 	move.l %d0,-64(%fp)
 304 014e 7034      	moveq #52,%d0
 305 0150 90AE FFEC 	sub.l -20(%fp),%d0
 306 0154 222E FFC0 	move.l -64(%fp),%d1
 307 0158 2401      	move.l %d1,%d2
 308 015a E1AA      	lsl.l %d0,%d2
 309 015c 2002      	move.l %d2,%d0
 310 015e B0AE FFC8 	cmp.l -56(%fp),%d0
 311 0162 664E      	jne .L7
 312 0164 7001      	moveq #1,%d0
 313 0166 C0AE FFC0 	and.l -64(%fp),%d0
 314 016a 7202      	moveq #2,%d1
 315 016c 9280      	sub.l %d0,%d1
 316 016e 2D41 FFE8 	move.l %d1,-24(%fp)
 317 0172 603E      	jra .L7
 318               	.L9:
 319 0174 4AAE FFC8 	tst.l -56(%fp)
 320 0178 6638      	jne .L7
 321 017a 7014      	moveq #20,%d0
 322 017c 90AE FFEC 	sub.l -20(%fp),%d0
 323 0180 222E FFC4 	move.l -60(%fp),%d1
 324 0184 2401      	move.l %d1,%d2
 325 0186 E0A2      	asr.l %d0,%d2
 326 0188 2002      	move.l %d2,%d0
 327 018a 2D40 FFC0 	move.l %d0,-64(%fp)
 328 018e 7014      	moveq #20,%d0
 329 0190 90AE FFEC 	sub.l -20(%fp),%d0
 330 0194 222E FFC0 	move.l -64(%fp),%d1
 331 0198 2401      	move.l %d1,%d2
 332 019a E1AA      	lsl.l %d0,%d2
 333 019c 2002      	move.l %d2,%d0
68K GAS   			page 6


 334 019e B0AE FFC4 	cmp.l -60(%fp),%d0
 335 01a2 660E      	jne .L7
 336 01a4 7001      	moveq #1,%d0
 337 01a6 C0AE FFC0 	and.l -64(%fp),%d0
 338 01aa 7202      	moveq #2,%d1
 339 01ac 9280      	sub.l %d0,%d1
 340 01ae 2D41 FFE8 	move.l %d1,-24(%fp)
 341               	.L7:
 342 01b2 4AAE FFC8 	tst.l -56(%fp)
 343 01b6 6600 0158 	jne .L10
 344 01ba 0CAE 7FF0 	cmp.l #2146435072,-60(%fp)
 344      0000 FFC4 
 345 01c2 6600 0092 	jne .L11
 346 01c6 202E FFE0 	move.l -32(%fp),%d0
 347 01ca 0680 C010 	add.l #-1072693248,%d0
 347      0000 
 348 01d0 80AE FFD0 	or.l -48(%fp),%d0
 349 01d4 4A80      	tst.l %d0
 350 01d6 6630      	jne .L12
 351 01d8 202E 0010 	move.l 16(%fp),%d0
 352 01dc 222E 0014 	move.l 20(%fp),%d1
 353 01e0 206E 0010 	move.l 16(%fp),%a0
 354 01e4 226E 0014 	move.l 20(%fp),%a1
 355 01e8 2F01      	move.l %d1,-(%sp)
 356 01ea 2F00      	move.l %d0,-(%sp)
 357 01ec F21F 5400 	fmove.d (%sp)+,%fp0
 358 01f0 2F09      	move.l %a1,-(%sp)
 359 01f2 2F08      	move.l %a0,-(%sp)
 360 01f4 F21F 5480 	fmove.d (%sp)+,%fp1
 361 01f8 F200 0428 	fsub.x %fp1,%fp0
 362 01fc F227 7400 	fmove.d %fp0,-(%sp)
 363 0200 201F      	move.l (%sp)+,%d0
 364 0202 221F      	move.l (%sp)+,%d1
 365 0204 6000 18B0 	jra .L3
 366               	.L12:
 367 0208 0CAE 3FEF 	cmp.l #1072693247,-32(%fp)
 367      FFFF FFE0 
 368 0210 6F20      	jle .L13
 369 0212 4AAE FFCC 	tst.l -52(%fp)
 370 0216 6D0A      	jlt .L14
 371 0218 202E 0010 	move.l 16(%fp),%d0
 372 021c 222E 0014 	move.l 20(%fp),%d1
 373 0220 600C      	jra .L15
 374               	.L14:
 375 0222 2039 0000 	move.l zero,%d0
 375      0000 
 376 0228 2239 0000 	move.l zero+4,%d1
 376      0000 
 377               	.L15:
 378 022e 6000 1886 	jra .L3
 379               	.L13:
 380 0232 4AAE FFCC 	tst.l -52(%fp)
 381 0236 6C0E      	jge .L16
 382 0238 202E 0010 	move.l 16(%fp),%d0
 383 023c 222E 0014 	move.l 20(%fp),%d1
 384 0240 0840 001F 	bchg #31,%d0
 385 0244 600C      	jra .L17
68K GAS   			page 7


 386               	.L16:
 387 0246 2039 0000 	move.l zero,%d0
 387      0000 
 388 024c 2239 0000 	move.l zero+4,%d1
 388      0000 
 389               	.L17:
 390 0252 6000 1862 	jra .L3
 391               	.L11:
 392 0256 0CAE 3FF0 	cmp.l #1072693248,-60(%fp)
 392      0000 FFC4 
 393 025e 6646      	jne .L18
 394 0260 4AAE FFCC 	tst.l -52(%fp)
 395 0264 6C34      	jge .L19
 396 0266 2039 0000 	move.l one,%d0
 396      0000 
 397 026c 2239 0000 	move.l one+4,%d1
 397      0000 
 398 0272 206E 0008 	move.l 8(%fp),%a0
 399 0276 226E 000C 	move.l 12(%fp),%a1
 400 027a 2F01      	move.l %d1,-(%sp)
 401 027c 2F00      	move.l %d0,-(%sp)
 402 027e F21F 5400 	fmove.d (%sp)+,%fp0
 403 0282 2F09      	move.l %a1,-(%sp)
 404 0284 2F08      	move.l %a0,-(%sp)
 405 0286 F21F 5480 	fmove.d (%sp)+,%fp1
 406 028a F200 0420 	fdiv.x %fp1,%fp0
 407 028e F227 7400 	fmove.d %fp0,-(%sp)
 408 0292 201F      	move.l (%sp)+,%d0
 409 0294 221F      	move.l (%sp)+,%d1
 410 0296 6000 181E 	jra .L3
 411               	.L19:
 412 029a 202E 0008 	move.l 8(%fp),%d0
 413 029e 222E 000C 	move.l 12(%fp),%d1
 414 02a2 6000 1812 	jra .L3
 415               	.L18:
 416 02a6 0CAE 4000 	cmp.l #1073741824,-52(%fp)
 416      0000 FFCC 
 417 02ae 6630      	jne .L20
 418 02b0 206E 0008 	move.l 8(%fp),%a0
 419 02b4 226E 000C 	move.l 12(%fp),%a1
 420 02b8 202E 0008 	move.l 8(%fp),%d0
 421 02bc 222E 000C 	move.l 12(%fp),%d1
 422 02c0 2F09      	move.l %a1,-(%sp)
 423 02c2 2F08      	move.l %a0,-(%sp)
 424 02c4 F21F 5400 	fmove.d (%sp)+,%fp0
 425 02c8 2F01      	move.l %d1,-(%sp)
 426 02ca 2F00      	move.l %d0,-(%sp)
 427 02cc F21F 5480 	fmove.d (%sp)+,%fp1
 428 02d0 F200 0423 	fmul.x %fp1,%fp0
 429 02d4 F227 7400 	fmove.d %fp0,-(%sp)
 430 02d8 201F      	move.l (%sp)+,%d0
 431 02da 221F      	move.l (%sp)+,%d1
 432 02dc 6000 17D8 	jra .L3
 433               	.L20:
 434 02e0 0CAE 3FE0 	cmp.l #1071644672,-52(%fp)
 434      0000 FFCC 
 435 02e8 6626      	jne .L10
68K GAS   			page 8


 436 02ea 4AAE FFD4 	tst.l -44(%fp)
 437 02ee 6D20      	jlt .L10
 438 02f0 202E 0008 	move.l 8(%fp),%d0
 439 02f4 222E 000C 	move.l 12(%fp),%d1
 440 02f8 2F01      	move.l %d1,-(%sp)
 441 02fa 2F00      	move.l %d0,-(%sp)
 442 02fc 4EB9 0000 	jsr sqrt
 442      0000 
 443 0302 508F      	addq.l #8,%sp
 444 0304 F227 7400 	fmove.d %fp0,-(%sp)
 445 0308 201F      	move.l (%sp)+,%d0
 446 030a 221F      	move.l (%sp)+,%d1
 447 030c 6000 17A8 	jra .L3
 448               	.L10:
 449 0310 202E 0008 	move.l 8(%fp),%d0
 450 0314 222E 000C 	move.l 12(%fp),%d1
 451 0318 2F01      	move.l %d1,-(%sp)
 452 031a 2F00      	move.l %d0,-(%sp)
 453 031c 4EB9 0000 	jsr fabs
 453      0000 
 454 0322 508F      	addq.l #8,%sp
 455 0324 F227 7400 	fmove.d %fp0,-(%sp)
 456 0328 201F      	move.l (%sp)+,%d0
 457 032a 221F      	move.l (%sp)+,%d1
 458 032c 2D40 FF54 	move.l %d0,-172(%fp)
 459 0330 2D41 FF58 	move.l %d1,-168(%fp)
 460 0334 4AAE FFD0 	tst.l -48(%fp)
 461 0338 6600 012C 	jne .L21
 462 033c 0CAE 7FF0 	cmp.l #2146435072,-32(%fp)
 462      0000 FFE0 
 463 0344 6712      	jeq .L22
 464 0346 4AAE FFE0 	tst.l -32(%fp)
 465 034a 670C      	jeq .L22
 466 034c 0CAE 3FF0 	cmp.l #1072693248,-32(%fp)
 466      0000 FFE0 
 467 0354 6600 0110 	jne .L21
 468               	.L22:
 469 0358 202E FF54 	move.l -172(%fp),%d0
 470 035c 222E FF58 	move.l -168(%fp),%d1
 471 0360 2D40 FF5C 	move.l %d0,-164(%fp)
 472 0364 2D41 FF60 	move.l %d1,-160(%fp)
 473 0368 4AAE FFCC 	tst.l -52(%fp)
 474 036c 6C38      	jge .L23
 475 036e 2039 0000 	move.l one,%d0
 475      0000 
 476 0374 2239 0000 	move.l one+4,%d1
 476      0000 
 477 037a 206E FF5C 	move.l -164(%fp),%a0
 478 037e 226E FF60 	move.l -160(%fp),%a1
 479 0382 2F01      	move.l %d1,-(%sp)
 480 0384 2F00      	move.l %d0,-(%sp)
 481 0386 F21F 5400 	fmove.d (%sp)+,%fp0
 482 038a 2F09      	move.l %a1,-(%sp)
 483 038c 2F08      	move.l %a0,-(%sp)
 484 038e F21F 5480 	fmove.d (%sp)+,%fp1
 485 0392 F200 0420 	fdiv.x %fp1,%fp0
 486 0396 F227 7400 	fmove.d %fp0,-(%sp)
68K GAS   			page 9


 487 039a 201F      	move.l (%sp)+,%d0
 488 039c 221F      	move.l (%sp)+,%d1
 489 039e 2D40 FF5C 	move.l %d0,-164(%fp)
 490 03a2 2D41 FF60 	move.l %d1,-160(%fp)
 491               	.L23:
 492 03a6 4AAE FFD4 	tst.l -44(%fp)
 493 03aa 6C00 00AE 	jge .L24
 494 03ae 202E FFE0 	move.l -32(%fp),%d0
 495 03b2 0680 C010 	add.l #-1072693248,%d0
 495      0000 
 496 03b8 80AE FFE8 	or.l -24(%fp),%d0
 497 03bc 4A80      	tst.l %d0
 498 03be 667E      	jne .L25
 499 03c0 202E FF5C 	move.l -164(%fp),%d0
 500 03c4 222E FF60 	move.l -160(%fp),%d1
 501 03c8 206E FF5C 	move.l -164(%fp),%a0
 502 03cc 226E FF60 	move.l -160(%fp),%a1
 503 03d0 2F01      	move.l %d1,-(%sp)
 504 03d2 2F00      	move.l %d0,-(%sp)
 505 03d4 F21F 5400 	fmove.d (%sp)+,%fp0
 506 03d8 2F09      	move.l %a1,-(%sp)
 507 03da 2F08      	move.l %a0,-(%sp)
 508 03dc F21F 5480 	fmove.d (%sp)+,%fp1
 509 03e0 F200 0428 	fsub.x %fp1,%fp0
 510 03e4 F227 7400 	fmove.d %fp0,-(%sp)
 511 03e8 201F      	move.l (%sp)+,%d0
 512 03ea 221F      	move.l (%sp)+,%d1
 513 03ec 206E FF5C 	move.l -164(%fp),%a0
 514 03f0 226E FF60 	move.l -160(%fp),%a1
 515 03f4 242E FF5C 	move.l -164(%fp),%d2
 516 03f8 262E FF60 	move.l -160(%fp),%d3
 517 03fc 2F09      	move.l %a1,-(%sp)
 518 03fe 2F08      	move.l %a0,-(%sp)
 519 0400 F21F 5400 	fmove.d (%sp)+,%fp0
 520 0404 2F03      	move.l %d3,-(%sp)
 521 0406 2F02      	move.l %d2,-(%sp)
 522 0408 F21F 5480 	fmove.d (%sp)+,%fp1
 523 040c F200 0428 	fsub.x %fp1,%fp0
 524 0410 F227 7400 	fmove.d %fp0,-(%sp)
 525 0414 205F      	move.l (%sp)+,%a0
 526 0416 225F      	move.l (%sp)+,%a1
 527 0418 2F01      	move.l %d1,-(%sp)
 528 041a 2F00      	move.l %d0,-(%sp)
 529 041c F21F 5400 	fmove.d (%sp)+,%fp0
 530 0420 2F09      	move.l %a1,-(%sp)
 531 0422 2F08      	move.l %a0,-(%sp)
 532 0424 F21F 5480 	fmove.d (%sp)+,%fp1
 533 0428 F200 0420 	fdiv.x %fp1,%fp0
 534 042c F227 7400 	fmove.d %fp0,-(%sp)
 535 0430 201F      	move.l (%sp)+,%d0
 536 0432 221F      	move.l (%sp)+,%d1
 537 0434 2D40 FF5C 	move.l %d0,-164(%fp)
 538 0438 2D41 FF60 	move.l %d1,-160(%fp)
 539 043c 601C      	jra .L24
 540               	.L25:
 541 043e 7001      	moveq #1,%d0
 542 0440 B0AE FFE8 	cmp.l -24(%fp),%d0
68K GAS   			page 10


 543 0444 6614      	jne .L24
 544 0446 202E FF5C 	move.l -164(%fp),%d0
 545 044a 222E FF60 	move.l -160(%fp),%d1
 546 044e 0840 001F 	bchg #31,%d0
 547 0452 2D40 FF5C 	move.l %d0,-164(%fp)
 548 0456 2D41 FF60 	move.l %d1,-160(%fp)
 549               	.L24:
 550 045a 202E FF5C 	move.l -164(%fp),%d0
 551 045e 222E FF60 	move.l -160(%fp),%d1
 552 0462 6000 1652 	jra .L3
 553               	.L21:
 554 0466 202E FFD4 	move.l -44(%fp),%d0
 555 046a D080      	add.l %d0,%d0
 556 046c 9180      	subx.l %d0,%d0
 557 046e 2200      	move.l %d0,%d1
 558 0470 5281      	addq.l #1,%d1
 559 0472 2D41 FFE4 	move.l %d1,-28(%fp)
 560 0476 202E FFE4 	move.l -28(%fp),%d0
 561 047a 80AE FFE8 	or.l -24(%fp),%d0
 562 047e 4A80      	tst.l %d0
 563 0480 6678      	jne .L26
 564 0482 202E 0008 	move.l 8(%fp),%d0
 565 0486 222E 000C 	move.l 12(%fp),%d1
 566 048a 206E 0008 	move.l 8(%fp),%a0
 567 048e 226E 000C 	move.l 12(%fp),%a1
 568 0492 2F01      	move.l %d1,-(%sp)
 569 0494 2F00      	move.l %d0,-(%sp)
 570 0496 F21F 5400 	fmove.d (%sp)+,%fp0
 571 049a 2F09      	move.l %a1,-(%sp)
 572 049c 2F08      	move.l %a0,-(%sp)
 573 049e F21F 5480 	fmove.d (%sp)+,%fp1
 574 04a2 F200 0428 	fsub.x %fp1,%fp0
 575 04a6 F227 7400 	fmove.d %fp0,-(%sp)
 576 04aa 201F      	move.l (%sp)+,%d0
 577 04ac 221F      	move.l (%sp)+,%d1
 578 04ae 206E 0008 	move.l 8(%fp),%a0
 579 04b2 226E 000C 	move.l 12(%fp),%a1
 580 04b6 242E 0008 	move.l 8(%fp),%d2
 581 04ba 262E 000C 	move.l 12(%fp),%d3
 582 04be 2F09      	move.l %a1,-(%sp)
 583 04c0 2F08      	move.l %a0,-(%sp)
 584 04c2 F21F 5400 	fmove.d (%sp)+,%fp0
 585 04c6 2F03      	move.l %d3,-(%sp)
 586 04c8 2F02      	move.l %d2,-(%sp)
 587 04ca F21F 5480 	fmove.d (%sp)+,%fp1
 588 04ce F200 0428 	fsub.x %fp1,%fp0
 589 04d2 F227 7400 	fmove.d %fp0,-(%sp)
 590 04d6 205F      	move.l (%sp)+,%a0
 591 04d8 225F      	move.l (%sp)+,%a1
 592 04da 2F01      	move.l %d1,-(%sp)
 593 04dc 2F00      	move.l %d0,-(%sp)
 594 04de F21F 5400 	fmove.d (%sp)+,%fp0
 595 04e2 2F09      	move.l %a1,-(%sp)
 596 04e4 2F08      	move.l %a0,-(%sp)
 597 04e6 F21F 5480 	fmove.d (%sp)+,%fp1
 598 04ea F200 0420 	fdiv.x %fp1,%fp0
 599 04ee F227 7400 	fmove.d %fp0,-(%sp)
68K GAS   			page 11


 600 04f2 201F      	move.l (%sp)+,%d0
 601 04f4 221F      	move.l (%sp)+,%d1
 602 04f6 6000 15BE 	jra .L3
 603               	.L26:
 604 04fa 2D79 0000 	move.l one,-16(%fp)
 604      0000 FFF0 
 605 0502 2D79 0000 	move.l one+4,-12(%fp)
 605      0000 FFF4 
 606 050a 202E FFE8 	move.l -24(%fp),%d0
 607 050e 5380      	subq.l #1,%d0
 608 0510 80AE FFE4 	or.l -28(%fp),%d0
 609 0514 4A80      	tst.l %d0
 610 0516 661E      	jne .L27
 611 0518 2039 0000 	move.l one,%d0
 611      0000 
 612 051e 2239 0000 	move.l one+4,%d1
 612      0000 
 613 0524 2F01      	move.l %d1,-(%sp)
 614 0526 2F00      	move.l %d0,-(%sp)
 615 0528 F21F 5400 	fmove.d (%sp)+,%fp0
 616 052c F200 001A 	fneg.x %fp0,%fp0
 617 0530 F22E 7400 	fmove.d %fp0,-16(%fp)
 617      FFF0 
 618               	.L27:
 619 0536 0CAE 41E0 	cmp.l #1105199104,-60(%fp)
 619      0000 FFC4 
 620 053e 6F00 0466 	jle .L28
 621 0542 0CAE 43F0 	cmp.l #1139802112,-60(%fp)
 621      0000 FFC4 
 622 054a 6F00 00FE 	jle .L29
 623 054e 0CAE 3FEF 	cmp.l #1072693247,-32(%fp)
 623      FFFF FFE0 
 624 0556 6E74      	jgt .L30
 625 0558 4AAE FFCC 	tst.l -52(%fp)
 626 055c 6C36      	jge .L31
 627 055e 2079 0000 	move.l huge,%a0
 627      0000 
 628 0564 2279 0000 	move.l huge+4,%a1
 628      0000 
 629 056a 2039 0000 	move.l huge,%d0
 629      0000 
 630 0570 2239 0000 	move.l huge+4,%d1
 630      0000 
 631 0576 2F09      	move.l %a1,-(%sp)
 632 0578 2F08      	move.l %a0,-(%sp)
 633 057a F21F 5480 	fmove.d (%sp)+,%fp1
 634 057e 2F01      	move.l %d1,-(%sp)
 635 0580 2F00      	move.l %d0,-(%sp)
 636 0582 F21F 5400 	fmove.d (%sp)+,%fp0
 637 0586 F200 00A3 	fmul.x %fp0,%fp1
 638 058a F227 7480 	fmove.d %fp1,-(%sp)
 639 058e 201F      	move.l (%sp)+,%d0
 640 0590 221F      	move.l (%sp)+,%d1
 641 0592 6034      	jra .L32
 642               	.L31:
 643 0594 2079 0000 	move.l tiny,%a0
 643      0000 
68K GAS   			page 12


 644 059a 2279 0000 	move.l tiny+4,%a1
 644      0000 
 645 05a0 2039 0000 	move.l tiny,%d0
 645      0000 
 646 05a6 2239 0000 	move.l tiny+4,%d1
 646      0000 
 647 05ac 2F09      	move.l %a1,-(%sp)
 648 05ae 2F08      	move.l %a0,-(%sp)
 649 05b0 F21F 5480 	fmove.d (%sp)+,%fp1
 650 05b4 2F01      	move.l %d1,-(%sp)
 651 05b6 2F00      	move.l %d0,-(%sp)
 652 05b8 F21F 5400 	fmove.d (%sp)+,%fp0
 653 05bc F200 00A3 	fmul.x %fp0,%fp1
 654 05c0 F227 7480 	fmove.d %fp1,-(%sp)
 655 05c4 201F      	move.l (%sp)+,%d0
 656 05c6 221F      	move.l (%sp)+,%d1
 657               	.L32:
 658 05c8 6000 14EC 	jra .L3
 659               	.L30:
 660 05cc 0CAE 3FEF 	cmp.l #1072693247,-32(%fp)
 660      FFFF FFE0 
 661 05d4 6F74      	jle .L29
 662 05d6 4AAE FFCC 	tst.l -52(%fp)
 663 05da 6F36      	jle .L33
 664 05dc 2079 0000 	move.l huge,%a0
 664      0000 
 665 05e2 2279 0000 	move.l huge+4,%a1
 665      0000 
 666 05e8 2039 0000 	move.l huge,%d0
 666      0000 
 667 05ee 2239 0000 	move.l huge+4,%d1
 667      0000 
 668 05f4 2F09      	move.l %a1,-(%sp)
 669 05f6 2F08      	move.l %a0,-(%sp)
 670 05f8 F21F 5480 	fmove.d (%sp)+,%fp1
 671 05fc 2F01      	move.l %d1,-(%sp)
 672 05fe 2F00      	move.l %d0,-(%sp)
 673 0600 F21F 5400 	fmove.d (%sp)+,%fp0
 674 0604 F200 00A3 	fmul.x %fp0,%fp1
 675 0608 F227 7480 	fmove.d %fp1,-(%sp)
 676 060c 201F      	move.l (%sp)+,%d0
 677 060e 221F      	move.l (%sp)+,%d1
 678 0610 6034      	jra .L34
 679               	.L33:
 680 0612 2079 0000 	move.l tiny,%a0
 680      0000 
 681 0618 2279 0000 	move.l tiny+4,%a1
 681      0000 
 682 061e 2039 0000 	move.l tiny,%d0
 682      0000 
 683 0624 2239 0000 	move.l tiny+4,%d1
 683      0000 
 684 062a 2F09      	move.l %a1,-(%sp)
 685 062c 2F08      	move.l %a0,-(%sp)
 686 062e F21F 5480 	fmove.d (%sp)+,%fp1
 687 0632 2F01      	move.l %d1,-(%sp)
 688 0634 2F00      	move.l %d0,-(%sp)
68K GAS   			page 13


 689 0636 F21F 5400 	fmove.d (%sp)+,%fp0
 690 063a F200 00A3 	fmul.x %fp0,%fp1
 691 063e F227 7480 	fmove.d %fp1,-(%sp)
 692 0642 201F      	move.l (%sp)+,%d0
 693 0644 221F      	move.l (%sp)+,%d1
 694               	.L34:
 695 0646 6000 146E 	jra .L3
 696               	.L29:
 697 064a 0CAE 3FEF 	cmp.l #1072693246,-32(%fp)
 697      FFFE FFE0 
 698 0652 6E00 00A2 	jgt .L35
 699 0656 4AAE FFCC 	tst.l -52(%fp)
 700 065a 6C4C      	jge .L36
 701 065c 2039 0000 	move.l huge,%d0
 701      0000 
 702 0662 2239 0000 	move.l huge+4,%d1
 702      0000 
 703 0668 2F01      	move.l %d1,-(%sp)
 704 066a 2F00      	move.l %d0,-(%sp)
 705 066c F21F 5480 	fmove.d (%sp)+,%fp1
 706 0670 F22E 54A3 	fmul.d -16(%fp),%fp1
 706      FFF0 
 707 0676 F227 7480 	fmove.d %fp1,-(%sp)
 708 067a 201F      	move.l (%sp)+,%d0
 709 067c 221F      	move.l (%sp)+,%d1
 710 067e 2079 0000 	move.l huge,%a0
 710      0000 
 711 0684 2279 0000 	move.l huge+4,%a1
 711      0000 
 712 068a 2F01      	move.l %d1,-(%sp)
 713 068c 2F00      	move.l %d0,-(%sp)
 714 068e F21F 5400 	fmove.d (%sp)+,%fp0
 715 0692 2F09      	move.l %a1,-(%sp)
 716 0694 2F08      	move.l %a0,-(%sp)
 717 0696 F21F 5480 	fmove.d (%sp)+,%fp1
 718 069a F200 0423 	fmul.x %fp1,%fp0
 719 069e F227 7400 	fmove.d %fp0,-(%sp)
 720 06a2 201F      	move.l (%sp)+,%d0
 721 06a4 221F      	move.l (%sp)+,%d1
 722 06a6 604A      	jra .L37
 723               	.L36:
 724 06a8 2039 0000 	move.l tiny,%d0
 724      0000 
 725 06ae 2239 0000 	move.l tiny+4,%d1
 725      0000 
 726 06b4 2F01      	move.l %d1,-(%sp)
 727 06b6 2F00      	move.l %d0,-(%sp)
 728 06b8 F21F 5400 	fmove.d (%sp)+,%fp0
 729 06bc F22E 5423 	fmul.d -16(%fp),%fp0
 729      FFF0 
 730 06c2 F227 7400 	fmove.d %fp0,-(%sp)
 731 06c6 201F      	move.l (%sp)+,%d0
 732 06c8 221F      	move.l (%sp)+,%d1
 733 06ca 2079 0000 	move.l tiny,%a0
 733      0000 
 734 06d0 2279 0000 	move.l tiny+4,%a1
 734      0000 
68K GAS   			page 14


 735 06d6 2F01      	move.l %d1,-(%sp)
 736 06d8 2F00      	move.l %d0,-(%sp)
 737 06da F21F 5480 	fmove.d (%sp)+,%fp1
 738 06de 2F09      	move.l %a1,-(%sp)
 739 06e0 2F08      	move.l %a0,-(%sp)
 740 06e2 F21F 5400 	fmove.d (%sp)+,%fp0
 741 06e6 F200 00A3 	fmul.x %fp0,%fp1
 742 06ea F227 7480 	fmove.d %fp1,-(%sp)
 743 06ee 201F      	move.l (%sp)+,%d0
 744 06f0 221F      	move.l (%sp)+,%d1
 745               	.L37:
 746 06f2 6000 13C2 	jra .L3
 747               	.L35:
 748 06f6 0CAE 3FF0 	cmp.l #1072693248,-32(%fp)
 748      0000 FFE0 
 749 06fe 6F00 00A2 	jle .L38
 750 0702 4AAE FFCC 	tst.l -52(%fp)
 751 0706 6F4C      	jle .L39
 752 0708 2039 0000 	move.l huge,%d0
 752      0000 
 753 070e 2239 0000 	move.l huge+4,%d1
 753      0000 
 754 0714 2F01      	move.l %d1,-(%sp)
 755 0716 2F00      	move.l %d0,-(%sp)
 756 0718 F21F 5480 	fmove.d (%sp)+,%fp1
 757 071c F22E 54A3 	fmul.d -16(%fp),%fp1
 757      FFF0 
 758 0722 F227 7480 	fmove.d %fp1,-(%sp)
 759 0726 201F      	move.l (%sp)+,%d0
 760 0728 221F      	move.l (%sp)+,%d1
 761 072a 2079 0000 	move.l huge,%a0
 761      0000 
 762 0730 2279 0000 	move.l huge+4,%a1
 762      0000 
 763 0736 2F01      	move.l %d1,-(%sp)
 764 0738 2F00      	move.l %d0,-(%sp)
 765 073a F21F 5400 	fmove.d (%sp)+,%fp0
 766 073e 2F09      	move.l %a1,-(%sp)
 767 0740 2F08      	move.l %a0,-(%sp)
 768 0742 F21F 5480 	fmove.d (%sp)+,%fp1
 769 0746 F200 0423 	fmul.x %fp1,%fp0
 770 074a F227 7400 	fmove.d %fp0,-(%sp)
 771 074e 201F      	move.l (%sp)+,%d0
 772 0750 221F      	move.l (%sp)+,%d1
 773 0752 604A      	jra .L40
 774               	.L39:
 775 0754 2039 0000 	move.l tiny,%d0
 775      0000 
 776 075a 2239 0000 	move.l tiny+4,%d1
 776      0000 
 777 0760 2F01      	move.l %d1,-(%sp)
 778 0762 2F00      	move.l %d0,-(%sp)
 779 0764 F21F 5400 	fmove.d (%sp)+,%fp0
 780 0768 F22E 5423 	fmul.d -16(%fp),%fp0
 780      FFF0 
 781 076e F227 7400 	fmove.d %fp0,-(%sp)
 782 0772 201F      	move.l (%sp)+,%d0
68K GAS   			page 15


 783 0774 221F      	move.l (%sp)+,%d1
 784 0776 2079 0000 	move.l tiny,%a0
 784      0000 
 785 077c 2279 0000 	move.l tiny+4,%a1
 785      0000 
 786 0782 2F01      	move.l %d1,-(%sp)
 787 0784 2F00      	move.l %d0,-(%sp)
 788 0786 F21F 5480 	fmove.d (%sp)+,%fp1
 789 078a 2F09      	move.l %a1,-(%sp)
 790 078c 2F08      	move.l %a0,-(%sp)
 791 078e F21F 5400 	fmove.d (%sp)+,%fp0
 792 0792 F200 00A3 	fmul.x %fp0,%fp1
 793 0796 F227 7480 	fmove.d %fp1,-(%sp)
 794 079a 201F      	move.l (%sp)+,%d0
 795 079c 221F      	move.l (%sp)+,%d1
 796               	.L40:
 797 079e 6000 1316 	jra .L3
 798               	.L38:
 799 07a2 202E FF54 	move.l -172(%fp),%d0
 800 07a6 222E FF58 	move.l -168(%fp),%d1
 801 07aa 2079 0000 	move.l one,%a0
 801      0000 
 802 07b0 2279 0000 	move.l one+4,%a1
 802      0000 
 803 07b6 2F01      	move.l %d1,-(%sp)
 804 07b8 2F00      	move.l %d0,-(%sp)
 805 07ba F21F 5480 	fmove.d (%sp)+,%fp1
 806 07be 2F09      	move.l %a1,-(%sp)
 807 07c0 2F08      	move.l %a0,-(%sp)
 808 07c2 F21F 5400 	fmove.d (%sp)+,%fp0
 809 07c6 F200 00A8 	fsub.x %fp0,%fp1
 810 07ca F227 7480 	fmove.d %fp1,-(%sp)
 811 07ce 201F      	move.l (%sp)+,%d0
 812 07d0 221F      	move.l (%sp)+,%d1
 813 07d2 2D40 FF34 	move.l %d0,-204(%fp)
 814 07d6 2D41 FF38 	move.l %d1,-200(%fp)
 815 07da 206E FF34 	move.l -204(%fp),%a0
 816 07de 226E FF38 	move.l -200(%fp),%a1
 817 07e2 202E FF34 	move.l -204(%fp),%d0
 818 07e6 222E FF38 	move.l -200(%fp),%d1
 819 07ea 2F09      	move.l %a1,-(%sp)
 820 07ec 2F08      	move.l %a0,-(%sp)
 821 07ee F21F 5480 	fmove.d (%sp)+,%fp1
 822 07f2 2F01      	move.l %d1,-(%sp)
 823 07f4 2F00      	move.l %d0,-(%sp)
 824 07f6 F21F 5400 	fmove.d (%sp)+,%fp0
 825 07fa F200 00A3 	fmul.x %fp0,%fp1
 826 07fe F227 7480 	fmove.d %fp1,-(%sp)
 827 0802 205F      	move.l (%sp)+,%a0
 828 0804 225F      	move.l (%sp)+,%a1
 829 0806 202E FF34 	move.l -204(%fp),%d0
 830 080a 222E FF38 	move.l -200(%fp),%d1
 831 080e 2F01      	move.l %d1,-(%sp)
 832 0810 2F00      	move.l %d0,-(%sp)
 833 0812 F21F 5480 	fmove.d (%sp)+,%fp1
 834 0816 F23C 54A3 	fmul.d #0x3fd0000000000000,%fp1
 834      3FD0 0000 
68K GAS   			page 16


 834      0000 0000 
 835 0822 F227 7480 	fmove.d %fp1,-(%sp)
 836 0826 201F      	move.l (%sp)+,%d0
 837 0828 221F      	move.l (%sp)+,%d1
 838 082a F23C 5400 	fmove.d #0x3fd5555555555555,%fp0
 838      3FD5 5555 
 838      5555 5555 
 839 0836 2F01      	move.l %d1,-(%sp)
 840 0838 2F00      	move.l %d0,-(%sp)
 841 083a F21F 5480 	fmove.d (%sp)+,%fp1
 842 083e F200 0428 	fsub.x %fp1,%fp0
 843 0842 F227 7400 	fmove.d %fp0,-(%sp)
 844 0846 201F      	move.l (%sp)+,%d0
 845 0848 221F      	move.l (%sp)+,%d1
 846 084a 242E FF34 	move.l -204(%fp),%d2
 847 084e 262E FF38 	move.l -200(%fp),%d3
 848 0852 2F01      	move.l %d1,-(%sp)
 849 0854 2F00      	move.l %d0,-(%sp)
 850 0856 F21F 5400 	fmove.d (%sp)+,%fp0
 851 085a 2F03      	move.l %d3,-(%sp)
 852 085c 2F02      	move.l %d2,-(%sp)
 853 085e F21F 5480 	fmove.d (%sp)+,%fp1
 854 0862 F200 0423 	fmul.x %fp1,%fp0
 855 0866 F227 7400 	fmove.d %fp0,-(%sp)
 856 086a 201F      	move.l (%sp)+,%d0
 857 086c 221F      	move.l (%sp)+,%d1
 858 086e F23C 5400 	fmove.d #0x3fe0000000000000,%fp0
 858      3FE0 0000 
 858      0000 0000 
 859 087a 2F01      	move.l %d1,-(%sp)
 860 087c 2F00      	move.l %d0,-(%sp)
 861 087e F21F 5480 	fmove.d (%sp)+,%fp1
 862 0882 F200 0428 	fsub.x %fp1,%fp0
 863 0886 F227 7400 	fmove.d %fp0,-(%sp)
 864 088a 201F      	move.l (%sp)+,%d0
 865 088c 221F      	move.l (%sp)+,%d1
 866 088e 2F09      	move.l %a1,-(%sp)
 867 0890 2F08      	move.l %a0,-(%sp)
 868 0892 F21F 5400 	fmove.d (%sp)+,%fp0
 869 0896 2F01      	move.l %d1,-(%sp)
 870 0898 2F00      	move.l %d0,-(%sp)
 871 089a F21F 5480 	fmove.d (%sp)+,%fp1
 872 089e F200 0423 	fmul.x %fp1,%fp0
 873 08a2 F22E 7400 	fmove.d %fp0,-72(%fp)
 873      FFB8 
 874 08a8 2079 0000 	move.l ivln2_h,%a0
 874      0000 
 875 08ae 2279 0000 	move.l ivln2_h+4,%a1
 875      0000 
 876 08b4 202E FF34 	move.l -204(%fp),%d0
 877 08b8 222E FF38 	move.l -200(%fp),%d1
 878 08bc 2F09      	move.l %a1,-(%sp)
 879 08be 2F08      	move.l %a0,-(%sp)
 880 08c0 F21F 5400 	fmove.d (%sp)+,%fp0
 881 08c4 2F01      	move.l %d1,-(%sp)
 882 08c6 2F00      	move.l %d0,-(%sp)
 883 08c8 F21F 5480 	fmove.d (%sp)+,%fp1
68K GAS   			page 17


 884 08cc F200 0423 	fmul.x %fp1,%fp0
 885 08d0 F22E 7400 	fmove.d %fp0,-80(%fp)
 885      FFB0 
 886 08d6 206E FF34 	move.l -204(%fp),%a0
 887 08da 226E FF38 	move.l -200(%fp),%a1
 888 08de 2039 0000 	move.l ivln2_l,%d0
 888      0000 
 889 08e4 2239 0000 	move.l ivln2_l+4,%d1
 889      0000 
 890 08ea 2F09      	move.l %a1,-(%sp)
 891 08ec 2F08      	move.l %a0,-(%sp)
 892 08ee F21F 5400 	fmove.d (%sp)+,%fp0
 893 08f2 2F01      	move.l %d1,-(%sp)
 894 08f4 2F00      	move.l %d0,-(%sp)
 895 08f6 F21F 5480 	fmove.d (%sp)+,%fp1
 896 08fa F200 0423 	fmul.x %fp1,%fp0
 897 08fe F227 7400 	fmove.d %fp0,-(%sp)
 898 0902 201F      	move.l (%sp)+,%d0
 899 0904 221F      	move.l (%sp)+,%d1
 900 0906 2079 0000 	move.l ivln2,%a0
 900      0000 
 901 090c 2279 0000 	move.l ivln2+4,%a1
 901      0000 
 902 0912 2F09      	move.l %a1,-(%sp)
 903 0914 2F08      	move.l %a0,-(%sp)
 904 0916 F21F 5400 	fmove.d (%sp)+,%fp0
 905 091a F22E 5423 	fmul.d -72(%fp),%fp0
 905      FFB8 
 906 0920 F227 7400 	fmove.d %fp0,-(%sp)
 907 0924 205F      	move.l (%sp)+,%a0
 908 0926 225F      	move.l (%sp)+,%a1
 909 0928 2F01      	move.l %d1,-(%sp)
 910 092a 2F00      	move.l %d0,-(%sp)
 911 092c F21F 5480 	fmove.d (%sp)+,%fp1
 912 0930 2F09      	move.l %a1,-(%sp)
 913 0932 2F08      	move.l %a0,-(%sp)
 914 0934 F21F 5400 	fmove.d (%sp)+,%fp0
 915 0938 F200 00A8 	fsub.x %fp0,%fp1
 916 093c F22E 7480 	fmove.d %fp1,-88(%fp)
 916      FFA8 
 917 0942 F22E 5480 	fmove.d -80(%fp),%fp1
 917      FFB0 
 918 0948 F22E 54A2 	fadd.d -88(%fp),%fp1
 918      FFA8 
 919 094e F227 7480 	fmove.d %fp1,-(%sp)
 920 0952 201F      	move.l (%sp)+,%d0
 921 0954 221F      	move.l (%sp)+,%d1
 922 0956 2D40 FF3C 	move.l %d0,-196(%fp)
 923 095a 2D41 FF40 	move.l %d1,-192(%fp)
 924 095e 200E      	move.l %fp,%d0
 925 0960 0680 FFFF 	add.l #-196,%d0
 925      FF3C 
 926 0966 5880      	addq.l #4,%d0
 927 0968 2040      	move.l %d0,%a0
 928 096a 4290      	clr.l (%a0)
 929 096c 202E FF3C 	move.l -196(%fp),%d0
 930 0970 222E FF40 	move.l -192(%fp),%d1
68K GAS   			page 18


 931 0974 2F01      	move.l %d1,-(%sp)
 932 0976 2F00      	move.l %d0,-(%sp)
 933 0978 F21F 5400 	fmove.d (%sp)+,%fp0
 934 097c F22E 5428 	fsub.d -80(%fp),%fp0
 934      FFB0 
 935 0982 F227 7400 	fmove.d %fp0,-(%sp)
 936 0986 201F      	move.l (%sp)+,%d0
 937 0988 221F      	move.l (%sp)+,%d1
 938 098a F22E 5480 	fmove.d -88(%fp),%fp1
 938      FFA8 
 939 0990 2F01      	move.l %d1,-(%sp)
 940 0992 2F00      	move.l %d0,-(%sp)
 941 0994 F21F 5400 	fmove.d (%sp)+,%fp0
 942 0998 F200 00A8 	fsub.x %fp0,%fp1
 943 099c F22E 7480 	fmove.d %fp1,-8(%fp)
 943      FFF8 
 944 09a2 6000 07FE 	jra .L41
 945               	.L28:
 946 09a6 42AE FFE4 	clr.l -28(%fp)
 947 09aa 0CAE 000F 	cmp.l #1048575,-32(%fp)
 947      FFFF FFE0 
 948 09b2 6E4C      	jgt .L42
 949 09b4 206E FF54 	move.l -172(%fp),%a0
 950 09b8 226E FF58 	move.l -168(%fp),%a1
 951 09bc 2039 0000 	move.l two53,%d0
 951      0000 
 952 09c2 2239 0000 	move.l two53+4,%d1
 952      0000 
 953 09c8 2F09      	move.l %a1,-(%sp)
 954 09ca 2F08      	move.l %a0,-(%sp)
 955 09cc F21F 5480 	fmove.d (%sp)+,%fp1
 956 09d0 2F01      	move.l %d1,-(%sp)
 957 09d2 2F00      	move.l %d0,-(%sp)
 958 09d4 F21F 5400 	fmove.d (%sp)+,%fp0
 959 09d8 F200 00A3 	fmul.x %fp0,%fp1
 960 09dc F227 7480 	fmove.d %fp1,-(%sp)
 961 09e0 201F      	move.l (%sp)+,%d0
 962 09e2 221F      	move.l (%sp)+,%d1
 963 09e4 2D40 FF54 	move.l %d0,-172(%fp)
 964 09e8 2D41 FF58 	move.l %d1,-168(%fp)
 965 09ec 70CB      	moveq #-53,%d0
 966 09ee D1AE FFE4 	add.l %d0,-28(%fp)
 967 09f2 200E      	move.l %fp,%d0
 968 09f4 0680 FFFF 	add.l #-172,%d0
 968      FF54 
 969 09fa 2040      	move.l %d0,%a0
 970 09fc 2D50 FFE0 	move.l (%a0),-32(%fp)
 971               	.L42:
 972 0a00 202E FFE0 	move.l -32(%fp),%d0
 973 0a04 7214      	moveq #20,%d1
 974 0a06 E2A0      	asr.l %d1,%d0
 975 0a08 0680 FFFF 	add.l #-1023,%d0
 975      FC01 
 976 0a0e D1AE FFE4 	add.l %d0,-28(%fp)
 977 0a12 242E FFE0 	move.l -32(%fp),%d2
 978 0a16 0282 000F 	and.l #1048575,%d2
 978      FFFF 
68K GAS   			page 19


 979 0a1c 2D42 FFC0 	move.l %d2,-64(%fp)
 980 0a20 202E FFC0 	move.l -64(%fp),%d0
 981 0a24 0080 3FF0 	or.l #1072693248,%d0
 981      0000 
 982 0a2a 2D40 FFE0 	move.l %d0,-32(%fp)
 983 0a2e 0CAE 0003 	cmp.l #235662,-64(%fp)
 983      988E FFC0 
 984 0a36 6E06      	jgt .L43
 985 0a38 42AE FFEC 	clr.l -20(%fp)
 986 0a3c 6022      	jra .L44
 987               	.L43:
 988 0a3e 0CAE 000B 	cmp.l #767609,-64(%fp)
 988      B679 FFC0 
 989 0a46 6E08      	jgt .L45
 990 0a48 7201      	moveq #1,%d1
 991 0a4a 2D41 FFEC 	move.l %d1,-20(%fp)
 992 0a4e 6010      	jra .L44
 993               	.L45:
 994 0a50 42AE FFEC 	clr.l -20(%fp)
 995 0a54 52AE FFE4 	addq.l #1,-28(%fp)
 996 0a58 06AE FFF0 	add.l #-1048576,-32(%fp)
 996      0000 FFE0 
 997               	.L44:
 998 0a60 200E      	move.l %fp,%d0
 999 0a62 0680 FFFF 	add.l #-172,%d0
 999      FF54 
 1000 0a68 2040      	move.l %d0,%a0
 1001 0a6a 20AE FFE0 	move.l -32(%fp),(%a0)
 1002 0a6e 202E FF54 	move.l -172(%fp),%d0
 1003 0a72 222E FF58 	move.l -168(%fp),%d1
 1004 0a76 206E FFEC 	move.l -20(%fp),%a0
 1005 0a7a 2270 8FB0 	move.l bp+4(%a0.l*8),%a1
 1005      0000 0000 
 1006 0a82 2070 8FB0 	move.l bp(%a0.l*8),%a0
 1006      0000 0000 
 1007 0a8a 2F01      	move.l %d1,-(%sp)
 1008 0a8c 2F00      	move.l %d0,-(%sp)
 1009 0a8e F21F 5400 	fmove.d (%sp)+,%fp0
 1010 0a92 2F09      	move.l %a1,-(%sp)
 1011 0a94 2F08      	move.l %a0,-(%sp)
 1012 0a96 F21F 5480 	fmove.d (%sp)+,%fp1
 1013 0a9a F200 0428 	fsub.x %fp1,%fp0
 1014 0a9e F22E 7400 	fmove.d %fp0,-80(%fp)
 1014      FFB0 
 1015 0aa4 2079 0000 	move.l one,%a0
 1015      0000 
 1016 0aaa 2279 0000 	move.l one+4,%a1
 1016      0000 
 1017 0ab0 202E FFEC 	move.l -20(%fp),%d0
 1018 0ab4 2430 0FB0 	move.l bp(%d0.l*8),%d2
 1018      0000 0000 
 1019 0abc 2630 0FB0 	move.l bp+4(%d0.l*8),%d3
 1019      0000 0000 
 1020 0ac4 202E FF54 	move.l -172(%fp),%d0
 1021 0ac8 222E FF58 	move.l -168(%fp),%d1
 1022 0acc 2F03      	move.l %d3,-(%sp)
 1023 0ace 2F02      	move.l %d2,-(%sp)
68K GAS   			page 20


 1024 0ad0 F21F 5400 	fmove.d (%sp)+,%fp0
 1025 0ad4 2F01      	move.l %d1,-(%sp)
 1026 0ad6 2F00      	move.l %d0,-(%sp)
 1027 0ad8 F21F 5480 	fmove.d (%sp)+,%fp1
 1028 0adc F200 0422 	fadd.x %fp1,%fp0
 1029 0ae0 F227 7400 	fmove.d %fp0,-(%sp)
 1030 0ae4 201F      	move.l (%sp)+,%d0
 1031 0ae6 221F      	move.l (%sp)+,%d1
 1032 0ae8 2F09      	move.l %a1,-(%sp)
 1033 0aea 2F08      	move.l %a0,-(%sp)
 1034 0aec F21F 5400 	fmove.d (%sp)+,%fp0
 1035 0af0 2F01      	move.l %d1,-(%sp)
 1036 0af2 2F00      	move.l %d0,-(%sp)
 1037 0af4 F21F 5480 	fmove.d (%sp)+,%fp1
 1038 0af8 F200 0420 	fdiv.x %fp1,%fp0
 1039 0afc F22E 7400 	fmove.d %fp0,-88(%fp)
 1039      FFA8 
 1040 0b02 F22E 5400 	fmove.d -80(%fp),%fp0
 1040      FFB0 
 1041 0b08 F22E 5423 	fmul.d -88(%fp),%fp0
 1041      FFA8 
 1042 0b0e F22E 7400 	fmove.d %fp0,-96(%fp)
 1042      FFA0 
 1043 0b14 2D6E FFA0 	move.l -96(%fp),-212(%fp)
 1043      FF2C 
 1044 0b1a 2D6E FFA4 	move.l -92(%fp),-208(%fp)
 1044      FF30 
 1045 0b20 200E      	move.l %fp,%d0
 1046 0b22 0680 FFFF 	add.l #-212,%d0
 1046      FF2C 
 1047 0b28 5880      	addq.l #4,%d0
 1048 0b2a 2040      	move.l %d0,%a0
 1049 0b2c 4290      	clr.l (%a0)
 1050 0b2e 2039 0000 	move.l zero,%d0
 1050      0000 
 1051 0b34 2239 0000 	move.l zero+4,%d1
 1051      0000 
 1052 0b3a 2D40 FF24 	move.l %d0,-220(%fp)
 1053 0b3e 2D41 FF28 	move.l %d1,-216(%fp)
 1054 0b42 200E      	move.l %fp,%d0
 1055 0b44 0680 FFFF 	add.l #-220,%d0
 1055      FF24 
 1056 0b4a 222E FFE0 	move.l -32(%fp),%d1
 1057 0b4e E281      	asr.l #1,%d1
 1058 0b50 08C1 001D 	bset #29,%d1
 1059 0b54 2041      	move.l %d1,%a0
 1060 0b56 D1FC 0008 	add.l #524288,%a0
 1060      0000 
 1061 0b5c 222E FFEC 	move.l -20(%fp),%d1
 1062 0b60 7412      	moveq #18,%d2
 1063 0b62 E5A9      	lsl.l %d2,%d1
 1064 0b64 D288      	add.l %a0,%d1
 1065 0b66 2040      	move.l %d0,%a0
 1066 0b68 2081      	move.l %d1,(%a0)
 1067 0b6a 206E FF54 	move.l -172(%fp),%a0
 1068 0b6e 226E FF58 	move.l -168(%fp),%a1
 1069 0b72 202E FF24 	move.l -220(%fp),%d0
68K GAS   			page 21


 1070 0b76 222E FF28 	move.l -216(%fp),%d1
 1071 0b7a 242E FFEC 	move.l -20(%fp),%d2
 1072 0b7e 2630 2FB0 	move.l bp+4(%d2.l*8),%d3
 1072      0000 0000 
 1073 0b86 2430 2FB0 	move.l bp(%d2.l*8),%d2
 1073      0000 0000 
 1074 0b8e 2F01      	move.l %d1,-(%sp)
 1075 0b90 2F00      	move.l %d0,-(%sp)
 1076 0b92 F21F 5400 	fmove.d (%sp)+,%fp0
 1077 0b96 2F03      	move.l %d3,-(%sp)
 1078 0b98 2F02      	move.l %d2,-(%sp)
 1079 0b9a F21F 5480 	fmove.d (%sp)+,%fp1
 1080 0b9e F200 0428 	fsub.x %fp1,%fp0
 1081 0ba2 F227 7400 	fmove.d %fp0,-(%sp)
 1082 0ba6 201F      	move.l (%sp)+,%d0
 1083 0ba8 221F      	move.l (%sp)+,%d1
 1084 0baa 2F09      	move.l %a1,-(%sp)
 1085 0bac 2F08      	move.l %a0,-(%sp)
 1086 0bae F21F 5400 	fmove.d (%sp)+,%fp0
 1087 0bb2 2F01      	move.l %d1,-(%sp)
 1088 0bb4 2F00      	move.l %d0,-(%sp)
 1089 0bb6 F21F 5480 	fmove.d (%sp)+,%fp1
 1090 0bba F200 0428 	fsub.x %fp1,%fp0
 1091 0bbe F22E 7400 	fmove.d %fp0,-104(%fp)
 1091      FF98 
 1092 0bc4 206E FF2C 	move.l -212(%fp),%a0
 1093 0bc8 226E FF30 	move.l -208(%fp),%a1
 1094 0bcc 202E FF24 	move.l -220(%fp),%d0
 1095 0bd0 222E FF28 	move.l -216(%fp),%d1
 1096 0bd4 2F09      	move.l %a1,-(%sp)
 1097 0bd6 2F08      	move.l %a0,-(%sp)
 1098 0bd8 F21F 5400 	fmove.d (%sp)+,%fp0
 1099 0bdc 2F01      	move.l %d1,-(%sp)
 1100 0bde 2F00      	move.l %d0,-(%sp)
 1101 0be0 F21F 5480 	fmove.d (%sp)+,%fp1
 1102 0be4 F200 0423 	fmul.x %fp1,%fp0
 1103 0be8 F227 7400 	fmove.d %fp0,-(%sp)
 1104 0bec 201F      	move.l (%sp)+,%d0
 1105 0bee 221F      	move.l (%sp)+,%d1
 1106 0bf0 F22E 5400 	fmove.d -80(%fp),%fp0
 1106      FFB0 
 1107 0bf6 2F01      	move.l %d1,-(%sp)
 1108 0bf8 2F00      	move.l %d0,-(%sp)
 1109 0bfa F21F 5480 	fmove.d (%sp)+,%fp1
 1110 0bfe F200 0428 	fsub.x %fp1,%fp0
 1111 0c02 F227 7400 	fmove.d %fp0,-(%sp)
 1112 0c06 201F      	move.l (%sp)+,%d0
 1113 0c08 221F      	move.l (%sp)+,%d1
 1114 0c0a 206E FF2C 	move.l -212(%fp),%a0
 1115 0c0e 226E FF30 	move.l -208(%fp),%a1
 1116 0c12 2F09      	move.l %a1,-(%sp)
 1117 0c14 2F08      	move.l %a0,-(%sp)
 1118 0c16 F21F 5400 	fmove.d (%sp)+,%fp0
 1119 0c1a F22E 5423 	fmul.d -104(%fp),%fp0
 1119      FF98 
 1120 0c20 F227 7400 	fmove.d %fp0,-(%sp)
 1121 0c24 205F      	move.l (%sp)+,%a0
68K GAS   			page 22


 1122 0c26 225F      	move.l (%sp)+,%a1
 1123 0c28 2F01      	move.l %d1,-(%sp)
 1124 0c2a 2F00      	move.l %d0,-(%sp)
 1125 0c2c F21F 5480 	fmove.d (%sp)+,%fp1
 1126 0c30 2F09      	move.l %a1,-(%sp)
 1127 0c32 2F08      	move.l %a0,-(%sp)
 1128 0c34 F21F 5400 	fmove.d (%sp)+,%fp0
 1129 0c38 F200 00A8 	fsub.x %fp0,%fp1
 1130 0c3c F227 7480 	fmove.d %fp1,-(%sp)
 1131 0c40 201F      	move.l (%sp)+,%d0
 1132 0c42 221F      	move.l (%sp)+,%d1
 1133 0c44 2F01      	move.l %d1,-(%sp)
 1134 0c46 2F00      	move.l %d0,-(%sp)
 1135 0c48 F21F 5480 	fmove.d (%sp)+,%fp1
 1136 0c4c F22E 54A3 	fmul.d -88(%fp),%fp1
 1136      FFA8 
 1137 0c52 F22E 7480 	fmove.d %fp1,-112(%fp)
 1137      FF90 
 1138 0c58 F22E 5400 	fmove.d -96(%fp),%fp0
 1138      FFA0 
 1139 0c5e F22E 5423 	fmul.d -96(%fp),%fp0
 1139      FFA0 
 1140 0c64 F22E 7400 	fmove.d %fp0,-120(%fp)
 1140      FF88 
 1141 0c6a F22E 5480 	fmove.d -120(%fp),%fp1
 1141      FF88 
 1142 0c70 F22E 54A3 	fmul.d -120(%fp),%fp1
 1142      FF88 
 1143 0c76 F227 7480 	fmove.d %fp1,-(%sp)
 1144 0c7a 205F      	move.l (%sp)+,%a0
 1145 0c7c 225F      	move.l (%sp)+,%a1
 1146 0c7e 2039 0000 	move.l L6,%d0
 1146      0000 
 1147 0c84 2239 0000 	move.l L6+4,%d1
 1147      0000 
 1148 0c8a 2F01      	move.l %d1,-(%sp)
 1149 0c8c 2F00      	move.l %d0,-(%sp)
 1150 0c8e F21F 5400 	fmove.d (%sp)+,%fp0
 1151 0c92 F22E 5423 	fmul.d -120(%fp),%fp0
 1151      FF88 
 1152 0c98 F227 7400 	fmove.d %fp0,-(%sp)
 1153 0c9c 201F      	move.l (%sp)+,%d0
 1154 0c9e 221F      	move.l (%sp)+,%d1
 1155 0ca0 2439 0000 	move.l L5,%d2
 1155      0000 
 1156 0ca6 2639 0000 	move.l L5+4,%d3
 1156      0000 
 1157 0cac 2F01      	move.l %d1,-(%sp)
 1158 0cae 2F00      	move.l %d0,-(%sp)
 1159 0cb0 F21F 5480 	fmove.d (%sp)+,%fp1
 1160 0cb4 2F03      	move.l %d3,-(%sp)
 1161 0cb6 2F02      	move.l %d2,-(%sp)
 1162 0cb8 F21F 5400 	fmove.d (%sp)+,%fp0
 1163 0cbc F200 00A2 	fadd.x %fp0,%fp1
 1164 0cc0 F227 7480 	fmove.d %fp1,-(%sp)
 1165 0cc4 201F      	move.l (%sp)+,%d0
 1166 0cc6 221F      	move.l (%sp)+,%d1
68K GAS   			page 23


 1167 0cc8 2F01      	move.l %d1,-(%sp)
 1168 0cca 2F00      	move.l %d0,-(%sp)
 1169 0ccc F21F 5480 	fmove.d (%sp)+,%fp1
 1170 0cd0 F22E 54A3 	fmul.d -120(%fp),%fp1
 1170      FF88 
 1171 0cd6 F227 7480 	fmove.d %fp1,-(%sp)
 1172 0cda 201F      	move.l (%sp)+,%d0
 1173 0cdc 221F      	move.l (%sp)+,%d1
 1174 0cde 2439 0000 	move.l L4,%d2
 1174      0000 
 1175 0ce4 2639 0000 	move.l L4+4,%d3
 1175      0000 
 1176 0cea 2F01      	move.l %d1,-(%sp)
 1177 0cec 2F00      	move.l %d0,-(%sp)
 1178 0cee F21F 5400 	fmove.d (%sp)+,%fp0
 1179 0cf2 2F03      	move.l %d3,-(%sp)
 1180 0cf4 2F02      	move.l %d2,-(%sp)
 1181 0cf6 F21F 5480 	fmove.d (%sp)+,%fp1
 1182 0cfa F200 0422 	fadd.x %fp1,%fp0
 1183 0cfe F227 7400 	fmove.d %fp0,-(%sp)
 1184 0d02 201F      	move.l (%sp)+,%d0
 1185 0d04 221F      	move.l (%sp)+,%d1
 1186 0d06 2F01      	move.l %d1,-(%sp)
 1187 0d08 2F00      	move.l %d0,-(%sp)
 1188 0d0a F21F 5400 	fmove.d (%sp)+,%fp0
 1189 0d0e F22E 5423 	fmul.d -120(%fp),%fp0
 1189      FF88 
 1190 0d14 F227 7400 	fmove.d %fp0,-(%sp)
 1191 0d18 201F      	move.l (%sp)+,%d0
 1192 0d1a 221F      	move.l (%sp)+,%d1
 1193 0d1c 2439 0000 	move.l L3,%d2
 1193      0000 
 1194 0d22 2639 0000 	move.l L3+4,%d3
 1194      0000 
 1195 0d28 2F01      	move.l %d1,-(%sp)
 1196 0d2a 2F00      	move.l %d0,-(%sp)
 1197 0d2c F21F 5480 	fmove.d (%sp)+,%fp1
 1198 0d30 2F03      	move.l %d3,-(%sp)
 1199 0d32 2F02      	move.l %d2,-(%sp)
 1200 0d34 F21F 5400 	fmove.d (%sp)+,%fp0
 1201 0d38 F200 00A2 	fadd.x %fp0,%fp1
 1202 0d3c F227 7480 	fmove.d %fp1,-(%sp)
 1203 0d40 201F      	move.l (%sp)+,%d0
 1204 0d42 221F      	move.l (%sp)+,%d1
 1205 0d44 2F01      	move.l %d1,-(%sp)
 1206 0d46 2F00      	move.l %d0,-(%sp)
 1207 0d48 F21F 5480 	fmove.d (%sp)+,%fp1
 1208 0d4c F22E 54A3 	fmul.d -120(%fp),%fp1
 1208      FF88 
 1209 0d52 F227 7480 	fmove.d %fp1,-(%sp)
 1210 0d56 201F      	move.l (%sp)+,%d0
 1211 0d58 221F      	move.l (%sp)+,%d1
 1212 0d5a 2439 0000 	move.l L2,%d2
 1212      0000 
 1213 0d60 2639 0000 	move.l L2+4,%d3
 1213      0000 
 1214 0d66 2F01      	move.l %d1,-(%sp)
68K GAS   			page 24


 1215 0d68 2F00      	move.l %d0,-(%sp)
 1216 0d6a F21F 5400 	fmove.d (%sp)+,%fp0
 1217 0d6e 2F03      	move.l %d3,-(%sp)
 1218 0d70 2F02      	move.l %d2,-(%sp)
 1219 0d72 F21F 5480 	fmove.d (%sp)+,%fp1
 1220 0d76 F200 0422 	fadd.x %fp1,%fp0
 1221 0d7a F227 7400 	fmove.d %fp0,-(%sp)
 1222 0d7e 201F      	move.l (%sp)+,%d0
 1223 0d80 221F      	move.l (%sp)+,%d1
 1224 0d82 2F01      	move.l %d1,-(%sp)
 1225 0d84 2F00      	move.l %d0,-(%sp)
 1226 0d86 F21F 5400 	fmove.d (%sp)+,%fp0
 1227 0d8a F22E 5423 	fmul.d -120(%fp),%fp0
 1227      FF88 
 1228 0d90 F227 7400 	fmove.d %fp0,-(%sp)
 1229 0d94 201F      	move.l (%sp)+,%d0
 1230 0d96 221F      	move.l (%sp)+,%d1
 1231 0d98 2439 0000 	move.l L1,%d2
 1231      0000 
 1232 0d9e 2639 0000 	move.l L1+4,%d3
 1232      0000 
 1233 0da4 2F01      	move.l %d1,-(%sp)
 1234 0da6 2F00      	move.l %d0,-(%sp)
 1235 0da8 F21F 5480 	fmove.d (%sp)+,%fp1
 1236 0dac 2F03      	move.l %d3,-(%sp)
 1237 0dae 2F02      	move.l %d2,-(%sp)
 1238 0db0 F21F 5400 	fmove.d (%sp)+,%fp0
 1239 0db4 F200 00A2 	fadd.x %fp0,%fp1
 1240 0db8 F227 7480 	fmove.d %fp1,-(%sp)
 1241 0dbc 201F      	move.l (%sp)+,%d0
 1242 0dbe 221F      	move.l (%sp)+,%d1
 1243 0dc0 2F09      	move.l %a1,-(%sp)
 1244 0dc2 2F08      	move.l %a0,-(%sp)
 1245 0dc4 F21F 5480 	fmove.d (%sp)+,%fp1
 1246 0dc8 2F01      	move.l %d1,-(%sp)
 1247 0dca 2F00      	move.l %d0,-(%sp)
 1248 0dcc F21F 5400 	fmove.d (%sp)+,%fp0
 1249 0dd0 F200 00A3 	fmul.x %fp0,%fp1
 1250 0dd4 F22E 7480 	fmove.d %fp1,-128(%fp)
 1250      FF80 
 1251 0dda 202E FF2C 	move.l -212(%fp),%d0
 1252 0dde 222E FF30 	move.l -208(%fp),%d1
 1253 0de2 2F01      	move.l %d1,-(%sp)
 1254 0de4 2F00      	move.l %d0,-(%sp)
 1255 0de6 F21F 5480 	fmove.d (%sp)+,%fp1
 1256 0dea F22E 54A2 	fadd.d -96(%fp),%fp1
 1256      FFA0 
 1257 0df0 F227 7480 	fmove.d %fp1,-(%sp)
 1258 0df4 201F      	move.l (%sp)+,%d0
 1259 0df6 221F      	move.l (%sp)+,%d1
 1260 0df8 2F01      	move.l %d1,-(%sp)
 1261 0dfa 2F00      	move.l %d0,-(%sp)
 1262 0dfc F21F 5400 	fmove.d (%sp)+,%fp0
 1263 0e00 F22E 5423 	fmul.d -112(%fp),%fp0
 1263      FF90 
 1264 0e06 F227 7400 	fmove.d %fp0,-(%sp)
 1265 0e0a 201F      	move.l (%sp)+,%d0
68K GAS   			page 25


 1266 0e0c 221F      	move.l (%sp)+,%d1
 1267 0e0e 2F01      	move.l %d1,-(%sp)
 1268 0e10 2F00      	move.l %d0,-(%sp)
 1269 0e12 F21F 5480 	fmove.d (%sp)+,%fp1
 1270 0e16 F22E 54A2 	fadd.d -128(%fp),%fp1
 1270      FF80 
 1271 0e1c F22E 7480 	fmove.d %fp1,-128(%fp)
 1271      FF80 
 1272 0e22 206E FF2C 	move.l -212(%fp),%a0
 1273 0e26 226E FF30 	move.l -208(%fp),%a1
 1274 0e2a 202E FF2C 	move.l -212(%fp),%d0
 1275 0e2e 222E FF30 	move.l -208(%fp),%d1
 1276 0e32 2F09      	move.l %a1,-(%sp)
 1277 0e34 2F08      	move.l %a0,-(%sp)
 1278 0e36 F21F 5400 	fmove.d (%sp)+,%fp0
 1279 0e3a 2F01      	move.l %d1,-(%sp)
 1280 0e3c 2F00      	move.l %d0,-(%sp)
 1281 0e3e F21F 5480 	fmove.d (%sp)+,%fp1
 1282 0e42 F200 0423 	fmul.x %fp1,%fp0
 1283 0e46 F22E 7400 	fmove.d %fp0,-120(%fp)
 1283      FF88 
 1284 0e4c F22E 5400 	fmove.d -120(%fp),%fp0
 1284      FF88 
 1285 0e52 F23C 5422 	fadd.d #0x4008000000000000,%fp0
 1285      4008 0000 
 1285      0000 0000 
 1286 0e5e F227 7400 	fmove.d %fp0,-(%sp)
 1287 0e62 201F      	move.l (%sp)+,%d0
 1288 0e64 221F      	move.l (%sp)+,%d1
 1289 0e66 2F01      	move.l %d1,-(%sp)
 1290 0e68 2F00      	move.l %d0,-(%sp)
 1291 0e6a F21F 5480 	fmove.d (%sp)+,%fp1
 1292 0e6e F22E 54A2 	fadd.d -128(%fp),%fp1
 1292      FF80 
 1293 0e74 F227 7480 	fmove.d %fp1,-(%sp)
 1294 0e78 201F      	move.l (%sp)+,%d0
 1295 0e7a 221F      	move.l (%sp)+,%d1
 1296 0e7c 2D40 FF24 	move.l %d0,-220(%fp)
 1297 0e80 2D41 FF28 	move.l %d1,-216(%fp)
 1298 0e84 200E      	move.l %fp,%d0
 1299 0e86 0680 FFFF 	add.l #-220,%d0
 1299      FF24 
 1300 0e8c 5880      	addq.l #4,%d0
 1301 0e8e 2040      	move.l %d0,%a0
 1302 0e90 4290      	clr.l (%a0)
 1303 0e92 202E FF24 	move.l -220(%fp),%d0
 1304 0e96 222E FF28 	move.l -216(%fp),%d1
 1305 0e9a 2F01      	move.l %d1,-(%sp)
 1306 0e9c 2F00      	move.l %d0,-(%sp)
 1307 0e9e F21F 5400 	fmove.d (%sp)+,%fp0
 1308 0ea2 F23C 5428 	fsub.d #0x4008000000000000,%fp0
 1308      4008 0000 
 1308      0000 0000 
 1309 0eae F227 7400 	fmove.d %fp0,-(%sp)
 1310 0eb2 201F      	move.l (%sp)+,%d0
 1311 0eb4 221F      	move.l (%sp)+,%d1
 1312 0eb6 2F01      	move.l %d1,-(%sp)
68K GAS   			page 26


 1313 0eb8 2F00      	move.l %d0,-(%sp)
 1314 0eba F21F 5480 	fmove.d (%sp)+,%fp1
 1315 0ebe F22E 54A8 	fsub.d -120(%fp),%fp1
 1315      FF88 
 1316 0ec4 F227 7480 	fmove.d %fp1,-(%sp)
 1317 0ec8 201F      	move.l (%sp)+,%d0
 1318 0eca 221F      	move.l (%sp)+,%d1
 1319 0ecc F22E 5400 	fmove.d -128(%fp),%fp0
 1319      FF80 
 1320 0ed2 2F01      	move.l %d1,-(%sp)
 1321 0ed4 2F00      	move.l %d0,-(%sp)
 1322 0ed6 F21F 5480 	fmove.d (%sp)+,%fp1
 1323 0eda F200 0428 	fsub.x %fp1,%fp0
 1324 0ede F22E 7400 	fmove.d %fp0,-104(%fp)
 1324      FF98 
 1325 0ee4 206E FF2C 	move.l -212(%fp),%a0
 1326 0ee8 226E FF30 	move.l -208(%fp),%a1
 1327 0eec 202E FF24 	move.l -220(%fp),%d0
 1328 0ef0 222E FF28 	move.l -216(%fp),%d1
 1329 0ef4 2F09      	move.l %a1,-(%sp)
 1330 0ef6 2F08      	move.l %a0,-(%sp)
 1331 0ef8 F21F 5400 	fmove.d (%sp)+,%fp0
 1332 0efc 2F01      	move.l %d1,-(%sp)
 1333 0efe 2F00      	move.l %d0,-(%sp)
 1334 0f00 F21F 5480 	fmove.d (%sp)+,%fp1
 1335 0f04 F200 0423 	fmul.x %fp1,%fp0
 1336 0f08 F22E 7400 	fmove.d %fp0,-80(%fp)
 1336      FFB0 
 1337 0f0e 202E FF24 	move.l -220(%fp),%d0
 1338 0f12 222E FF28 	move.l -216(%fp),%d1
 1339 0f16 2F01      	move.l %d1,-(%sp)
 1340 0f18 2F00      	move.l %d0,-(%sp)
 1341 0f1a F21F 5400 	fmove.d (%sp)+,%fp0
 1342 0f1e F22E 5423 	fmul.d -112(%fp),%fp0
 1342      FF90 
 1343 0f24 F227 7400 	fmove.d %fp0,-(%sp)
 1344 0f28 205F      	move.l (%sp)+,%a0
 1345 0f2a 225F      	move.l (%sp)+,%a1
 1346 0f2c F22E 5480 	fmove.d -104(%fp),%fp1
 1346      FF98 
 1347 0f32 F22E 54A3 	fmul.d -96(%fp),%fp1
 1347      FFA0 
 1348 0f38 F227 7480 	fmove.d %fp1,-(%sp)
 1349 0f3c 201F      	move.l (%sp)+,%d0
 1350 0f3e 221F      	move.l (%sp)+,%d1
 1351 0f40 2F09      	move.l %a1,-(%sp)
 1352 0f42 2F08      	move.l %a0,-(%sp)
 1353 0f44 F21F 5400 	fmove.d (%sp)+,%fp0
 1354 0f48 2F01      	move.l %d1,-(%sp)
 1355 0f4a 2F00      	move.l %d0,-(%sp)
 1356 0f4c F21F 5480 	fmove.d (%sp)+,%fp1
 1357 0f50 F200 0422 	fadd.x %fp1,%fp0
 1358 0f54 F22E 7400 	fmove.d %fp0,-88(%fp)
 1358      FFA8 
 1359 0f5a F22E 5400 	fmove.d -80(%fp),%fp0
 1359      FFB0 
 1360 0f60 F22E 5422 	fadd.d -88(%fp),%fp0
68K GAS   			page 27


 1360      FFA8 
 1361 0f66 F227 7400 	fmove.d %fp0,-(%sp)
 1362 0f6a 201F      	move.l (%sp)+,%d0
 1363 0f6c 221F      	move.l (%sp)+,%d1
 1364 0f6e 2D40 FF4C 	move.l %d0,-180(%fp)
 1365 0f72 2D41 FF50 	move.l %d1,-176(%fp)
 1366 0f76 200E      	move.l %fp,%d0
 1367 0f78 0680 FFFF 	add.l #-180,%d0
 1367      FF4C 
 1368 0f7e 5880      	addq.l #4,%d0
 1369 0f80 2040      	move.l %d0,%a0
 1370 0f82 4290      	clr.l (%a0)
 1371 0f84 202E FF4C 	move.l -180(%fp),%d0
 1372 0f88 222E FF50 	move.l -176(%fp),%d1
 1373 0f8c 2F01      	move.l %d1,-(%sp)
 1374 0f8e 2F00      	move.l %d0,-(%sp)
 1375 0f90 F21F 5400 	fmove.d (%sp)+,%fp0
 1376 0f94 F22E 5428 	fsub.d -80(%fp),%fp0
 1376      FFB0 
 1377 0f9a F227 7400 	fmove.d %fp0,-(%sp)
 1378 0f9e 201F      	move.l (%sp)+,%d0
 1379 0fa0 221F      	move.l (%sp)+,%d1
 1380 0fa2 F22E 5480 	fmove.d -88(%fp),%fp1
 1380      FFA8 
 1381 0fa8 2F01      	move.l %d1,-(%sp)
 1382 0faa 2F00      	move.l %d0,-(%sp)
 1383 0fac F21F 5400 	fmove.d (%sp)+,%fp0
 1384 0fb0 F200 00A8 	fsub.x %fp0,%fp1
 1385 0fb4 F22E 7480 	fmove.d %fp1,-136(%fp)
 1385      FF78 
 1386 0fba 2079 0000 	move.l cp_h,%a0
 1386      0000 
 1387 0fc0 2279 0000 	move.l cp_h+4,%a1
 1387      0000 
 1388 0fc6 202E FF4C 	move.l -180(%fp),%d0
 1389 0fca 222E FF50 	move.l -176(%fp),%d1
 1390 0fce 2F09      	move.l %a1,-(%sp)
 1391 0fd0 2F08      	move.l %a0,-(%sp)
 1392 0fd2 F21F 5480 	fmove.d (%sp)+,%fp1
 1393 0fd6 2F01      	move.l %d1,-(%sp)
 1394 0fd8 2F00      	move.l %d0,-(%sp)
 1395 0fda F21F 5400 	fmove.d (%sp)+,%fp0
 1396 0fde F200 00A3 	fmul.x %fp0,%fp1
 1397 0fe2 F22E 7480 	fmove.d %fp1,-144(%fp)
 1397      FF70 
 1398 0fe8 2079 0000 	move.l cp_l,%a0
 1398      0000 
 1399 0fee 2279 0000 	move.l cp_l+4,%a1
 1399      0000 
 1400 0ff4 202E FF4C 	move.l -180(%fp),%d0
 1401 0ff8 222E FF50 	move.l -176(%fp),%d1
 1402 0ffc 2F09      	move.l %a1,-(%sp)
 1403 0ffe 2F08      	move.l %a0,-(%sp)
 1404 1000 F21F 5480 	fmove.d (%sp)+,%fp1
 1405 1004 2F01      	move.l %d1,-(%sp)
 1406 1006 2F00      	move.l %d0,-(%sp)
 1407 1008 F21F 5400 	fmove.d (%sp)+,%fp0
68K GAS   			page 28


 1408 100c F200 00A3 	fmul.x %fp0,%fp1
 1409 1010 F227 7480 	fmove.d %fp1,-(%sp)
 1410 1014 205F      	move.l (%sp)+,%a0
 1411 1016 225F      	move.l (%sp)+,%a1
 1412 1018 2039 0000 	move.l cp,%d0
 1412      0000 
 1413 101e 2239 0000 	move.l cp+4,%d1
 1413      0000 
 1414 1024 2F01      	move.l %d1,-(%sp)
 1415 1026 2F00      	move.l %d0,-(%sp)
 1416 1028 F21F 5480 	fmove.d (%sp)+,%fp1
 1417 102c F22E 54A3 	fmul.d -136(%fp),%fp1
 1417      FF78 
 1418 1032 F227 7480 	fmove.d %fp1,-(%sp)
 1419 1036 201F      	move.l (%sp)+,%d0
 1420 1038 221F      	move.l (%sp)+,%d1
 1421 103a 2F09      	move.l %a1,-(%sp)
 1422 103c 2F08      	move.l %a0,-(%sp)
 1423 103e F21F 5400 	fmove.d (%sp)+,%fp0
 1424 1042 2F01      	move.l %d1,-(%sp)
 1425 1044 2F00      	move.l %d0,-(%sp)
 1426 1046 F21F 5480 	fmove.d (%sp)+,%fp1
 1427 104a F200 0422 	fadd.x %fp1,%fp0
 1428 104e F227 7400 	fmove.d %fp0,-(%sp)
 1429 1052 201F      	move.l (%sp)+,%d0
 1430 1054 221F      	move.l (%sp)+,%d1
 1431 1056 206E FFEC 	move.l -20(%fp),%a0
 1432 105a 2270 8FB0 	move.l dp_l+4(%a0.l*8),%a1
 1432      0000 0000 
 1433 1062 2070 8FB0 	move.l dp_l(%a0.l*8),%a0
 1433      0000 0000 
 1434 106a 2F01      	move.l %d1,-(%sp)
 1435 106c 2F00      	move.l %d0,-(%sp)
 1436 106e F21F 5400 	fmove.d (%sp)+,%fp0
 1437 1072 2F09      	move.l %a1,-(%sp)
 1438 1074 2F08      	move.l %a0,-(%sp)
 1439 1076 F21F 5480 	fmove.d (%sp)+,%fp1
 1440 107a F200 0422 	fadd.x %fp1,%fp0
 1441 107e F22E 7400 	fmove.d %fp0,-152(%fp)
 1441      FF68 
 1442 1084 F22E 4000 	fmove.l -28(%fp),%fp0
 1442      FFE4 
 1443 108a F227 7400 	fmove.d %fp0,-(%sp)
 1444 108e 201F      	move.l (%sp)+,%d0
 1445 1090 221F      	move.l (%sp)+,%d1
 1446 1092 2D40 FF34 	move.l %d0,-204(%fp)
 1447 1096 2D41 FF38 	move.l %d1,-200(%fp)
 1448 109a F22E 5480 	fmove.d -144(%fp),%fp1
 1448      FF70 
 1449 10a0 F22E 54A2 	fadd.d -152(%fp),%fp1
 1449      FF68 
 1450 10a6 F227 7480 	fmove.d %fp1,-(%sp)
 1451 10aa 201F      	move.l (%sp)+,%d0
 1452 10ac 221F      	move.l (%sp)+,%d1
 1453 10ae 206E FFEC 	move.l -20(%fp),%a0
 1454 10b2 2270 8FB0 	move.l dp_h+4(%a0.l*8),%a1
 1454      0000 0000 
68K GAS   			page 29


 1455 10ba 2070 8FB0 	move.l dp_h(%a0.l*8),%a0
 1455      0000 0000 
 1456 10c2 2F01      	move.l %d1,-(%sp)
 1457 10c4 2F00      	move.l %d0,-(%sp)
 1458 10c6 F21F 5400 	fmove.d (%sp)+,%fp0
 1459 10ca 2F09      	move.l %a1,-(%sp)
 1460 10cc 2F08      	move.l %a0,-(%sp)
 1461 10ce F21F 5480 	fmove.d (%sp)+,%fp1
 1462 10d2 F200 0422 	fadd.x %fp1,%fp0
 1463 10d6 F227 7400 	fmove.d %fp0,-(%sp)
 1464 10da 201F      	move.l (%sp)+,%d0
 1465 10dc 221F      	move.l (%sp)+,%d1
 1466 10de 206E FF34 	move.l -204(%fp),%a0
 1467 10e2 226E FF38 	move.l -200(%fp),%a1
 1468 10e6 2F01      	move.l %d1,-(%sp)
 1469 10e8 2F00      	move.l %d0,-(%sp)
 1470 10ea F21F 5400 	fmove.d (%sp)+,%fp0
 1471 10ee 2F09      	move.l %a1,-(%sp)
 1472 10f0 2F08      	move.l %a0,-(%sp)
 1473 10f2 F21F 5480 	fmove.d (%sp)+,%fp1
 1474 10f6 F200 0422 	fadd.x %fp1,%fp0
 1475 10fa F227 7400 	fmove.d %fp0,-(%sp)
 1476 10fe 201F      	move.l (%sp)+,%d0
 1477 1100 221F      	move.l (%sp)+,%d1
 1478 1102 2D40 FF3C 	move.l %d0,-196(%fp)
 1479 1106 2D41 FF40 	move.l %d1,-192(%fp)
 1480 110a 200E      	move.l %fp,%d0
 1481 110c 0680 FFFF 	add.l #-196,%d0
 1481      FF3C 
 1482 1112 5880      	addq.l #4,%d0
 1483 1114 2040      	move.l %d0,%a0
 1484 1116 4290      	clr.l (%a0)
 1485 1118 202E FF3C 	move.l -196(%fp),%d0
 1486 111c 222E FF40 	move.l -192(%fp),%d1
 1487 1120 206E FF34 	move.l -204(%fp),%a0
 1488 1124 226E FF38 	move.l -200(%fp),%a1
 1489 1128 2F01      	move.l %d1,-(%sp)
 1490 112a 2F00      	move.l %d0,-(%sp)
 1491 112c F21F 5400 	fmove.d (%sp)+,%fp0
 1492 1130 2F09      	move.l %a1,-(%sp)
 1493 1132 2F08      	move.l %a0,-(%sp)
 1494 1134 F21F 5480 	fmove.d (%sp)+,%fp1
 1495 1138 F200 0428 	fsub.x %fp1,%fp0
 1496 113c F227 7400 	fmove.d %fp0,-(%sp)
 1497 1140 201F      	move.l (%sp)+,%d0
 1498 1142 221F      	move.l (%sp)+,%d1
 1499 1144 206E FFEC 	move.l -20(%fp),%a0
 1500 1148 2270 8FB0 	move.l dp_h+4(%a0.l*8),%a1
 1500      0000 0000 
 1501 1150 2070 8FB0 	move.l dp_h(%a0.l*8),%a0
 1501      0000 0000 
 1502 1158 2F01      	move.l %d1,-(%sp)
 1503 115a 2F00      	move.l %d0,-(%sp)
 1504 115c F21F 5400 	fmove.d (%sp)+,%fp0
 1505 1160 2F09      	move.l %a1,-(%sp)
 1506 1162 2F08      	move.l %a0,-(%sp)
 1507 1164 F21F 5480 	fmove.d (%sp)+,%fp1
68K GAS   			page 30


 1508 1168 F200 0428 	fsub.x %fp1,%fp0
 1509 116c F227 7400 	fmove.d %fp0,-(%sp)
 1510 1170 201F      	move.l (%sp)+,%d0
 1511 1172 221F      	move.l (%sp)+,%d1
 1512 1174 2F01      	move.l %d1,-(%sp)
 1513 1176 2F00      	move.l %d0,-(%sp)
 1514 1178 F21F 5400 	fmove.d (%sp)+,%fp0
 1515 117c F22E 5428 	fsub.d -144(%fp),%fp0
 1515      FF70 
 1516 1182 F227 7400 	fmove.d %fp0,-(%sp)
 1517 1186 201F      	move.l (%sp)+,%d0
 1518 1188 221F      	move.l (%sp)+,%d1
 1519 118a F22E 5480 	fmove.d -152(%fp),%fp1
 1519      FF68 
 1520 1190 2F01      	move.l %d1,-(%sp)
 1521 1192 2F00      	move.l %d0,-(%sp)
 1522 1194 F21F 5400 	fmove.d (%sp)+,%fp0
 1523 1198 F200 00A8 	fsub.x %fp0,%fp1
 1524 119c F22E 7480 	fmove.d %fp1,-8(%fp)
 1524      FFF8 
 1525               	.L41:
 1526 11a2 202E 0010 	move.l 16(%fp),%d0
 1527 11a6 222E 0014 	move.l 20(%fp),%d1
 1528 11aa 2D40 FF44 	move.l %d0,-188(%fp)
 1529 11ae 2D41 FF48 	move.l %d1,-184(%fp)
 1530 11b2 200E      	move.l %fp,%d0
 1531 11b4 0680 FFFF 	add.l #-188,%d0
 1531      FF44 
 1532 11ba 5880      	addq.l #4,%d0
 1533 11bc 2040      	move.l %d0,%a0
 1534 11be 4290      	clr.l (%a0)
 1535 11c0 202E 0010 	move.l 16(%fp),%d0
 1536 11c4 222E 0014 	move.l 20(%fp),%d1
 1537 11c8 206E FF44 	move.l -188(%fp),%a0
 1538 11cc 226E FF48 	move.l -184(%fp),%a1
 1539 11d0 2F01      	move.l %d1,-(%sp)
 1540 11d2 2F00      	move.l %d0,-(%sp)
 1541 11d4 F21F 5400 	fmove.d (%sp)+,%fp0
 1542 11d8 2F09      	move.l %a1,-(%sp)
 1543 11da 2F08      	move.l %a0,-(%sp)
 1544 11dc F21F 5480 	fmove.d (%sp)+,%fp1
 1545 11e0 F200 0428 	fsub.x %fp1,%fp0
 1546 11e4 F227 7400 	fmove.d %fp0,-(%sp)
 1547 11e8 201F      	move.l (%sp)+,%d0
 1548 11ea 221F      	move.l (%sp)+,%d1
 1549 11ec 206E FF3C 	move.l -196(%fp),%a0
 1550 11f0 226E FF40 	move.l -192(%fp),%a1
 1551 11f4 2F01      	move.l %d1,-(%sp)
 1552 11f6 2F00      	move.l %d0,-(%sp)
 1553 11f8 F21F 5400 	fmove.d (%sp)+,%fp0
 1554 11fc 2F09      	move.l %a1,-(%sp)
 1555 11fe 2F08      	move.l %a0,-(%sp)
 1556 1200 F21F 5480 	fmove.d (%sp)+,%fp1
 1557 1204 F200 0423 	fmul.x %fp1,%fp0
 1558 1208 F227 7400 	fmove.d %fp0,-(%sp)
 1559 120c 205F      	move.l (%sp)+,%a0
 1560 120e 225F      	move.l (%sp)+,%a1
68K GAS   			page 31


 1561 1210 202E 0010 	move.l 16(%fp),%d0
 1562 1214 222E 0014 	move.l 20(%fp),%d1
 1563 1218 2F01      	move.l %d1,-(%sp)
 1564 121a 2F00      	move.l %d0,-(%sp)
 1565 121c F21F 5400 	fmove.d (%sp)+,%fp0
 1566 1220 F22E 5423 	fmul.d -8(%fp),%fp0
 1566      FFF8 
 1567 1226 F227 7400 	fmove.d %fp0,-(%sp)
 1568 122a 201F      	move.l (%sp)+,%d0
 1569 122c 221F      	move.l (%sp)+,%d1
 1570 122e 2F09      	move.l %a1,-(%sp)
 1571 1230 2F08      	move.l %a0,-(%sp)
 1572 1232 F21F 5480 	fmove.d (%sp)+,%fp1
 1573 1236 2F01      	move.l %d1,-(%sp)
 1574 1238 2F00      	move.l %d0,-(%sp)
 1575 123a F21F 5400 	fmove.d (%sp)+,%fp0
 1576 123e F200 00A2 	fadd.x %fp0,%fp1
 1577 1242 F22E 7480 	fmove.d %fp1,-136(%fp)
 1577      FF78 
 1578 1248 206E FF44 	move.l -188(%fp),%a0
 1579 124c 226E FF48 	move.l -184(%fp),%a1
 1580 1250 202E FF3C 	move.l -196(%fp),%d0
 1581 1254 222E FF40 	move.l -192(%fp),%d1
 1582 1258 2F09      	move.l %a1,-(%sp)
 1583 125a 2F08      	move.l %a0,-(%sp)
 1584 125c F21F 5480 	fmove.d (%sp)+,%fp1
 1585 1260 2F01      	move.l %d1,-(%sp)
 1586 1262 2F00      	move.l %d0,-(%sp)
 1587 1264 F21F 5400 	fmove.d (%sp)+,%fp0
 1588 1268 F200 00A3 	fmul.x %fp0,%fp1
 1589 126c F227 7480 	fmove.d %fp1,-(%sp)
 1590 1270 201F      	move.l (%sp)+,%d0
 1591 1272 221F      	move.l (%sp)+,%d1
 1592 1274 2D40 FF4C 	move.l %d0,-180(%fp)
 1593 1278 2D41 FF50 	move.l %d1,-176(%fp)
 1594 127c 202E FF4C 	move.l -180(%fp),%d0
 1595 1280 222E FF50 	move.l -176(%fp),%d1
 1596 1284 2F01      	move.l %d1,-(%sp)
 1597 1286 2F00      	move.l %d0,-(%sp)
 1598 1288 F21F 5480 	fmove.d (%sp)+,%fp1
 1599 128c F22E 54A2 	fadd.d -136(%fp),%fp1
 1599      FF78 
 1600 1292 F227 7480 	fmove.d %fp1,-(%sp)
 1601 1296 201F      	move.l (%sp)+,%d0
 1602 1298 221F      	move.l (%sp)+,%d1
 1603 129a 2D40 FF5C 	move.l %d0,-164(%fp)
 1604 129e 2D41 FF60 	move.l %d1,-160(%fp)
 1605 12a2 200E      	move.l %fp,%d0
 1606 12a4 0680 FFFF 	add.l #-164,%d0
 1606      FF5C 
 1607 12aa 2040      	move.l %d0,%a0
 1608 12ac 2D50 FFC0 	move.l (%a0),-64(%fp)
 1609 12b0 200E      	move.l %fp,%d0
 1610 12b2 0680 FFFF 	add.l #-164,%d0
 1610      FF5C 
 1611 12b8 5880      	addq.l #4,%d0
 1612 12ba 2240      	move.l %d0,%a1
68K GAS   			page 32


 1613 12bc 2D51 FF64 	move.l (%a1),-156(%fp)
 1614 12c0 0CAE 408F 	cmp.l #1083179007,-64(%fp)
 1614      FFFF FFC0 
 1615 12c8 6F00 011E 	jle .L46
 1616 12cc 202E FFC0 	move.l -64(%fp),%d0
 1617 12d0 0680 BF70 	add.l #-1083179008,%d0
 1617      0000 
 1618 12d6 80AE FF64 	or.l -156(%fp),%d0
 1619 12da 4A80      	tst.l %d0
 1620 12dc 674E      	jeq .L47
 1621 12de 2039 0000 	move.l huge,%d0
 1621      0000 
 1622 12e4 2239 0000 	move.l huge+4,%d1
 1622      0000 
 1623 12ea 2F01      	move.l %d1,-(%sp)
 1624 12ec 2F00      	move.l %d0,-(%sp)
 1625 12ee F21F 5400 	fmove.d (%sp)+,%fp0
 1626 12f2 F22E 5423 	fmul.d -16(%fp),%fp0
 1626      FFF0 
 1627 12f8 F227 7400 	fmove.d %fp0,-(%sp)
 1628 12fc 201F      	move.l (%sp)+,%d0
 1629 12fe 221F      	move.l (%sp)+,%d1
 1630 1300 2079 0000 	move.l huge,%a0
 1630      0000 
 1631 1306 2279 0000 	move.l huge+4,%a1
 1631      0000 
 1632 130c 2F01      	move.l %d1,-(%sp)
 1633 130e 2F00      	move.l %d0,-(%sp)
 1634 1310 F21F 5480 	fmove.d (%sp)+,%fp1
 1635 1314 2F09      	move.l %a1,-(%sp)
 1636 1316 2F08      	move.l %a0,-(%sp)
 1637 1318 F21F 5400 	fmove.d (%sp)+,%fp0
 1638 131c F200 00A3 	fmul.x %fp0,%fp1
 1639 1320 F227 7480 	fmove.d %fp1,-(%sp)
 1640 1324 201F      	move.l (%sp)+,%d0
 1641 1326 221F      	move.l (%sp)+,%d1
 1642 1328 6000 078C 	jra .L3
 1643               	.L47:
 1644 132c 2039 0000 	move.l ovt,%d0
 1644      0000 
 1645 1332 2239 0000 	move.l ovt+4,%d1
 1645      0000 
 1646 1338 2F01      	move.l %d1,-(%sp)
 1647 133a 2F00      	move.l %d0,-(%sp)
 1648 133c F21F 5480 	fmove.d (%sp)+,%fp1
 1649 1340 F22E 54A2 	fadd.d -136(%fp),%fp1
 1649      FF78 
 1650 1346 F227 7480 	fmove.d %fp1,-(%sp)
 1651 134a 205F      	move.l (%sp)+,%a0
 1652 134c 225F      	move.l (%sp)+,%a1
 1653 134e 202E FF5C 	move.l -164(%fp),%d0
 1654 1352 222E FF60 	move.l -160(%fp),%d1
 1655 1356 242E FF4C 	move.l -180(%fp),%d2
 1656 135a 262E FF50 	move.l -176(%fp),%d3
 1657 135e 2F01      	move.l %d1,-(%sp)
 1658 1360 2F00      	move.l %d0,-(%sp)
 1659 1362 F21F 5400 	fmove.d (%sp)+,%fp0
68K GAS   			page 33


 1660 1366 2F03      	move.l %d3,-(%sp)
 1661 1368 2F02      	move.l %d2,-(%sp)
 1662 136a F21F 5480 	fmove.d (%sp)+,%fp1
 1663 136e F200 0428 	fsub.x %fp1,%fp0
 1664 1372 F227 7400 	fmove.d %fp0,-(%sp)
 1665 1376 201F      	move.l (%sp)+,%d0
 1666 1378 221F      	move.l (%sp)+,%d1
 1667 137a 2F09      	move.l %a1,-(%sp)
 1668 137c 2F08      	move.l %a0,-(%sp)
 1669 137e F21F 5400 	fmove.d (%sp)+,%fp0
 1670 1382 2F01      	move.l %d1,-(%sp)
 1671 1384 2F00      	move.l %d0,-(%sp)
 1672 1386 F21F 5480 	fmove.d (%sp)+,%fp1
 1673 138a F200 0438 	fcmp.x %fp1,%fp0
 1674 138e F240 0012 	fsgt %d0
 1675 1392 4400      	neg.b %d0
 1676 1394 4A00      	tst.b %d0
 1677 1396 6700 0156 	jeq .L48
 1678 139a 2039 0000 	move.l huge,%d0
 1678      0000 
 1679 13a0 2239 0000 	move.l huge+4,%d1
 1679      0000 
 1680 13a6 2F01      	move.l %d1,-(%sp)
 1681 13a8 2F00      	move.l %d0,-(%sp)
 1682 13aa F21F 5400 	fmove.d (%sp)+,%fp0
 1683 13ae F22E 5423 	fmul.d -16(%fp),%fp0
 1683      FFF0 
 1684 13b4 F227 7400 	fmove.d %fp0,-(%sp)
 1685 13b8 201F      	move.l (%sp)+,%d0
 1686 13ba 221F      	move.l (%sp)+,%d1
 1687 13bc 2079 0000 	move.l huge,%a0
 1687      0000 
 1688 13c2 2279 0000 	move.l huge+4,%a1
 1688      0000 
 1689 13c8 2F01      	move.l %d1,-(%sp)
 1690 13ca 2F00      	move.l %d0,-(%sp)
 1691 13cc F21F 5480 	fmove.d (%sp)+,%fp1
 1692 13d0 2F09      	move.l %a1,-(%sp)
 1693 13d2 2F08      	move.l %a0,-(%sp)
 1694 13d4 F21F 5400 	fmove.d (%sp)+,%fp0
 1695 13d8 F200 00A3 	fmul.x %fp0,%fp1
 1696 13dc F227 7480 	fmove.d %fp1,-(%sp)
 1697 13e0 201F      	move.l (%sp)+,%d0
 1698 13e2 221F      	move.l (%sp)+,%d1
 1699 13e4 6000 06D0 	jra .L3
 1700               	.L46:
 1701 13e8 202E FFC0 	move.l -64(%fp),%d0
 1702 13ec 0880 001F 	bclr #31,%d0
 1703 13f0 0C80 4090 	cmp.l #1083231231,%d0
 1703      CBFF 
 1704 13f6 6F00 00F6 	jle .L48
 1705 13fa 202E FFC0 	move.l -64(%fp),%d0
 1706 13fe 0680 3F6F 	add.l #1064252416,%d0
 1706      3400 
 1707 1404 222E FF64 	move.l -156(%fp),%d1
 1708 1408 8081      	or.l %d1,%d0
 1709 140a 4A80      	tst.l %d0
68K GAS   			page 34


 1710 140c 674E      	jeq .L49
 1711 140e 2039 0000 	move.l tiny,%d0
 1711      0000 
 1712 1414 2239 0000 	move.l tiny+4,%d1
 1712      0000 
 1713 141a 2F01      	move.l %d1,-(%sp)
 1714 141c 2F00      	move.l %d0,-(%sp)
 1715 141e F21F 5480 	fmove.d (%sp)+,%fp1
 1716 1422 F22E 54A3 	fmul.d -16(%fp),%fp1
 1716      FFF0 
 1717 1428 F227 7480 	fmove.d %fp1,-(%sp)
 1718 142c 201F      	move.l (%sp)+,%d0
 1719 142e 221F      	move.l (%sp)+,%d1
 1720 1430 2079 0000 	move.l tiny,%a0
 1720      0000 
 1721 1436 2279 0000 	move.l tiny+4,%a1
 1721      0000 
 1722 143c 2F01      	move.l %d1,-(%sp)
 1723 143e 2F00      	move.l %d0,-(%sp)
 1724 1440 F21F 5400 	fmove.d (%sp)+,%fp0
 1725 1444 2F09      	move.l %a1,-(%sp)
 1726 1446 2F08      	move.l %a0,-(%sp)
 1727 1448 F21F 5480 	fmove.d (%sp)+,%fp1
 1728 144c F200 0423 	fmul.x %fp1,%fp0
 1729 1450 F227 7400 	fmove.d %fp0,-(%sp)
 1730 1454 201F      	move.l (%sp)+,%d0
 1731 1456 221F      	move.l (%sp)+,%d1
 1732 1458 6000 065C 	jra .L3
 1733               	.L49:
 1734 145c 202E FF5C 	move.l -164(%fp),%d0
 1735 1460 222E FF60 	move.l -160(%fp),%d1
 1736 1464 206E FF4C 	move.l -180(%fp),%a0
 1737 1468 226E FF50 	move.l -176(%fp),%a1
 1738 146c 2F01      	move.l %d1,-(%sp)
 1739 146e 2F00      	move.l %d0,-(%sp)
 1740 1470 F21F 5400 	fmove.d (%sp)+,%fp0
 1741 1474 2F09      	move.l %a1,-(%sp)
 1742 1476 2F08      	move.l %a0,-(%sp)
 1743 1478 F21F 5480 	fmove.d (%sp)+,%fp1
 1744 147c F200 0428 	fsub.x %fp1,%fp0
 1745 1480 F227 7400 	fmove.d %fp0,-(%sp)
 1746 1484 201F      	move.l (%sp)+,%d0
 1747 1486 221F      	move.l (%sp)+,%d1
 1748 1488 2F01      	move.l %d1,-(%sp)
 1749 148a 2F00      	move.l %d0,-(%sp)
 1750 148c F21F 5400 	fmove.d (%sp)+,%fp0
 1751 1490 F22E 5438 	fcmp.d -136(%fp),%fp0
 1751      FF78 
 1752 1496 F240 0013 	fsge %d0
 1753 149a 4400      	neg.b %d0
 1754 149c 4A00      	tst.b %d0
 1755 149e 674E      	jeq .L48
 1756 14a0 2039 0000 	move.l tiny,%d0
 1756      0000 
 1757 14a6 2239 0000 	move.l tiny+4,%d1
 1757      0000 
 1758 14ac 2F01      	move.l %d1,-(%sp)
68K GAS   			page 35


 1759 14ae 2F00      	move.l %d0,-(%sp)
 1760 14b0 F21F 5480 	fmove.d (%sp)+,%fp1
 1761 14b4 F22E 54A3 	fmul.d -16(%fp),%fp1
 1761      FFF0 
 1762 14ba F227 7480 	fmove.d %fp1,-(%sp)
 1763 14be 201F      	move.l (%sp)+,%d0
 1764 14c0 221F      	move.l (%sp)+,%d1
 1765 14c2 2079 0000 	move.l tiny,%a0
 1765      0000 
 1766 14c8 2279 0000 	move.l tiny+4,%a1
 1766      0000 
 1767 14ce 2F01      	move.l %d1,-(%sp)
 1768 14d0 2F00      	move.l %d0,-(%sp)
 1769 14d2 F21F 5400 	fmove.d (%sp)+,%fp0
 1770 14d6 2F09      	move.l %a1,-(%sp)
 1771 14d8 2F08      	move.l %a0,-(%sp)
 1772 14da F21F 5480 	fmove.d (%sp)+,%fp1
 1773 14de F200 0423 	fmul.x %fp1,%fp0
 1774 14e2 F227 7400 	fmove.d %fp0,-(%sp)
 1775 14e6 201F      	move.l (%sp)+,%d0
 1776 14e8 221F      	move.l (%sp)+,%d1
 1777 14ea 6000 05CA 	jra .L3
 1778               	.L48:
 1779 14ee 202E FFC0 	move.l -64(%fp),%d0
 1780 14f2 0880 001F 	bclr #31,%d0
 1781 14f6 2D40 FF64 	move.l %d0,-156(%fp)
 1782 14fa 202E FF64 	move.l -156(%fp),%d0
 1783 14fe 7214      	moveq #20,%d1
 1784 1500 E2A0      	asr.l %d1,%d0
 1785 1502 2400      	move.l %d0,%d2
 1786 1504 0682 FFFF 	add.l #-1023,%d2
 1786      FC01 
 1787 150a 2D42 FFEC 	move.l %d2,-20(%fp)
 1788 150e 42AE FFE4 	clr.l -28(%fp)
 1789 1512 0CAE 3FE0 	cmp.l #1071644672,-156(%fp)
 1789      0000 FF64 
 1790 151a 6F00 00C4 	jle .L50
 1791 151e 202E FFEC 	move.l -20(%fp),%d0
 1792 1522 5280      	addq.l #1,%d0
 1793 1524 7210      	moveq #16,%d1
 1794 1526 4841      	swap %d1
 1795 1528 2401      	move.l %d1,%d2
 1796 152a E0A2      	asr.l %d0,%d2
 1797 152c 2002      	move.l %d2,%d0
 1798 152e 2200      	move.l %d0,%d1
 1799 1530 D2AE FFC0 	add.l -64(%fp),%d1
 1800 1534 2D41 FFE4 	move.l %d1,-28(%fp)
 1801 1538 202E FFE4 	move.l -28(%fp),%d0
 1802 153c 0880 001F 	bclr #31,%d0
 1803 1540 7414      	moveq #20,%d2
 1804 1542 E4A0      	asr.l %d2,%d0
 1805 1544 2200      	move.l %d0,%d1
 1806 1546 0681 FFFF 	add.l #-1023,%d1
 1806      FC01 
 1807 154c 2D41 FFEC 	move.l %d1,-20(%fp)
 1808 1550 2039 0000 	move.l zero,%d0
 1808      0000 
68K GAS   			page 36


 1809 1556 2239 0000 	move.l zero+4,%d1
 1809      0000 
 1810 155c 2D40 FF34 	move.l %d0,-204(%fp)
 1811 1560 2D41 FF38 	move.l %d1,-200(%fp)
 1812 1564 200E      	move.l %fp,%d0
 1813 1566 0680 FFFF 	add.l #-204,%d0
 1813      FF34 
 1814 156c 223C 000F 	move.l #1048575,%d1
 1814      FFFF 
 1815 1572 242E FFEC 	move.l -20(%fp),%d2
 1816 1576 E4A1      	asr.l %d2,%d1
 1817 1578 4681      	not.l %d1
 1818 157a C2AE FFE4 	and.l -28(%fp),%d1
 1819 157e 2040      	move.l %d0,%a0
 1820 1580 2081      	move.l %d1,(%a0)
 1821 1582 202E FFE4 	move.l -28(%fp),%d0
 1822 1586 0280 000F 	and.l #1048575,%d0
 1822      FFFF 
 1823 158c 2200      	move.l %d0,%d1
 1824 158e 08C1 0014 	bset #20,%d1
 1825 1592 7014      	moveq #20,%d0
 1826 1594 90AE FFEC 	sub.l -20(%fp),%d0
 1827 1598 2401      	move.l %d1,%d2
 1828 159a E0A2      	asr.l %d0,%d2
 1829 159c 2002      	move.l %d2,%d0
 1830 159e 2D40 FFE4 	move.l %d0,-28(%fp)
 1831 15a2 4AAE FFC0 	tst.l -64(%fp)
 1832 15a6 6C04      	jge .L51
 1833 15a8 44AE FFE4 	neg.l -28(%fp)
 1834               	.L51:
 1835 15ac 202E FF4C 	move.l -180(%fp),%d0
 1836 15b0 222E FF50 	move.l -176(%fp),%d1
 1837 15b4 206E FF34 	move.l -204(%fp),%a0
 1838 15b8 226E FF38 	move.l -200(%fp),%a1
 1839 15bc 2F01      	move.l %d1,-(%sp)
 1840 15be 2F00      	move.l %d0,-(%sp)
 1841 15c0 F21F 5400 	fmove.d (%sp)+,%fp0
 1842 15c4 2F09      	move.l %a1,-(%sp)
 1843 15c6 2F08      	move.l %a0,-(%sp)
 1844 15c8 F21F 5480 	fmove.d (%sp)+,%fp1
 1845 15cc F200 0428 	fsub.x %fp1,%fp0
 1846 15d0 F227 7400 	fmove.d %fp0,-(%sp)
 1847 15d4 201F      	move.l (%sp)+,%d0
 1848 15d6 221F      	move.l (%sp)+,%d1
 1849 15d8 2D40 FF4C 	move.l %d0,-180(%fp)
 1850 15dc 2D41 FF50 	move.l %d1,-176(%fp)
 1851               	.L50:
 1852 15e0 202E FF4C 	move.l -180(%fp),%d0
 1853 15e4 222E FF50 	move.l -176(%fp),%d1
 1854 15e8 2F01      	move.l %d1,-(%sp)
 1855 15ea 2F00      	move.l %d0,-(%sp)
 1856 15ec F21F 5400 	fmove.d (%sp)+,%fp0
 1857 15f0 F22E 5422 	fadd.d -136(%fp),%fp0
 1857      FF78 
 1858 15f6 F227 7400 	fmove.d %fp0,-(%sp)
 1859 15fa 201F      	move.l (%sp)+,%d0
 1860 15fc 221F      	move.l (%sp)+,%d1
68K GAS   			page 37


 1861 15fe 2D40 FF34 	move.l %d0,-204(%fp)
 1862 1602 2D41 FF38 	move.l %d1,-200(%fp)
 1863 1606 200E      	move.l %fp,%d0
 1864 1608 0680 FFFF 	add.l #-204,%d0
 1864      FF34 
 1865 160e 5880      	addq.l #4,%d0
 1866 1610 2040      	move.l %d0,%a0
 1867 1612 4290      	clr.l (%a0)
 1868 1614 206E FF34 	move.l -204(%fp),%a0
 1869 1618 226E FF38 	move.l -200(%fp),%a1
 1870 161c 2039 0000 	move.l lg2_h,%d0
 1870      0000 
 1871 1622 2239 0000 	move.l lg2_h+4,%d1
 1871      0000 
 1872 1628 2F09      	move.l %a1,-(%sp)
 1873 162a 2F08      	move.l %a0,-(%sp)
 1874 162c F21F 5400 	fmove.d (%sp)+,%fp0
 1875 1630 2F01      	move.l %d1,-(%sp)
 1876 1632 2F00      	move.l %d0,-(%sp)
 1877 1634 F21F 5480 	fmove.d (%sp)+,%fp1
 1878 1638 F200 0423 	fmul.x %fp1,%fp0
 1879 163c F22E 7400 	fmove.d %fp0,-80(%fp)
 1879      FFB0 
 1880 1642 202E FF34 	move.l -204(%fp),%d0
 1881 1646 222E FF38 	move.l -200(%fp),%d1
 1882 164a 206E FF4C 	move.l -180(%fp),%a0
 1883 164e 226E FF50 	move.l -176(%fp),%a1
 1884 1652 2F01      	move.l %d1,-(%sp)
 1885 1654 2F00      	move.l %d0,-(%sp)
 1886 1656 F21F 5400 	fmove.d (%sp)+,%fp0
 1887 165a 2F09      	move.l %a1,-(%sp)
 1888 165c 2F08      	move.l %a0,-(%sp)
 1889 165e F21F 5480 	fmove.d (%sp)+,%fp1
 1890 1662 F200 0428 	fsub.x %fp1,%fp0
 1891 1666 F227 7400 	fmove.d %fp0,-(%sp)
 1892 166a 201F      	move.l (%sp)+,%d0
 1893 166c 221F      	move.l (%sp)+,%d1
 1894 166e F22E 5400 	fmove.d -136(%fp),%fp0
 1894      FF78 
 1895 1674 2F01      	move.l %d1,-(%sp)
 1896 1676 2F00      	move.l %d0,-(%sp)
 1897 1678 F21F 5480 	fmove.d (%sp)+,%fp1
 1898 167c F200 0428 	fsub.x %fp1,%fp0
 1899 1680 F227 7400 	fmove.d %fp0,-(%sp)
 1900 1684 201F      	move.l (%sp)+,%d0
 1901 1686 221F      	move.l (%sp)+,%d1
 1902 1688 2079 0000 	move.l lg2,%a0
 1902      0000 
 1903 168e 2279 0000 	move.l lg2+4,%a1
 1903      0000 
 1904 1694 2F01      	move.l %d1,-(%sp)
 1905 1696 2F00      	move.l %d0,-(%sp)
 1906 1698 F21F 5400 	fmove.d (%sp)+,%fp0
 1907 169c 2F09      	move.l %a1,-(%sp)
 1908 169e 2F08      	move.l %a0,-(%sp)
 1909 16a0 F21F 5480 	fmove.d (%sp)+,%fp1
 1910 16a4 F200 0423 	fmul.x %fp1,%fp0
68K GAS   			page 38


 1911 16a8 F227 7400 	fmove.d %fp0,-(%sp)
 1912 16ac 205F      	move.l (%sp)+,%a0
 1913 16ae 225F      	move.l (%sp)+,%a1
 1914 16b0 242E FF34 	move.l -204(%fp),%d2
 1915 16b4 262E FF38 	move.l -200(%fp),%d3
 1916 16b8 2039 0000 	move.l lg2_l,%d0
 1916      0000 
 1917 16be 2239 0000 	move.l lg2_l+4,%d1
 1917      0000 
 1918 16c4 2F03      	move.l %d3,-(%sp)
 1919 16c6 2F02      	move.l %d2,-(%sp)
 1920 16c8 F21F 5400 	fmove.d (%sp)+,%fp0
 1921 16cc 2F01      	move.l %d1,-(%sp)
 1922 16ce 2F00      	move.l %d0,-(%sp)
 1923 16d0 F21F 5480 	fmove.d (%sp)+,%fp1
 1924 16d4 F200 0423 	fmul.x %fp1,%fp0
 1925 16d8 F227 7400 	fmove.d %fp0,-(%sp)
 1926 16dc 201F      	move.l (%sp)+,%d0
 1927 16de 221F      	move.l (%sp)+,%d1
 1928 16e0 2F09      	move.l %a1,-(%sp)
 1929 16e2 2F08      	move.l %a0,-(%sp)
 1930 16e4 F21F 5400 	fmove.d (%sp)+,%fp0
 1931 16e8 2F01      	move.l %d1,-(%sp)
 1932 16ea 2F00      	move.l %d0,-(%sp)
 1933 16ec F21F 5480 	fmove.d (%sp)+,%fp1
 1934 16f0 F200 0422 	fadd.x %fp1,%fp0
 1935 16f4 F22E 7400 	fmove.d %fp0,-88(%fp)
 1935      FFA8 
 1936 16fa F22E 5400 	fmove.d -80(%fp),%fp0
 1936      FFB0 
 1937 1700 F22E 5422 	fadd.d -88(%fp),%fp0
 1937      FFA8 
 1938 1706 F227 7400 	fmove.d %fp0,-(%sp)
 1939 170a 201F      	move.l (%sp)+,%d0
 1940 170c 221F      	move.l (%sp)+,%d1
 1941 170e 2D40 FF5C 	move.l %d0,-164(%fp)
 1942 1712 2D41 FF60 	move.l %d1,-160(%fp)
 1943 1716 202E FF5C 	move.l -164(%fp),%d0
 1944 171a 222E FF60 	move.l -160(%fp),%d1
 1945 171e 2F01      	move.l %d1,-(%sp)
 1946 1720 2F00      	move.l %d0,-(%sp)
 1947 1722 F21F 5480 	fmove.d (%sp)+,%fp1
 1948 1726 F22E 54A8 	fsub.d -80(%fp),%fp1
 1948      FFB0 
 1949 172c F227 7480 	fmove.d %fp1,-(%sp)
 1950 1730 201F      	move.l (%sp)+,%d0
 1951 1732 221F      	move.l (%sp)+,%d1
 1952 1734 F22E 5400 	fmove.d -88(%fp),%fp0
 1952      FFA8 
 1953 173a 2F01      	move.l %d1,-(%sp)
 1954 173c 2F00      	move.l %d0,-(%sp)
 1955 173e F21F 5480 	fmove.d (%sp)+,%fp1
 1956 1742 F200 0428 	fsub.x %fp1,%fp0
 1957 1746 F22E 7400 	fmove.d %fp0,-72(%fp)
 1957      FFB8 
 1958 174c 206E FF5C 	move.l -164(%fp),%a0
 1959 1750 226E FF60 	move.l -160(%fp),%a1
68K GAS   			page 39


 1960 1754 202E FF5C 	move.l -164(%fp),%d0
 1961 1758 222E FF60 	move.l -160(%fp),%d1
 1962 175c 2F09      	move.l %a1,-(%sp)
 1963 175e 2F08      	move.l %a0,-(%sp)
 1964 1760 F21F 5400 	fmove.d (%sp)+,%fp0
 1965 1764 2F01      	move.l %d1,-(%sp)
 1966 1766 2F00      	move.l %d0,-(%sp)
 1967 1768 F21F 5480 	fmove.d (%sp)+,%fp1
 1968 176c F200 0423 	fmul.x %fp1,%fp0
 1969 1770 F227 7400 	fmove.d %fp0,-(%sp)
 1970 1774 201F      	move.l (%sp)+,%d0
 1971 1776 221F      	move.l (%sp)+,%d1
 1972 1778 2D40 FF34 	move.l %d0,-204(%fp)
 1973 177c 2D41 FF38 	move.l %d1,-200(%fp)
 1974 1780 206E FF5C 	move.l -164(%fp),%a0
 1975 1784 226E FF60 	move.l -160(%fp),%a1
 1976 1788 242E FF34 	move.l -204(%fp),%d2
 1977 178c 262E FF38 	move.l -200(%fp),%d3
 1978 1790 2039 0000 	move.l P5,%d0
 1978      0000 
 1979 1796 2239 0000 	move.l P5+4,%d1
 1979      0000 
 1980 179c 2F03      	move.l %d3,-(%sp)
 1981 179e 2F02      	move.l %d2,-(%sp)
 1982 17a0 F21F 5400 	fmove.d (%sp)+,%fp0
 1983 17a4 2F01      	move.l %d1,-(%sp)
 1984 17a6 2F00      	move.l %d0,-(%sp)
 1985 17a8 F21F 5480 	fmove.d (%sp)+,%fp1
 1986 17ac F200 0423 	fmul.x %fp1,%fp0
 1987 17b0 F227 7400 	fmove.d %fp0,-(%sp)
 1988 17b4 201F      	move.l (%sp)+,%d0
 1989 17b6 221F      	move.l (%sp)+,%d1
 1990 17b8 2439 0000 	move.l P4,%d2
 1990      0000 
 1991 17be 2639 0000 	move.l P4+4,%d3
 1991      0000 
 1992 17c4 2F01      	move.l %d1,-(%sp)
 1993 17c6 2F00      	move.l %d0,-(%sp)
 1994 17c8 F21F 5400 	fmove.d (%sp)+,%fp0
 1995 17cc 2F03      	move.l %d3,-(%sp)
 1996 17ce 2F02      	move.l %d2,-(%sp)
 1997 17d0 F21F 5480 	fmove.d (%sp)+,%fp1
 1998 17d4 F200 0422 	fadd.x %fp1,%fp0
 1999 17d8 F227 7400 	fmove.d %fp0,-(%sp)
 2000 17dc 201F      	move.l (%sp)+,%d0
 2001 17de 221F      	move.l (%sp)+,%d1
 2002 17e0 242E FF34 	move.l -204(%fp),%d2
 2003 17e4 262E FF38 	move.l -200(%fp),%d3
 2004 17e8 2F01      	move.l %d1,-(%sp)
 2005 17ea 2F00      	move.l %d0,-(%sp)
 2006 17ec F21F 5400 	fmove.d (%sp)+,%fp0
 2007 17f0 2F03      	move.l %d3,-(%sp)
 2008 17f2 2F02      	move.l %d2,-(%sp)
 2009 17f4 F21F 5480 	fmove.d (%sp)+,%fp1
 2010 17f8 F200 0423 	fmul.x %fp1,%fp0
 2011 17fc F227 7400 	fmove.d %fp0,-(%sp)
 2012 1800 201F      	move.l (%sp)+,%d0
68K GAS   			page 40


 2013 1802 221F      	move.l (%sp)+,%d1
 2014 1804 2439 0000 	move.l P3,%d2
 2014      0000 
 2015 180a 2639 0000 	move.l P3+4,%d3
 2015      0000 
 2016 1810 2F01      	move.l %d1,-(%sp)
 2017 1812 2F00      	move.l %d0,-(%sp)
 2018 1814 F21F 5400 	fmove.d (%sp)+,%fp0
 2019 1818 2F03      	move.l %d3,-(%sp)
 2020 181a 2F02      	move.l %d2,-(%sp)
 2021 181c F21F 5480 	fmove.d (%sp)+,%fp1
 2022 1820 F200 0422 	fadd.x %fp1,%fp0
 2023 1824 F227 7400 	fmove.d %fp0,-(%sp)
 2024 1828 201F      	move.l (%sp)+,%d0
 2025 182a 221F      	move.l (%sp)+,%d1
 2026 182c 242E FF34 	move.l -204(%fp),%d2
 2027 1830 262E FF38 	move.l -200(%fp),%d3
 2028 1834 2F01      	move.l %d1,-(%sp)
 2029 1836 2F00      	move.l %d0,-(%sp)
 2030 1838 F21F 5400 	fmove.d (%sp)+,%fp0
 2031 183c 2F03      	move.l %d3,-(%sp)
 2032 183e 2F02      	move.l %d2,-(%sp)
 2033 1840 F21F 5480 	fmove.d (%sp)+,%fp1
 2034 1844 F200 0423 	fmul.x %fp1,%fp0
 2035 1848 F227 7400 	fmove.d %fp0,-(%sp)
 2036 184c 201F      	move.l (%sp)+,%d0
 2037 184e 221F      	move.l (%sp)+,%d1
 2038 1850 2439 0000 	move.l P2,%d2
 2038      0000 
 2039 1856 2639 0000 	move.l P2+4,%d3
 2039      0000 
 2040 185c 2F01      	move.l %d1,-(%sp)
 2041 185e 2F00      	move.l %d0,-(%sp)
 2042 1860 F21F 5400 	fmove.d (%sp)+,%fp0
 2043 1864 2F03      	move.l %d3,-(%sp)
 2044 1866 2F02      	move.l %d2,-(%sp)
 2045 1868 F21F 5480 	fmove.d (%sp)+,%fp1
 2046 186c F200 0422 	fadd.x %fp1,%fp0
 2047 1870 F227 7400 	fmove.d %fp0,-(%sp)
 2048 1874 201F      	move.l (%sp)+,%d0
 2049 1876 221F      	move.l (%sp)+,%d1
 2050 1878 242E FF34 	move.l -204(%fp),%d2
 2051 187c 262E FF38 	move.l -200(%fp),%d3
 2052 1880 2F01      	move.l %d1,-(%sp)
 2053 1882 2F00      	move.l %d0,-(%sp)
 2054 1884 F21F 5400 	fmove.d (%sp)+,%fp0
 2055 1888 2F03      	move.l %d3,-(%sp)
 2056 188a 2F02      	move.l %d2,-(%sp)
 2057 188c F21F 5480 	fmove.d (%sp)+,%fp1
 2058 1890 F200 0423 	fmul.x %fp1,%fp0
 2059 1894 F227 7400 	fmove.d %fp0,-(%sp)
 2060 1898 201F      	move.l (%sp)+,%d0
 2061 189a 221F      	move.l (%sp)+,%d1
 2062 189c 2439 0000 	move.l P1,%d2
 2062      0000 
 2063 18a2 2639 0000 	move.l P1+4,%d3
 2063      0000 
68K GAS   			page 41


 2064 18a8 2F01      	move.l %d1,-(%sp)
 2065 18aa 2F00      	move.l %d0,-(%sp)
 2066 18ac F21F 5400 	fmove.d (%sp)+,%fp0
 2067 18b0 2F03      	move.l %d3,-(%sp)
 2068 18b2 2F02      	move.l %d2,-(%sp)
 2069 18b4 F21F 5480 	fmove.d (%sp)+,%fp1
 2070 18b8 F200 0422 	fadd.x %fp1,%fp0
 2071 18bc F227 7400 	fmove.d %fp0,-(%sp)
 2072 18c0 201F      	move.l (%sp)+,%d0
 2073 18c2 221F      	move.l (%sp)+,%d1
 2074 18c4 242E FF34 	move.l -204(%fp),%d2
 2075 18c8 262E FF38 	move.l -200(%fp),%d3
 2076 18cc 2F01      	move.l %d1,-(%sp)
 2077 18ce 2F00      	move.l %d0,-(%sp)
 2078 18d0 F21F 5400 	fmove.d (%sp)+,%fp0
 2079 18d4 2F03      	move.l %d3,-(%sp)
 2080 18d6 2F02      	move.l %d2,-(%sp)
 2081 18d8 F21F 5480 	fmove.d (%sp)+,%fp1
 2082 18dc F200 0423 	fmul.x %fp1,%fp0
 2083 18e0 F227 7400 	fmove.d %fp0,-(%sp)
 2084 18e4 201F      	move.l (%sp)+,%d0
 2085 18e6 221F      	move.l (%sp)+,%d1
 2086 18e8 2F09      	move.l %a1,-(%sp)
 2087 18ea 2F08      	move.l %a0,-(%sp)
 2088 18ec F21F 5400 	fmove.d (%sp)+,%fp0
 2089 18f0 2F01      	move.l %d1,-(%sp)
 2090 18f2 2F00      	move.l %d0,-(%sp)
 2091 18f4 F21F 5480 	fmove.d (%sp)+,%fp1
 2092 18f8 F200 0428 	fsub.x %fp1,%fp0
 2093 18fc F227 7400 	fmove.d %fp0,-(%sp)
 2094 1900 201F      	move.l (%sp)+,%d0
 2095 1902 221F      	move.l (%sp)+,%d1
 2096 1904 2D40 FF3C 	move.l %d0,-196(%fp)
 2097 1908 2D41 FF40 	move.l %d1,-192(%fp)
 2098 190c 206E FF5C 	move.l -164(%fp),%a0
 2099 1910 226E FF60 	move.l -160(%fp),%a1
 2100 1914 202E FF3C 	move.l -196(%fp),%d0
 2101 1918 222E FF40 	move.l -192(%fp),%d1
 2102 191c 2F09      	move.l %a1,-(%sp)
 2103 191e 2F08      	move.l %a0,-(%sp)
 2104 1920 F21F 5400 	fmove.d (%sp)+,%fp0
 2105 1924 2F01      	move.l %d1,-(%sp)
 2106 1926 2F00      	move.l %d0,-(%sp)
 2107 1928 F21F 5480 	fmove.d (%sp)+,%fp1
 2108 192c F200 0423 	fmul.x %fp1,%fp0
 2109 1930 F227 7400 	fmove.d %fp0,-(%sp)
 2110 1934 201F      	move.l (%sp)+,%d0
 2111 1936 221F      	move.l (%sp)+,%d1
 2112 1938 206E FF3C 	move.l -196(%fp),%a0
 2113 193c 226E FF40 	move.l -192(%fp),%a1
 2114 1940 2439 0000 	move.l two,%d2
 2114      0000 
 2115 1946 2639 0000 	move.l two+4,%d3
 2115      0000 
 2116 194c 2F09      	move.l %a1,-(%sp)
 2117 194e 2F08      	move.l %a0,-(%sp)
 2118 1950 F21F 5400 	fmove.d (%sp)+,%fp0
68K GAS   			page 42


 2119 1954 2F03      	move.l %d3,-(%sp)
 2120 1956 2F02      	move.l %d2,-(%sp)
 2121 1958 F21F 5480 	fmove.d (%sp)+,%fp1
 2122 195c F200 0428 	fsub.x %fp1,%fp0
 2123 1960 F227 7400 	fmove.d %fp0,-(%sp)
 2124 1964 205F      	move.l (%sp)+,%a0
 2125 1966 225F      	move.l (%sp)+,%a1
 2126 1968 2F01      	move.l %d1,-(%sp)
 2127 196a 2F00      	move.l %d0,-(%sp)
 2128 196c F21F 5400 	fmove.d (%sp)+,%fp0
 2129 1970 2F09      	move.l %a1,-(%sp)
 2130 1972 2F08      	move.l %a0,-(%sp)
 2131 1974 F21F 5480 	fmove.d (%sp)+,%fp1
 2132 1978 F200 0420 	fdiv.x %fp1,%fp0
 2133 197c F227 7400 	fmove.d %fp0,-(%sp)
 2134 1980 201F      	move.l (%sp)+,%d0
 2135 1982 221F      	move.l (%sp)+,%d1
 2136 1984 206E FF5C 	move.l -164(%fp),%a0
 2137 1988 226E FF60 	move.l -160(%fp),%a1
 2138 198c 2F09      	move.l %a1,-(%sp)
 2139 198e 2F08      	move.l %a0,-(%sp)
 2140 1990 F21F 5400 	fmove.d (%sp)+,%fp0
 2141 1994 F22E 5423 	fmul.d -72(%fp),%fp0
 2141      FFB8 
 2142 199a F227 7400 	fmove.d %fp0,-(%sp)
 2143 199e 205F      	move.l (%sp)+,%a0
 2144 19a0 225F      	move.l (%sp)+,%a1
 2145 19a2 2F09      	move.l %a1,-(%sp)
 2146 19a4 2F08      	move.l %a0,-(%sp)
 2147 19a6 F21F 5480 	fmove.d (%sp)+,%fp1
 2148 19aa F22E 54A2 	fadd.d -72(%fp),%fp1
 2148      FFB8 
 2149 19b0 F227 7480 	fmove.d %fp1,-(%sp)
 2150 19b4 205F      	move.l (%sp)+,%a0
 2151 19b6 225F      	move.l (%sp)+,%a1
 2152 19b8 2F01      	move.l %d1,-(%sp)
 2153 19ba 2F00      	move.l %d0,-(%sp)
 2154 19bc F21F 5400 	fmove.d (%sp)+,%fp0
 2155 19c0 2F09      	move.l %a1,-(%sp)
 2156 19c2 2F08      	move.l %a0,-(%sp)
 2157 19c4 F21F 5480 	fmove.d (%sp)+,%fp1
 2158 19c8 F200 0428 	fsub.x %fp1,%fp0
 2159 19cc F22E 7400 	fmove.d %fp0,-128(%fp)
 2159      FF80 
 2160 19d2 2079 0000 	move.l one,%a0
 2160      0000 
 2161 19d8 2279 0000 	move.l one+4,%a1
 2161      0000 
 2162 19de 202E FF5C 	move.l -164(%fp),%d0
 2163 19e2 222E FF60 	move.l -160(%fp),%d1
 2164 19e6 F22E 5400 	fmove.d -128(%fp),%fp0
 2164      FF80 
 2165 19ec 2F01      	move.l %d1,-(%sp)
 2166 19ee 2F00      	move.l %d0,-(%sp)
 2167 19f0 F21F 5480 	fmove.d (%sp)+,%fp1
 2168 19f4 F200 0428 	fsub.x %fp1,%fp0
 2169 19f8 F227 7400 	fmove.d %fp0,-(%sp)
68K GAS   			page 43


 2170 19fc 201F      	move.l (%sp)+,%d0
 2171 19fe 221F      	move.l (%sp)+,%d1
 2172 1a00 2F09      	move.l %a1,-(%sp)
 2173 1a02 2F08      	move.l %a0,-(%sp)
 2174 1a04 F21F 5400 	fmove.d (%sp)+,%fp0
 2175 1a08 2F01      	move.l %d1,-(%sp)
 2176 1a0a 2F00      	move.l %d0,-(%sp)
 2177 1a0c F21F 5480 	fmove.d (%sp)+,%fp1
 2178 1a10 F200 0428 	fsub.x %fp1,%fp0
 2179 1a14 F227 7400 	fmove.d %fp0,-(%sp)
 2180 1a18 201F      	move.l (%sp)+,%d0
 2181 1a1a 221F      	move.l (%sp)+,%d1
 2182 1a1c 2D40 FF5C 	move.l %d0,-164(%fp)
 2183 1a20 2D41 FF60 	move.l %d1,-160(%fp)
 2184 1a24 200E      	move.l %fp,%d0
 2185 1a26 0680 FFFF 	add.l #-164,%d0
 2185      FF5C 
 2186 1a2c 2040      	move.l %d0,%a0
 2187 1a2e 2D50 FFC0 	move.l (%a0),-64(%fp)
 2188 1a32 202E FFE4 	move.l -28(%fp),%d0
 2189 1a36 7214      	moveq #20,%d1
 2190 1a38 E3A8      	lsl.l %d1,%d0
 2191 1a3a D1AE FFC0 	add.l %d0,-64(%fp)
 2192 1a3e 202E FFC0 	move.l -64(%fp),%d0
 2193 1a42 7414      	moveq #20,%d2
 2194 1a44 E4A0      	asr.l %d2,%d0
 2195 1a46 4A80      	tst.l %d0
 2196 1a48 6E2C      	jgt .L52
 2197 1a4a 202E FF5C 	move.l -164(%fp),%d0
 2198 1a4e 222E FF60 	move.l -160(%fp),%d1
 2199 1a52 2F2E FFE4 	move.l -28(%fp),-(%sp)
 2200 1a56 2F01      	move.l %d1,-(%sp)
 2201 1a58 2F00      	move.l %d0,-(%sp)
 2202 1a5a 4EB9 0000 	jsr scalbn
 2202      0000 
 2203 1a60 4FEF 000C 	lea (12,%sp),%sp
 2204 1a64 F227 7400 	fmove.d %fp0,-(%sp)
 2205 1a68 201F      	move.l (%sp)+,%d0
 2206 1a6a 221F      	move.l (%sp)+,%d1
 2207 1a6c 2D40 FF5C 	move.l %d0,-164(%fp)
 2208 1a70 2D41 FF60 	move.l %d1,-160(%fp)
 2209 1a74 6022      	jra .L53
 2210               	.L52:
 2211 1a76 200E      	move.l %fp,%d0
 2212 1a78 0680 FFFF 	add.l #-164,%d0
 2212      FF5C 
 2213 1a7e 220E      	move.l %fp,%d1
 2214 1a80 0681 FFFF 	add.l #-164,%d1
 2214      FF5C 
 2215 1a86 2241      	move.l %d1,%a1
 2216 1a88 2051      	move.l (%a1),%a0
 2217 1a8a 222E FFE4 	move.l -28(%fp),%d1
 2218 1a8e 7414      	moveq #20,%d2
 2219 1a90 E5A9      	lsl.l %d2,%d1
 2220 1a92 D288      	add.l %a0,%d1
 2221 1a94 2040      	move.l %d0,%a0
 2222 1a96 2081      	move.l %d1,(%a0)
68K GAS   			page 44


 2223               	.L53:
 2224 1a98 202E FF5C 	move.l -164(%fp),%d0
 2225 1a9c 222E FF60 	move.l -160(%fp),%d1
 2226 1aa0 2F01      	move.l %d1,-(%sp)
 2227 1aa2 2F00      	move.l %d0,-(%sp)
 2228 1aa4 F21F 5400 	fmove.d (%sp)+,%fp0
 2229 1aa8 F22E 5423 	fmul.d -16(%fp),%fp0
 2229      FFF0 
 2230 1aae F227 7400 	fmove.d %fp0,-(%sp)
 2231 1ab2 201F      	move.l (%sp)+,%d0
 2232 1ab4 221F      	move.l (%sp)+,%d1
 2233               	.L3:
 2234 1ab6 2F01      	move.l %d1,-(%sp)
 2235 1ab8 2F00      	move.l %d0,-(%sp)
 2236 1aba F21F 5400 	fmove.d (%sp)+,%fp0
 2237 1abe 242E FF1C 	move.l -228(%fp),%d2
 2238 1ac2 262E FF20 	move.l -224(%fp),%d3
 2239 1ac6 4E5E      	unlk %fp
 2240 1ac8 4E75      	rts
 2242               	.ident"GCC: (GNU) 4.5.1"
 2243               	.section.note.GNU-stack,"",@progbits
68K GAS   			page 45


DEFINED SYMBOLS
                            *ABS*:00000000 e_pow.c
    {standard input}:6      .data:00000000 sccsid
    {standard input}:12     .rodata:00000000 bp
    {standard input}:20     .rodata:00000010 dp_h
    {standard input}:28     .rodata:00000020 dp_l
    {standard input}:36     .rodata:00000030 zero
    {standard input}:41     .rodata:00000038 one
    {standard input}:47     .rodata:00000040 two
    {standard input}:53     .rodata:00000048 two53
    {standard input}:59     .rodata:00000050 huge
    {standard input}:65     .rodata:00000058 tiny
    {standard input}:71     .rodata:00000060 L1
    {standard input}:77     .rodata:00000068 L2
    {standard input}:83     .rodata:00000070 L3
    {standard input}:89     .rodata:00000078 L4
    {standard input}:95     .rodata:00000080 L5
    {standard input}:101    .rodata:00000088 L6
    {standard input}:107    .rodata:00000090 P1
    {standard input}:113    .rodata:00000098 P2
    {standard input}:119    .rodata:000000a0 P3
    {standard input}:125    .rodata:000000a8 P4
    {standard input}:131    .rodata:000000b0 P5
    {standard input}:137    .rodata:000000b8 lg2
    {standard input}:143    .rodata:000000c0 lg2_h
    {standard input}:149    .rodata:000000c8 lg2_l
    {standard input}:155    .rodata:000000d0 ovt
    {standard input}:161    .rodata:000000d8 cp
    {standard input}:167    .rodata:000000e0 cp_h
    {standard input}:173    .rodata:000000e8 cp_l
    {standard input}:179    .rodata:000000f0 ivln2
    {standard input}:185    .rodata:000000f8 ivln2_h
    {standard input}:191    .rodata:00000100 ivln2_l
    {standard input}:198    .text:00000000 __ieee754_pow

UNDEFINED SYMBOLS
sqrt
fabs
scalbn
