68K GAS   			page 1


   1               	
   2               	.file"e_remainder.c"
   3               	.section.rodata
   4               	.align2
   7               	zero:
   8 0000 0000 0000 	.zero8
   8      0000 0000 
   9               	.text
  10               	.align2
  11               	.globl__ieee754_remainder
  13               	__ieee754_remainder:
  14 0000 4E56 FFE4 	link.w %fp,#-28
  15 0004 2F03      	move.l %d3,-(%sp)
  16 0006 2F02      	move.l %d2,-(%sp)
  17 0008 200E      	move.l %fp,%d0
  18 000a 5080      	addq.l #8,%d0
  19 000c 2040      	move.l %d0,%a0
  20 000e 2D50 FFFC 	move.l (%a0),-4(%fp)
  21 0012 200E      	move.l %fp,%d0
  22 0014 5080      	addq.l #8,%d0
  23 0016 5880      	addq.l #4,%d0
  24 0018 2040      	move.l %d0,%a0
  25 001a 2010      	move.l (%a0),%d0
  26 001c 2D40 FFF8 	move.l %d0,-8(%fp)
  27 0020 7010      	moveq #16,%d0
  28 0022 D08E      	add.l %fp,%d0
  29 0024 2040      	move.l %d0,%a0
  30 0026 2D50 FFF4 	move.l (%a0),-12(%fp)
  31 002a 7010      	moveq #16,%d0
  32 002c D08E      	add.l %fp,%d0
  33 002e 5880      	addq.l #4,%d0
  34 0030 2040      	move.l %d0,%a0
  35 0032 2010      	move.l (%a0),%d0
  36 0034 2D40 FFF0 	move.l %d0,-16(%fp)
  37 0038 202E FFFC 	move.l -4(%fp),%d0
  38 003c 2200      	move.l %d0,%d1
  39 003e 0281 8000 	and.l #-2147483648,%d1
  39      0000 
  40 0044 2D41 FFEC 	move.l %d1,-20(%fp)
  41 0048 08AE 0007 	bclr #7,-12(%fp)
  41      FFF4 
  42 004e 08AE 0007 	bclr #7,-4(%fp)
  42      FFFC 
  43 0054 202E FFF4 	move.l -12(%fp),%d0
  44 0058 80AE FFF0 	or.l -16(%fp),%d0
  45 005c 4A80      	tst.l %d0
  46 005e 6678      	jne .L2
  47 0060 206E 0008 	move.l 8(%fp),%a0
  48 0064 226E 000C 	move.l 12(%fp),%a1
  49 0068 202E 0010 	move.l 16(%fp),%d0
  50 006c 222E 0014 	move.l 20(%fp),%d1
  51 0070 2F09      	move.l %a1,-(%sp)
  52 0072 2F08      	move.l %a0,-(%sp)
  53 0074 F21F 5400 	fmove.d (%sp)+,%fp0
  54 0078 2F01      	move.l %d1,-(%sp)
  55 007a 2F00      	move.l %d0,-(%sp)
  56 007c F21F 5480 	fmove.d (%sp)+,%fp1
68K GAS   			page 2


  57 0080 F200 0423 	fmul.x %fp1,%fp0
  58 0084 F227 7400 	fmove.d %fp0,-(%sp)
  59 0088 201F      	move.l (%sp)+,%d0
  60 008a 221F      	move.l (%sp)+,%d1
  61 008c 242E 0008 	move.l 8(%fp),%d2
  62 0090 262E 000C 	move.l 12(%fp),%d3
  63 0094 206E 0010 	move.l 16(%fp),%a0
  64 0098 226E 0014 	move.l 20(%fp),%a1
  65 009c 2F03      	move.l %d3,-(%sp)
  66 009e 2F02      	move.l %d2,-(%sp)
  67 00a0 F21F 5400 	fmove.d (%sp)+,%fp0
  68 00a4 2F09      	move.l %a1,-(%sp)
  69 00a6 2F08      	move.l %a0,-(%sp)
  70 00a8 F21F 5480 	fmove.d (%sp)+,%fp1
  71 00ac F200 0423 	fmul.x %fp1,%fp0
  72 00b0 F227 7400 	fmove.d %fp0,-(%sp)
  73 00b4 205F      	move.l (%sp)+,%a0
  74 00b6 225F      	move.l (%sp)+,%a1
  75 00b8 2F01      	move.l %d1,-(%sp)
  76 00ba 2F00      	move.l %d0,-(%sp)
  77 00bc F21F 5400 	fmove.d (%sp)+,%fp0
  78 00c0 2F09      	move.l %a1,-(%sp)
  79 00c2 2F08      	move.l %a0,-(%sp)
  80 00c4 F21F 5480 	fmove.d (%sp)+,%fp1
  81 00c8 F200 0420 	fdiv.x %fp1,%fp0
  82 00cc F227 7400 	fmove.d %fp0,-(%sp)
  83 00d0 201F      	move.l (%sp)+,%d0
  84 00d2 221F      	move.l (%sp)+,%d1
  85 00d4 6000 0388 	jra .L3
  86               	.L2:
  87 00d8 0CAE 7FEF 	cmp.l #2146435071,-4(%fp)
  87      FFFF FFFC 
  88 00e0 6E1E      	jgt .L4
  89 00e2 0CAE 7FEF 	cmp.l #2146435071,-12(%fp)
  89      FFFF FFF4 
  90 00ea 6F00 008C 	jle .L5
  91 00ee 202E FFF4 	move.l -12(%fp),%d0
  92 00f2 0680 8010 	add.l #-2146435072,%d0
  92      0000 
  93 00f8 80AE FFF0 	or.l -16(%fp),%d0
  94 00fc 4A80      	tst.l %d0
  95 00fe 6778      	jeq .L5
  96               	.L4:
  97 0100 206E 0008 	move.l 8(%fp),%a0
  98 0104 226E 000C 	move.l 12(%fp),%a1
  99 0108 202E 0010 	move.l 16(%fp),%d0
 100 010c 222E 0014 	move.l 20(%fp),%d1
 101 0110 2F09      	move.l %a1,-(%sp)
 102 0112 2F08      	move.l %a0,-(%sp)
 103 0114 F21F 5400 	fmove.d (%sp)+,%fp0
 104 0118 2F01      	move.l %d1,-(%sp)
 105 011a 2F00      	move.l %d0,-(%sp)
 106 011c F21F 5480 	fmove.d (%sp)+,%fp1
 107 0120 F200 0423 	fmul.x %fp1,%fp0
 108 0124 F227 7400 	fmove.d %fp0,-(%sp)
 109 0128 201F      	move.l (%sp)+,%d0
 110 012a 221F      	move.l (%sp)+,%d1
68K GAS   			page 3


 111 012c 242E 0008 	move.l 8(%fp),%d2
 112 0130 262E 000C 	move.l 12(%fp),%d3
 113 0134 206E 0010 	move.l 16(%fp),%a0
 114 0138 226E 0014 	move.l 20(%fp),%a1
 115 013c 2F03      	move.l %d3,-(%sp)
 116 013e 2F02      	move.l %d2,-(%sp)
 117 0140 F21F 5400 	fmove.d (%sp)+,%fp0
 118 0144 2F09      	move.l %a1,-(%sp)
 119 0146 2F08      	move.l %a0,-(%sp)
 120 0148 F21F 5480 	fmove.d (%sp)+,%fp1
 121 014c F200 0423 	fmul.x %fp1,%fp0
 122 0150 F227 7400 	fmove.d %fp0,-(%sp)
 123 0154 205F      	move.l (%sp)+,%a0
 124 0156 225F      	move.l (%sp)+,%a1
 125 0158 2F01      	move.l %d1,-(%sp)
 126 015a 2F00      	move.l %d0,-(%sp)
 127 015c F21F 5400 	fmove.d (%sp)+,%fp0
 128 0160 2F09      	move.l %a1,-(%sp)
 129 0162 2F08      	move.l %a0,-(%sp)
 130 0164 F21F 5480 	fmove.d (%sp)+,%fp1
 131 0168 F200 0420 	fdiv.x %fp1,%fp0
 132 016c F227 7400 	fmove.d %fp0,-(%sp)
 133 0170 201F      	move.l (%sp)+,%d0
 134 0172 221F      	move.l (%sp)+,%d1
 135 0174 6000 02E8 	jra .L3
 136               	.L5:
 137 0178 0CAE 7FDF 	cmp.l #2145386495,-12(%fp)
 137      FFFF FFF4 
 138 0180 6E4E      	jgt .L6
 139 0182 202E 0010 	move.l 16(%fp),%d0
 140 0186 222E 0014 	move.l 20(%fp),%d1
 141 018a 2F01      	move.l %d1,-(%sp)
 142 018c 2F00      	move.l %d0,-(%sp)
 143 018e F21F 5400 	fmove.d (%sp)+,%fp0
 144 0192 2F01      	move.l %d1,-(%sp)
 145 0194 2F00      	move.l %d0,-(%sp)
 146 0196 F21F 5480 	fmove.d (%sp)+,%fp1
 147 019a F200 0422 	fadd.x %fp1,%fp0
 148 019e F227 7400 	fmove.d %fp0,-(%sp)
 149 01a2 201F      	move.l (%sp)+,%d0
 150 01a4 221F      	move.l (%sp)+,%d1
 151 01a6 206E 0008 	move.l 8(%fp),%a0
 152 01aa 226E 000C 	move.l 12(%fp),%a1
 153 01ae 2F01      	move.l %d1,-(%sp)
 154 01b0 2F00      	move.l %d0,-(%sp)
 155 01b2 2F09      	move.l %a1,-(%sp)
 156 01b4 2F08      	move.l %a0,-(%sp)
 157 01b6 4EB9 0000 	jsr __ieee754_fmod
 157      0000 
 158 01bc 4FEF 0010 	lea (16,%sp),%sp
 159 01c0 F227 7400 	fmove.d %fp0,-(%sp)
 160 01c4 201F      	move.l (%sp)+,%d0
 161 01c6 221F      	move.l (%sp)+,%d1
 162 01c8 2D40 0008 	move.l %d0,8(%fp)
 163 01cc 2D41 000C 	move.l %d1,12(%fp)
 164               	.L6:
 165 01d0 202E FFFC 	move.l -4(%fp),%d0
68K GAS   			page 4


 166 01d4 90AE FFF4 	sub.l -12(%fp),%d0
 167 01d8 2200      	move.l %d0,%d1
 168 01da 202E FFF8 	move.l -8(%fp),%d0
 169 01de 90AE FFF0 	sub.l -16(%fp),%d0
 170 01e2 8081      	or.l %d1,%d0
 171 01e4 4A80      	tst.l %d0
 172 01e6 6634      	jne .L7
 173 01e8 2079 0000 	move.l zero,%a0
 173      0000 
 174 01ee 2279 0000 	move.l zero+4,%a1
 174      0000 
 175 01f4 202E 0008 	move.l 8(%fp),%d0
 176 01f8 222E 000C 	move.l 12(%fp),%d1
 177 01fc 2F09      	move.l %a1,-(%sp)
 178 01fe 2F08      	move.l %a0,-(%sp)
 179 0200 F21F 5400 	fmove.d (%sp)+,%fp0
 180 0204 2F01      	move.l %d1,-(%sp)
 181 0206 2F00      	move.l %d0,-(%sp)
 182 0208 F21F 5480 	fmove.d (%sp)+,%fp1
 183 020c F200 0423 	fmul.x %fp1,%fp0
 184 0210 F227 7400 	fmove.d %fp0,-(%sp)
 185 0214 201F      	move.l (%sp)+,%d0
 186 0216 221F      	move.l (%sp)+,%d1
 187 0218 6000 0244 	jra .L3
 188               	.L7:
 189 021c 202E 0008 	move.l 8(%fp),%d0
 190 0220 222E 000C 	move.l 12(%fp),%d1
 191 0224 2F01      	move.l %d1,-(%sp)
 192 0226 2F00      	move.l %d0,-(%sp)
 193 0228 4EB9 0000 	jsr fabs
 193      0000 
 194 022e 508F      	addq.l #8,%sp
 195 0230 F227 7400 	fmove.d %fp0,-(%sp)
 196 0234 201F      	move.l (%sp)+,%d0
 197 0236 221F      	move.l (%sp)+,%d1
 198 0238 2D40 0008 	move.l %d0,8(%fp)
 199 023c 2D41 000C 	move.l %d1,12(%fp)
 200 0240 202E 0010 	move.l 16(%fp),%d0
 201 0244 222E 0014 	move.l 20(%fp),%d1
 202 0248 2F01      	move.l %d1,-(%sp)
 203 024a 2F00      	move.l %d0,-(%sp)
 204 024c 4EB9 0000 	jsr fabs
 204      0000 
 205 0252 508F      	addq.l #8,%sp
 206 0254 F227 7400 	fmove.d %fp0,-(%sp)
 207 0258 201F      	move.l (%sp)+,%d0
 208 025a 221F      	move.l (%sp)+,%d1
 209 025c 2D40 0010 	move.l %d0,16(%fp)
 210 0260 2D41 0014 	move.l %d1,20(%fp)
 211 0264 0CAE 001F 	cmp.l #2097151,-12(%fp)
 211      FFFF FFF4 
 212 026c 6E00 0106 	jgt .L8
 213 0270 202E 0008 	move.l 8(%fp),%d0
 214 0274 222E 000C 	move.l 12(%fp),%d1
 215 0278 2F01      	move.l %d1,-(%sp)
 216 027a 2F00      	move.l %d0,-(%sp)
 217 027c F21F 5400 	fmove.d (%sp)+,%fp0
68K GAS   			page 5


 218 0280 2F01      	move.l %d1,-(%sp)
 219 0282 2F00      	move.l %d0,-(%sp)
 220 0284 F21F 5480 	fmove.d (%sp)+,%fp1
 221 0288 F200 0422 	fadd.x %fp1,%fp0
 222 028c F227 7400 	fmove.d %fp0,-(%sp)
 223 0290 201F      	move.l (%sp)+,%d0
 224 0292 221F      	move.l (%sp)+,%d1
 225 0294 206E 0010 	move.l 16(%fp),%a0
 226 0298 226E 0014 	move.l 20(%fp),%a1
 227 029c 2F01      	move.l %d1,-(%sp)
 228 029e 2F00      	move.l %d0,-(%sp)
 229 02a0 F21F 5400 	fmove.d (%sp)+,%fp0
 230 02a4 2F09      	move.l %a1,-(%sp)
 231 02a6 2F08      	move.l %a0,-(%sp)
 232 02a8 F21F 5480 	fmove.d (%sp)+,%fp1
 233 02ac F200 0438 	fcmp.x %fp1,%fp0
 234 02b0 F240 0012 	fsgt %d0
 235 02b4 4400      	neg.b %d0
 236 02b6 4A00      	tst.b %d0
 237 02b8 6700 0186 	jeq .L9
 238 02bc 202E 0008 	move.l 8(%fp),%d0
 239 02c0 222E 000C 	move.l 12(%fp),%d1
 240 02c4 206E 0010 	move.l 16(%fp),%a0
 241 02c8 226E 0014 	move.l 20(%fp),%a1
 242 02cc 2F01      	move.l %d1,-(%sp)
 243 02ce 2F00      	move.l %d0,-(%sp)
 244 02d0 F21F 5400 	fmove.d (%sp)+,%fp0
 245 02d4 2F09      	move.l %a1,-(%sp)
 246 02d6 2F08      	move.l %a0,-(%sp)
 247 02d8 F21F 5480 	fmove.d (%sp)+,%fp1
 248 02dc F200 0428 	fsub.x %fp1,%fp0
 249 02e0 F227 7400 	fmove.d %fp0,-(%sp)
 250 02e4 201F      	move.l (%sp)+,%d0
 251 02e6 221F      	move.l (%sp)+,%d1
 252 02e8 2D40 0008 	move.l %d0,8(%fp)
 253 02ec 2D41 000C 	move.l %d1,12(%fp)
 254 02f0 202E 0008 	move.l 8(%fp),%d0
 255 02f4 222E 000C 	move.l 12(%fp),%d1
 256 02f8 2F01      	move.l %d1,-(%sp)
 257 02fa 2F00      	move.l %d0,-(%sp)
 258 02fc F21F 5400 	fmove.d (%sp)+,%fp0
 259 0300 2F01      	move.l %d1,-(%sp)
 260 0302 2F00      	move.l %d0,-(%sp)
 261 0304 F21F 5480 	fmove.d (%sp)+,%fp1
 262 0308 F200 0422 	fadd.x %fp1,%fp0
 263 030c F227 7400 	fmove.d %fp0,-(%sp)
 264 0310 201F      	move.l (%sp)+,%d0
 265 0312 221F      	move.l (%sp)+,%d1
 266 0314 206E 0010 	move.l 16(%fp),%a0
 267 0318 226E 0014 	move.l 20(%fp),%a1
 268 031c 2F01      	move.l %d1,-(%sp)
 269 031e 2F00      	move.l %d0,-(%sp)
 270 0320 F21F 5400 	fmove.d (%sp)+,%fp0
 271 0324 2F09      	move.l %a1,-(%sp)
 272 0326 2F08      	move.l %a0,-(%sp)
 273 0328 F21F 5480 	fmove.d (%sp)+,%fp1
 274 032c F200 0438 	fcmp.x %fp1,%fp0
68K GAS   			page 6


 275 0330 F240 0013 	fsge %d0
 276 0334 4400      	neg.b %d0
 277 0336 4A00      	tst.b %d0
 278 0338 6700 0106 	jeq .L9
 279 033c 202E 0008 	move.l 8(%fp),%d0
 280 0340 222E 000C 	move.l 12(%fp),%d1
 281 0344 206E 0010 	move.l 16(%fp),%a0
 282 0348 226E 0014 	move.l 20(%fp),%a1
 283 034c 2F01      	move.l %d1,-(%sp)
 284 034e 2F00      	move.l %d0,-(%sp)
 285 0350 F21F 5400 	fmove.d (%sp)+,%fp0
 286 0354 2F09      	move.l %a1,-(%sp)
 287 0356 2F08      	move.l %a0,-(%sp)
 288 0358 F21F 5480 	fmove.d (%sp)+,%fp1
 289 035c F200 0428 	fsub.x %fp1,%fp0
 290 0360 F227 7400 	fmove.d %fp0,-(%sp)
 291 0364 201F      	move.l (%sp)+,%d0
 292 0366 221F      	move.l (%sp)+,%d1
 293 0368 2D40 0008 	move.l %d0,8(%fp)
 294 036c 2D41 000C 	move.l %d1,12(%fp)
 295 0370 6000 00CE 	jra .L9
 296               	.L8:
 297 0374 202E 0010 	move.l 16(%fp),%d0
 298 0378 222E 0014 	move.l 20(%fp),%d1
 299 037c 2F01      	move.l %d1,-(%sp)
 300 037e 2F00      	move.l %d0,-(%sp)
 301 0380 F21F 5400 	fmove.d (%sp)+,%fp0
 302 0384 F23C 5423 	fmul.d #0x3fe0000000000000,%fp0
 302      3FE0 0000 
 302      0000 0000 
 303 0390 F22E 7400 	fmove.d %fp0,-28(%fp)
 303      FFE4 
 304 0396 202E 0008 	move.l 8(%fp),%d0
 305 039a 222E 000C 	move.l 12(%fp),%d1
 306 039e 2F01      	move.l %d1,-(%sp)
 307 03a0 2F00      	move.l %d0,-(%sp)
 308 03a2 F21F 5480 	fmove.d (%sp)+,%fp1
 309 03a6 F22E 54B8 	fcmp.d -28(%fp),%fp1
 309      FFE4 
 310 03ac F240 0012 	fsgt %d0
 311 03b0 4400      	neg.b %d0
 312 03b2 4A00      	tst.b %d0
 313 03b4 6700 008A 	jeq .L9
 314 03b8 202E 0008 	move.l 8(%fp),%d0
 315 03bc 222E 000C 	move.l 12(%fp),%d1
 316 03c0 206E 0010 	move.l 16(%fp),%a0
 317 03c4 226E 0014 	move.l 20(%fp),%a1
 318 03c8 2F01      	move.l %d1,-(%sp)
 319 03ca 2F00      	move.l %d0,-(%sp)
 320 03cc F21F 5400 	fmove.d (%sp)+,%fp0
 321 03d0 2F09      	move.l %a1,-(%sp)
 322 03d2 2F08      	move.l %a0,-(%sp)
 323 03d4 F21F 5480 	fmove.d (%sp)+,%fp1
 324 03d8 F200 0428 	fsub.x %fp1,%fp0
 325 03dc F227 7400 	fmove.d %fp0,-(%sp)
 326 03e0 201F      	move.l (%sp)+,%d0
 327 03e2 221F      	move.l (%sp)+,%d1
68K GAS   			page 7


 328 03e4 2D40 0008 	move.l %d0,8(%fp)
 329 03e8 2D41 000C 	move.l %d1,12(%fp)
 330 03ec 202E 0008 	move.l 8(%fp),%d0
 331 03f0 222E 000C 	move.l 12(%fp),%d1
 332 03f4 2F01      	move.l %d1,-(%sp)
 333 03f6 2F00      	move.l %d0,-(%sp)
 334 03f8 F21F 5400 	fmove.d (%sp)+,%fp0
 335 03fc F22E 5438 	fcmp.d -28(%fp),%fp0
 335      FFE4 
 336 0402 F240 0013 	fsge %d0
 337 0406 4400      	neg.b %d0
 338 0408 4A00      	tst.b %d0
 339 040a 6734      	jeq .L9
 340 040c 202E 0008 	move.l 8(%fp),%d0
 341 0410 222E 000C 	move.l 12(%fp),%d1
 342 0414 206E 0010 	move.l 16(%fp),%a0
 343 0418 226E 0014 	move.l 20(%fp),%a1
 344 041c 2F01      	move.l %d1,-(%sp)
 345 041e 2F00      	move.l %d0,-(%sp)
 346 0420 F21F 5480 	fmove.d (%sp)+,%fp1
 347 0424 2F09      	move.l %a1,-(%sp)
 348 0426 2F08      	move.l %a0,-(%sp)
 349 0428 F21F 5400 	fmove.d (%sp)+,%fp0
 350 042c F200 00A8 	fsub.x %fp0,%fp1
 351 0430 F227 7480 	fmove.d %fp1,-(%sp)
 352 0434 201F      	move.l (%sp)+,%d0
 353 0436 221F      	move.l (%sp)+,%d1
 354 0438 2D40 0008 	move.l %d0,8(%fp)
 355 043c 2D41 000C 	move.l %d1,12(%fp)
 356               	.L9:
 357 0440 200E      	move.l %fp,%d0
 358 0442 5080      	addq.l #8,%d0
 359 0444 220E      	move.l %fp,%d1
 360 0446 5081      	addq.l #8,%d1
 361 0448 2041      	move.l %d1,%a0
 362 044a 2210      	move.l (%a0),%d1
 363 044c 242E FFEC 	move.l -20(%fp),%d2
 364 0450 B581      	eor.l %d2,%d1
 365 0452 2040      	move.l %d0,%a0
 366 0454 2081      	move.l %d1,(%a0)
 367 0456 202E 0008 	move.l 8(%fp),%d0
 368 045a 222E 000C 	move.l 12(%fp),%d1
 369               	.L3:
 370 045e 2F01      	move.l %d1,-(%sp)
 371 0460 2F00      	move.l %d0,-(%sp)
 372 0462 F21F 5400 	fmove.d (%sp)+,%fp0
 373 0466 242E FFDC 	move.l -36(%fp),%d2
 374 046a 262E FFE0 	move.l -32(%fp),%d3
 375 046e 4E5E      	unlk %fp
 376 0470 4E75      	rts
 378               	.ident"GCC: (GNU) 4.5.1"
 379               	.section.note.GNU-stack,"",@progbits
68K GAS   			page 8


DEFINED SYMBOLS
                            *ABS*:00000000 e_remainder.c
    {standard input}:7      .rodata:00000000 zero
    {standard input}:13     .text:00000000 __ieee754_remainder

UNDEFINED SYMBOLS
__ieee754_fmod
fabs
