68K GAS   			page 1


   1               	
   2               	.file"k_standard.c"
   3               	.localzero
   4               	.commzero,8,2
   5               	.section.rodata
   6               	.LC0:
   7 0000 6163 6F73 	.string"acos"
   7      00
   8               	.LC1:
   9 0005 6163 6F73 	.string"acos: DOMAIN error\n"
   9      3A20 444F 
   9      4D41 494E 
   9      2065 7272 
   9      6F72 0A00 
  10               	.LC2:
  11 0019 6173 696E 	.string"asin"
  11      00
  12               	.LC3:
  13 001e 6173 696E 	.string"asin: DOMAIN error\n"
  13      3A20 444F 
  13      4D41 494E 
  13      2065 7272 
  13      6F72 0A00 
  14               	.LC4:
  15 0032 6174 616E 	.string"atan2"
  15      3200 
  16               	.LC5:
  17 0038 6174 616E 	.string"atan2: DOMAIN error\n"
  17      323A 2044 
  17      4F4D 4149 
  17      4E20 6572 
  17      726F 720A 
  18               	.LC6:
  19 004d 6879 706F 	.string"hypot"
  19      7400 
  20               	.LC7:
  21 0053 636F 7368 	.string"cosh"
  21      00
  22               	.LC8:
  23 0058 6578 7000 	.string"exp"
  24               	.LC9:
  25 005c 7930 00   	.string"y0"
  26               	.LC10:
  27 005f 7930 3A20 	.string"y0: DOMAIN error\n"
  27      444F 4D41 
  27      494E 2065 
  27      7272 6F72 
  27      0A00 
  28               	.LC11:
  29 0071 7931 00   	.string"y1"
  30               	.LC12:
  31 0074 7931 3A20 	.string"y1: DOMAIN error\n"
  31      444F 4D41 
  31      494E 2065 
  31      7272 6F72 
  31      0A00 
  32               	.LC13:
68K GAS   			page 2


  33 0086 796E 00   	.string"yn"
  34               	.LC14:
  35 0089 796E 3A20 	.string"yn: DOMAIN error\n"
  35      444F 4D41 
  35      494E 2065 
  35      7272 6F72 
  35      0A00 
  36               	.LC15:
  37 009b 6C67 616D 	.string"lgamma"
  37      6D61 00
  38               	.LC16:
  39 00a2 6C67 616D 	.string"lgamma: SING error\n"
  39      6D61 3A20 
  39      5349 4E47 
  39      2065 7272 
  39      6F72 0A00 
  40               	.LC17:
  41 00b6 6C6F 6700 	.string"log"
  42               	.LC18:
  43 00ba 6C6F 673A 	.string"log: SING error\n"
  43      2053 494E 
  43      4720 6572 
  43      726F 720A 
  43      00
  44               	.LC19:
  45 00cb 6C6F 673A 	.string"log: DOMAIN error\n"
  45      2044 4F4D 
  45      4149 4E20 
  45      6572 726F 
  45      720A 00
  46               	.LC20:
  47 00de 6C6F 6731 	.string"log10"
  47      3000 
  48               	.LC21:
  49 00e4 6C6F 6731 	.string"log10: SING error\n"
  49      303A 2053 
  49      494E 4720 
  49      6572 726F 
  49      720A 00
  50               	.LC22:
  51 00f7 6C6F 6731 	.string"log10: DOMAIN error\n"
  51      303A 2044 
  51      4F4D 4149 
  51      4E20 6572 
  51      726F 720A 
  52               	.LC23:
  53 010c 706F 7700 	.string"pow"
  54               	.LC24:
  55 0110 706F 7728 	.string"pow(0,0): DOMAIN error\n"
  55      302C 3029 
  55      3A20 444F 
  55      4D41 494E 
  55      2065 7272 
  56               	.LC25:
  57 0128 706F 7728 	.string"pow(0,neg): DOMAIN error\n"
  57      302C 6E65 
  57      6729 3A20 
68K GAS   			page 3


  57      444F 4D41 
  57      494E 2065 
  58               	.LC26:
  59 0142 6E65 672A 	.string"neg**non-integral: DOMAIN error\n"
  59      2A6E 6F6E 
  59      2D69 6E74 
  59      6567 7261 
  59      6C3A 2044 
  60               	.LC27:
  61 0163 7369 6E68 	.string"sinh"
  61      00
  62               	.LC28:
  63 0168 7371 7274 	.string"sqrt"
  63      00
  64               	.LC29:
  65 016d 7371 7274 	.string"sqrt: DOMAIN error\n"
  65      3A20 444F 
  65      4D41 494E 
  65      2065 7272 
  65      6F72 0A00 
  66               	.LC30:
  67 0181 666D 6F64 	.string"fmod"
  67      00
  68               	.LC31:
  69 0186 666D 6F64 	.string"fmod:  DOMAIN error\n"
  69      3A20 2044 
  69      4F4D 4149 
  69      4E20 6572 
  69      726F 720A 
  70               	.LC32:
  71 019b 7265 6D61 	.string"remainder"
  71      696E 6465 
  71      7200 
  72               	.LC33:
  73 01a5 7265 6D61 	.string"remainder: DOMAIN error\n"
  73      696E 6465 
  73      723A 2044 
  73      4F4D 4149 
  73      4E20 6572 
  74               	.LC34:
  75 01be 6163 6F73 	.string"acosh"
  75      6800 
  76               	.LC35:
  77 01c4 6163 6F73 	.string"acosh: DOMAIN error\n"
  77      683A 2044 
  77      4F4D 4149 
  77      4E20 6572 
  77      726F 720A 
  78               	.LC36:
  79 01d9 6174 616E 	.string"atanh"
  79      6800 
  80               	.LC37:
  81 01df 6174 616E 	.string"atanh: DOMAIN error\n"
  81      683A 2044 
  81      4F4D 4149 
  81      4E20 6572 
  81      726F 720A 
68K GAS   			page 4


  82               	.LC38:
  83 01f4 6174 616E 	.string"atanh: SING error\n"
  83      683A 2053 
  83      494E 4720 
  83      6572 726F 
  83      720A 00
  84               	.LC39:
  85 0207 7363 616C 	.string"scalb"
  85      6200 
  86               	.LC40:
  87 020d 6A30 00   	.string"j0"
  88               	.LC41:
  89 0210 3A20 544C 	.string": TLOSS error\n"
  89      4F53 5320 
  89      6572 726F 
  89      720A 00
  90               	.LC42:
  91 021f 6A31 00   	.string"j1"
  92               	.LC43:
  93 0222 6A6E 00   	.string"jn"
  94               	.LC44:
  95 0225 6761 6D6D 	.string"gamma"
  95      6100 
  96               	.LC45:
  97 022b 6761 6D6D 	.string"gamma: SING error\n"
  97      613A 2053 
  97      494E 4720 
  97      6572 726F 
  97      720A 00
  98               	.text
  99               	.align2
 100               	.globl__kernel_standard
 102               	__kernel_standard:
 103 0000 4E56 FFD8 	link.w %fp,#-40
 104 0004 42AE FFD8 	clr.l -40(%fp)
 105 0008 42AE FFDC 	clr.l -36(%fp)
 106 000c 70D8      	moveq #-40,%d0
 107 000e D08E      	add.l %fp,%d0
 108 0010 2040      	move.l %d0,%a0
 109 0012 20BC 7FF0 	move.l #2146435072,(%a0)
 109      0000 
 110 0018 2D6E 0008 	move.l 8(%fp),-24(%fp)
 110      FFE8 
 111 001e 2D6E 000C 	move.l 12(%fp),-20(%fp)
 111      FFEC 
 112 0024 2D6E 0010 	move.l 16(%fp),-16(%fp)
 112      FFF0 
 113 002a 2D6E 0014 	move.l 20(%fp),-12(%fp)
 113      FFF4 
 114 0030 702A      	moveq #42,%d0
 115 0032 B0AE 0018 	cmp.l 24(%fp),%d0
 116 0036 6500 1C64 	jcs .L2
 117 003a 202E 0018 	move.l 24(%fp),%d0
 118 003e D080      	add.l %d0,%d0
 119 0040 303B 0806 	move.w .L45(%pc,%d0.l),%d0
 120 0044 4EFB 0002 	jmp %pc@(2,%d0:w)
 121               	.balignw 2,0x284c
68K GAS   			page 5


 122               	.L45:
 123 0048 1C54      	.word .L2-.L45
 124 004a 0056      	.word .L3-.L45
 125 004c 00E2      	.word .L4-.L45
 126 004e 016E      	.word .L5-.L45
 127 0050 0212      	.word .L6-.L45
 128 0052 0290      	.word .L7-.L45
 129 0054 030E      	.word .L8-.L45
 130 0056 038C      	.word .L9-.L45
 131 0058 03F2      	.word .L10-.L45
 132 005a 049A      	.word .L11-.L45
 133 005c 0542      	.word .L12-.L45
 134 005e 05EA      	.word .L13-.L45
 135 0060 0692      	.word .L14-.L45
 136 0062 073A      	.word .L15-.L45
 137 0064 07E2      	.word .L16-.L45
 138 0066 0860      	.word .L17-.L45
 139 0068 0904      	.word .L18-.L45
 140 006a 09AC      	.word .L19-.L45
 141 006c 0A54      	.word .L20-.L45
 142 006e 0AFC      	.word .L21-.L45
 143 0070 0BA4      	.word .L22-.L45
 144 0072 0C22      	.word .L23-.L45
 145 0074 0DB2      	.word .L24-.L45
 146 0076 0E18      	.word .L25-.L45
 147 0078 0EC4      	.word .L26-.L45
 148 007a 0F98      	.word .L27-.L45
 149 007c 109A      	.word .L28-.L45
 150 007e 116E      	.word .L29-.L45
 151 0080 123A      	.word .L30-.L45
 152 0082 12EE      	.word .L31-.L45
 153 0084 13A2      	.word .L32-.L45
 154 0086 1456      	.word .L33-.L45
 155 0088 14FC      	.word .L34-.L45
 156 008a 159E      	.word .L35-.L45
 157 008c 1622      	.word .L36-.L45
 158 008e 16CA      	.word .L37-.L45
 159 0090 1772      	.word .L38-.L45
 160 0092 181A      	.word .L39-.L45
 161 0094 18C2      	.word .L40-.L45
 162 0096 196A      	.word .L41-.L45
 163 0098 1A12      	.word .L42-.L45
 164 009a 1A90      	.word .L43-.L45
 165 009c 1B34      	.word .L44-.L45
 166               	.L3:
 167 009e 7201      	moveq #1,%d1
 168 00a0 2D41 FFE0 	move.l %d1,-32(%fp)
 169 00a4 2D7C 0000 	move.l #.LC0,-28(%fp)
 169      0000 FFE4 
 170 00ac 2039 0000 	move.l zero,%d0
 170      0000 
 171 00b2 2239 0000 	move.l zero+4,%d1
 171      0000 
 172 00b8 2D40 FFF8 	move.l %d0,-8(%fp)
 173 00bc 2D41 FFFC 	move.l %d1,-4(%fp)
 174 00c0 2039 0000 	move.l _fdlib_version,%d0
 174      0000 
68K GAS   			page 6


 175 00c6 7202      	moveq #2,%d1
 176 00c8 B280      	cmp.l %d0,%d1
 177 00ca 6612      	jne .L46
 178 00cc 4EB9 0000 	jsr __getErrno
 178      0000 
 179 00d2 2008      	move.l %a0,%d0
 180 00d4 7221      	moveq #33,%d1
 181 00d6 2040      	move.l %d0,%a0
 182 00d8 2081      	move.l %d1,(%a0)
 183 00da 6000 1BC0 	jra .L2
 184               	.L46:
 185 00de 70E0      	moveq #-32,%d0
 186 00e0 D08E      	add.l %fp,%d0
 187 00e2 2F00      	move.l %d0,-(%sp)
 188 00e4 4EB9 0000 	jsr matherr
 188      0000 
 189 00ea 588F      	addq.l #4,%sp
 190 00ec 4A80      	tst.l %d0
 191 00ee 6600 1AF4 	jne .L212
 192 00f2 2039 0000 	move.l _fdlib_version,%d0
 192      0000 
 193 00f8 4A80      	tst.l %d0
 194 00fa 661C      	jne .L48
 195 00fc 203C 0000 	move.l #_pstreams,%d0
 195      0000 
 196 0102 5080      	addq.l #8,%d0
 197 0104 2040      	move.l %d0,%a0
 198 0106 2010      	move.l (%a0),%d0
 199 0108 2F00      	move.l %d0,-(%sp)
 200 010a 4879 0000 	pea .LC1
 200      0000 
 201 0110 4EB9 0000 	jsr fputs
 201      0000 
 202 0116 508F      	addq.l #8,%sp
 203               	.L48:
 204 0118 4EB9 0000 	jsr __getErrno
 204      0000 
 205 011e 2008      	move.l %a0,%d0
 206 0120 7221      	moveq #33,%d1
 207 0122 2040      	move.l %d0,%a0
 208 0124 2081      	move.l %d1,(%a0)
 209 0126 6000 1B74 	jra .L2
 210               	.L4:
 211 012a 7001      	moveq #1,%d0
 212 012c 2D40 FFE0 	move.l %d0,-32(%fp)
 213 0130 2D7C 0000 	move.l #.LC2,-28(%fp)
 213      0000 FFE4 
 214 0138 2039 0000 	move.l zero,%d0
 214      0000 
 215 013e 2239 0000 	move.l zero+4,%d1
 215      0000 
 216 0144 2D40 FFF8 	move.l %d0,-8(%fp)
 217 0148 2D41 FFFC 	move.l %d1,-4(%fp)
 218 014c 2039 0000 	move.l _fdlib_version,%d0
 218      0000 
 219 0152 7202      	moveq #2,%d1
 220 0154 B280      	cmp.l %d0,%d1
68K GAS   			page 7


 221 0156 6612      	jne .L49
 222 0158 4EB9 0000 	jsr __getErrno
 222      0000 
 223 015e 2008      	move.l %a0,%d0
 224 0160 7221      	moveq #33,%d1
 225 0162 2040      	move.l %d0,%a0
 226 0164 2081      	move.l %d1,(%a0)
 227 0166 6000 1B34 	jra .L2
 228               	.L49:
 229 016a 70E0      	moveq #-32,%d0
 230 016c D08E      	add.l %fp,%d0
 231 016e 2F00      	move.l %d0,-(%sp)
 232 0170 4EB9 0000 	jsr matherr
 232      0000 
 233 0176 588F      	addq.l #4,%sp
 234 0178 4A80      	tst.l %d0
 235 017a 6600 1A6E 	jne .L213
 236 017e 2039 0000 	move.l _fdlib_version,%d0
 236      0000 
 237 0184 4A80      	tst.l %d0
 238 0186 661C      	jne .L51
 239 0188 203C 0000 	move.l #_pstreams,%d0
 239      0000 
 240 018e 5080      	addq.l #8,%d0
 241 0190 2040      	move.l %d0,%a0
 242 0192 2010      	move.l (%a0),%d0
 243 0194 2F00      	move.l %d0,-(%sp)
 244 0196 4879 0000 	pea .LC3
 244      0000 
 245 019c 4EB9 0000 	jsr fputs
 245      0000 
 246 01a2 508F      	addq.l #8,%sp
 247               	.L51:
 248 01a4 4EB9 0000 	jsr __getErrno
 248      0000 
 249 01aa 2008      	move.l %a0,%d0
 250 01ac 7221      	moveq #33,%d1
 251 01ae 2040      	move.l %d0,%a0
 252 01b0 2081      	move.l %d1,(%a0)
 253 01b2 6000 1AE8 	jra .L2
 254               	.L5:
 255 01b6 2D6E 0010 	move.l 16(%fp),-24(%fp)
 255      FFE8 
 256 01bc 2D6E 0014 	move.l 20(%fp),-20(%fp)
 256      FFEC 
 257 01c2 2D6E 0008 	move.l 8(%fp),-16(%fp)
 257      FFF0 
 258 01c8 2D6E 000C 	move.l 12(%fp),-12(%fp)
 258      FFF4 
 259 01ce 7001      	moveq #1,%d0
 260 01d0 2D40 FFE0 	move.l %d0,-32(%fp)
 261 01d4 2D7C 0000 	move.l #.LC4,-28(%fp)
 261      0000 FFE4 
 262 01dc 2039 0000 	move.l zero,%d0
 262      0000 
 263 01e2 2239 0000 	move.l zero+4,%d1
 263      0000 
68K GAS   			page 8


 264 01e8 2D40 FFF8 	move.l %d0,-8(%fp)
 265 01ec 2D41 FFFC 	move.l %d1,-4(%fp)
 266 01f0 2039 0000 	move.l _fdlib_version,%d0
 266      0000 
 267 01f6 7202      	moveq #2,%d1
 268 01f8 B280      	cmp.l %d0,%d1
 269 01fa 6612      	jne .L52
 270 01fc 4EB9 0000 	jsr __getErrno
 270      0000 
 271 0202 2008      	move.l %a0,%d0
 272 0204 7221      	moveq #33,%d1
 273 0206 2040      	move.l %d0,%a0
 274 0208 2081      	move.l %d1,(%a0)
 275 020a 6000 1A90 	jra .L2
 276               	.L52:
 277 020e 70E0      	moveq #-32,%d0
 278 0210 D08E      	add.l %fp,%d0
 279 0212 2F00      	move.l %d0,-(%sp)
 280 0214 4EB9 0000 	jsr matherr
 280      0000 
 281 021a 588F      	addq.l #4,%sp
 282 021c 4A80      	tst.l %d0
 283 021e 6600 19D0 	jne .L214
 284 0222 2039 0000 	move.l _fdlib_version,%d0
 284      0000 
 285 0228 4A80      	tst.l %d0
 286 022a 661C      	jne .L54
 287 022c 203C 0000 	move.l #_pstreams,%d0
 287      0000 
 288 0232 5080      	addq.l #8,%d0
 289 0234 2040      	move.l %d0,%a0
 290 0236 2010      	move.l (%a0),%d0
 291 0238 2F00      	move.l %d0,-(%sp)
 292 023a 4879 0000 	pea .LC5
 292      0000 
 293 0240 4EB9 0000 	jsr fputs
 293      0000 
 294 0246 508F      	addq.l #8,%sp
 295               	.L54:
 296 0248 4EB9 0000 	jsr __getErrno
 296      0000 
 297 024e 2008      	move.l %a0,%d0
 298 0250 7221      	moveq #33,%d1
 299 0252 2040      	move.l %d0,%a0
 300 0254 2081      	move.l %d1,(%a0)
 301 0256 6000 1A44 	jra .L2
 302               	.L6:
 303 025a 7003      	moveq #3,%d0
 304 025c 2D40 FFE0 	move.l %d0,-32(%fp)
 305 0260 2D7C 0000 	move.l #.LC6,-28(%fp)
 305      0000 FFE4 
 306 0268 2039 0000 	move.l _fdlib_version,%d0
 306      0000 
 307 026e 4A80      	tst.l %d0
 308 0270 6612      	jne .L55
 309 0272 2D7C 47EF 	move.l #1206910975,-8(%fp)
 309      FFFF FFF8 
68K GAS   			page 9


 310 027a 2D7C E000 	move.l #-536870912,-4(%fp)
 310      0000 FFFC 
 311 0282 6010      	jra .L56
 312               	.L55:
 313 0284 202E FFD8 	move.l -40(%fp),%d0
 314 0288 222E FFDC 	move.l -36(%fp),%d1
 315 028c 2D40 FFF8 	move.l %d0,-8(%fp)
 316 0290 2D41 FFFC 	move.l %d1,-4(%fp)
 317               	.L56:
 318 0294 2039 0000 	move.l _fdlib_version,%d0
 318      0000 
 319 029a 7202      	moveq #2,%d1
 320 029c B280      	cmp.l %d0,%d1
 321 029e 6612      	jne .L57
 322 02a0 4EB9 0000 	jsr __getErrno
 322      0000 
 323 02a6 2008      	move.l %a0,%d0
 324 02a8 7222      	moveq #34,%d1
 325 02aa 2040      	move.l %d0,%a0
 326 02ac 2081      	move.l %d1,(%a0)
 327 02ae 6000 19EC 	jra .L2
 328               	.L57:
 329 02b2 70E0      	moveq #-32,%d0
 330 02b4 D08E      	add.l %fp,%d0
 331 02b6 2F00      	move.l %d0,-(%sp)
 332 02b8 4EB9 0000 	jsr matherr
 332      0000 
 333 02be 588F      	addq.l #4,%sp
 334 02c0 4A80      	tst.l %d0
 335 02c2 6600 1932 	jne .L215
 336 02c6 4EB9 0000 	jsr __getErrno
 336      0000 
 337 02cc 2008      	move.l %a0,%d0
 338 02ce 7222      	moveq #34,%d1
 339 02d0 2040      	move.l %d0,%a0
 340 02d2 2081      	move.l %d1,(%a0)
 341 02d4 6000 19C6 	jra .L2
 342               	.L7:
 343 02d8 7003      	moveq #3,%d0
 344 02da 2D40 FFE0 	move.l %d0,-32(%fp)
 345 02de 2D7C 0000 	move.l #.LC7,-28(%fp)
 345      0000 FFE4 
 346 02e6 2039 0000 	move.l _fdlib_version,%d0
 346      0000 
 347 02ec 4A80      	tst.l %d0
 348 02ee 6612      	jne .L59
 349 02f0 2D7C 47EF 	move.l #1206910975,-8(%fp)
 349      FFFF FFF8 
 350 02f8 2D7C E000 	move.l #-536870912,-4(%fp)
 350      0000 FFFC 
 351 0300 6010      	jra .L60
 352               	.L59:
 353 0302 202E FFD8 	move.l -40(%fp),%d0
 354 0306 222E FFDC 	move.l -36(%fp),%d1
 355 030a 2D40 FFF8 	move.l %d0,-8(%fp)
 356 030e 2D41 FFFC 	move.l %d1,-4(%fp)
 357               	.L60:
68K GAS   			page 10


 358 0312 2039 0000 	move.l _fdlib_version,%d0
 358      0000 
 359 0318 7202      	moveq #2,%d1
 360 031a B280      	cmp.l %d0,%d1
 361 031c 6612      	jne .L61
 362 031e 4EB9 0000 	jsr __getErrno
 362      0000 
 363 0324 2008      	move.l %a0,%d0
 364 0326 7222      	moveq #34,%d1
 365 0328 2040      	move.l %d0,%a0
 366 032a 2081      	move.l %d1,(%a0)
 367 032c 6000 196E 	jra .L2
 368               	.L61:
 369 0330 70E0      	moveq #-32,%d0
 370 0332 D08E      	add.l %fp,%d0
 371 0334 2F00      	move.l %d0,-(%sp)
 372 0336 4EB9 0000 	jsr matherr
 372      0000 
 373 033c 588F      	addq.l #4,%sp
 374 033e 4A80      	tst.l %d0
 375 0340 6600 18BA 	jne .L216
 376 0344 4EB9 0000 	jsr __getErrno
 376      0000 
 377 034a 2008      	move.l %a0,%d0
 378 034c 7222      	moveq #34,%d1
 379 034e 2040      	move.l %d0,%a0
 380 0350 2081      	move.l %d1,(%a0)
 381 0352 6000 1948 	jra .L2
 382               	.L8:
 383 0356 7003      	moveq #3,%d0
 384 0358 2D40 FFE0 	move.l %d0,-32(%fp)
 385 035c 2D7C 0000 	move.l #.LC8,-28(%fp)
 385      0000 FFE4 
 386 0364 2039 0000 	move.l _fdlib_version,%d0
 386      0000 
 387 036a 4A80      	tst.l %d0
 388 036c 6612      	jne .L63
 389 036e 2D7C 47EF 	move.l #1206910975,-8(%fp)
 389      FFFF FFF8 
 390 0376 2D7C E000 	move.l #-536870912,-4(%fp)
 390      0000 FFFC 
 391 037e 6010      	jra .L64
 392               	.L63:
 393 0380 202E FFD8 	move.l -40(%fp),%d0
 394 0384 222E FFDC 	move.l -36(%fp),%d1
 395 0388 2D40 FFF8 	move.l %d0,-8(%fp)
 396 038c 2D41 FFFC 	move.l %d1,-4(%fp)
 397               	.L64:
 398 0390 2039 0000 	move.l _fdlib_version,%d0
 398      0000 
 399 0396 7202      	moveq #2,%d1
 400 0398 B280      	cmp.l %d0,%d1
 401 039a 6612      	jne .L65
 402 039c 4EB9 0000 	jsr __getErrno
 402      0000 
 403 03a2 2008      	move.l %a0,%d0
 404 03a4 7222      	moveq #34,%d1
68K GAS   			page 11


 405 03a6 2040      	move.l %d0,%a0
 406 03a8 2081      	move.l %d1,(%a0)
 407 03aa 6000 18F0 	jra .L2
 408               	.L65:
 409 03ae 70E0      	moveq #-32,%d0
 410 03b0 D08E      	add.l %fp,%d0
 411 03b2 2F00      	move.l %d0,-(%sp)
 412 03b4 4EB9 0000 	jsr matherr
 412      0000 
 413 03ba 588F      	addq.l #4,%sp
 414 03bc 4A80      	tst.l %d0
 415 03be 6600 1842 	jne .L217
 416 03c2 4EB9 0000 	jsr __getErrno
 416      0000 
 417 03c8 2008      	move.l %a0,%d0
 418 03ca 7222      	moveq #34,%d1
 419 03cc 2040      	move.l %d0,%a0
 420 03ce 2081      	move.l %d1,(%a0)
 421 03d0 6000 18CA 	jra .L2
 422               	.L9:
 423 03d4 7004      	moveq #4,%d0
 424 03d6 2D40 FFE0 	move.l %d0,-32(%fp)
 425 03da 2D7C 0000 	move.l #.LC8,-28(%fp)
 425      0000 FFE4 
 426 03e2 2039 0000 	move.l zero,%d0
 426      0000 
 427 03e8 2239 0000 	move.l zero+4,%d1
 427      0000 
 428 03ee 2D40 FFF8 	move.l %d0,-8(%fp)
 429 03f2 2D41 FFFC 	move.l %d1,-4(%fp)
 430 03f6 2039 0000 	move.l _fdlib_version,%d0
 430      0000 
 431 03fc 7202      	moveq #2,%d1
 432 03fe B280      	cmp.l %d0,%d1
 433 0400 6612      	jne .L67
 434 0402 4EB9 0000 	jsr __getErrno
 434      0000 
 435 0408 2008      	move.l %a0,%d0
 436 040a 7222      	moveq #34,%d1
 437 040c 2040      	move.l %d0,%a0
 438 040e 2081      	move.l %d1,(%a0)
 439 0410 6000 188A 	jra .L2
 440               	.L67:
 441 0414 70E0      	moveq #-32,%d0
 442 0416 D08E      	add.l %fp,%d0
 443 0418 2F00      	move.l %d0,-(%sp)
 444 041a 4EB9 0000 	jsr matherr
 444      0000 
 445 0420 588F      	addq.l #4,%sp
 446 0422 4A80      	tst.l %d0
 447 0424 6600 17E2 	jne .L218
 448 0428 4EB9 0000 	jsr __getErrno
 448      0000 
 449 042e 2008      	move.l %a0,%d0
 450 0430 7222      	moveq #34,%d1
 451 0432 2040      	move.l %d0,%a0
 452 0434 2081      	move.l %d1,(%a0)
68K GAS   			page 12


 453 0436 6000 1864 	jra .L2
 454               	.L10:
 455 043a 7001      	moveq #1,%d0
 456 043c 2D40 FFE0 	move.l %d0,-32(%fp)
 457 0440 2D7C 0000 	move.l #.LC9,-28(%fp)
 457      0000 FFE4 
 458 0448 2039 0000 	move.l _fdlib_version,%d0
 458      0000 
 459 044e 4A80      	tst.l %d0
 460 0450 6612      	jne .L69
 461 0452 2D7C C7EF 	move.l #-940572673,-8(%fp)
 461      FFFF FFF8 
 462 045a 2D7C E000 	move.l #-536870912,-4(%fp)
 462      0000 FFFC 
 463 0462 6014      	jra .L70
 464               	.L69:
 465 0464 202E FFD8 	move.l -40(%fp),%d0
 466 0468 222E FFDC 	move.l -36(%fp),%d1
 467 046c 0840 001F 	bchg #31,%d0
 468 0470 2D40 FFF8 	move.l %d0,-8(%fp)
 469 0474 2D41 FFFC 	move.l %d1,-4(%fp)
 470               	.L70:
 471 0478 2039 0000 	move.l _fdlib_version,%d0
 471      0000 
 472 047e 7202      	moveq #2,%d1
 473 0480 B280      	cmp.l %d0,%d1
 474 0482 6612      	jne .L71
 475 0484 4EB9 0000 	jsr __getErrno
 475      0000 
 476 048a 2008      	move.l %a0,%d0
 477 048c 7221      	moveq #33,%d1
 478 048e 2040      	move.l %d0,%a0
 479 0490 2081      	move.l %d1,(%a0)
 480 0492 6000 1808 	jra .L2
 481               	.L71:
 482 0496 70E0      	moveq #-32,%d0
 483 0498 D08E      	add.l %fp,%d0
 484 049a 2F00      	move.l %d0,-(%sp)
 485 049c 4EB9 0000 	jsr matherr
 485      0000 
 486 04a2 588F      	addq.l #4,%sp
 487 04a4 4A80      	tst.l %d0
 488 04a6 6600 1766 	jne .L219
 489 04aa 2039 0000 	move.l _fdlib_version,%d0
 489      0000 
 490 04b0 4A80      	tst.l %d0
 491 04b2 661C      	jne .L73
 492 04b4 203C 0000 	move.l #_pstreams,%d0
 492      0000 
 493 04ba 5080      	addq.l #8,%d0
 494 04bc 2040      	move.l %d0,%a0
 495 04be 2010      	move.l (%a0),%d0
 496 04c0 2F00      	move.l %d0,-(%sp)
 497 04c2 4879 0000 	pea .LC10
 497      0000 
 498 04c8 4EB9 0000 	jsr fputs
 498      0000 
68K GAS   			page 13


 499 04ce 508F      	addq.l #8,%sp
 500               	.L73:
 501 04d0 4EB9 0000 	jsr __getErrno
 501      0000 
 502 04d6 2008      	move.l %a0,%d0
 503 04d8 7221      	moveq #33,%d1
 504 04da 2040      	move.l %d0,%a0
 505 04dc 2081      	move.l %d1,(%a0)
 506 04de 6000 17BC 	jra .L2
 507               	.L11:
 508 04e2 7001      	moveq #1,%d0
 509 04e4 2D40 FFE0 	move.l %d0,-32(%fp)
 510 04e8 2D7C 0000 	move.l #.LC9,-28(%fp)
 510      0000 FFE4 
 511 04f0 2039 0000 	move.l _fdlib_version,%d0
 511      0000 
 512 04f6 4A80      	tst.l %d0
 513 04f8 6612      	jne .L74
 514 04fa 2D7C C7EF 	move.l #-940572673,-8(%fp)
 514      FFFF FFF8 
 515 0502 2D7C E000 	move.l #-536870912,-4(%fp)
 515      0000 FFFC 
 516 050a 6014      	jra .L75
 517               	.L74:
 518 050c 202E FFD8 	move.l -40(%fp),%d0
 519 0510 222E FFDC 	move.l -36(%fp),%d1
 520 0514 0840 001F 	bchg #31,%d0
 521 0518 2D40 FFF8 	move.l %d0,-8(%fp)
 522 051c 2D41 FFFC 	move.l %d1,-4(%fp)
 523               	.L75:
 524 0520 2039 0000 	move.l _fdlib_version,%d0
 524      0000 
 525 0526 7202      	moveq #2,%d1
 526 0528 B280      	cmp.l %d0,%d1
 527 052a 6612      	jne .L76
 528 052c 4EB9 0000 	jsr __getErrno
 528      0000 
 529 0532 2008      	move.l %a0,%d0
 530 0534 7221      	moveq #33,%d1
 531 0536 2040      	move.l %d0,%a0
 532 0538 2081      	move.l %d1,(%a0)
 533 053a 6000 1760 	jra .L2
 534               	.L76:
 535 053e 70E0      	moveq #-32,%d0
 536 0540 D08E      	add.l %fp,%d0
 537 0542 2F00      	move.l %d0,-(%sp)
 538 0544 4EB9 0000 	jsr matherr
 538      0000 
 539 054a 588F      	addq.l #4,%sp
 540 054c 4A80      	tst.l %d0
 541 054e 6600 16C4 	jne .L220
 542 0552 2039 0000 	move.l _fdlib_version,%d0
 542      0000 
 543 0558 4A80      	tst.l %d0
 544 055a 661C      	jne .L78
 545 055c 203C 0000 	move.l #_pstreams,%d0
 545      0000 
68K GAS   			page 14


 546 0562 5080      	addq.l #8,%d0
 547 0564 2040      	move.l %d0,%a0
 548 0566 2010      	move.l (%a0),%d0
 549 0568 2F00      	move.l %d0,-(%sp)
 550 056a 4879 0000 	pea .LC10
 550      0000 
 551 0570 4EB9 0000 	jsr fputs
 551      0000 
 552 0576 508F      	addq.l #8,%sp
 553               	.L78:
 554 0578 4EB9 0000 	jsr __getErrno
 554      0000 
 555 057e 2008      	move.l %a0,%d0
 556 0580 7221      	moveq #33,%d1
 557 0582 2040      	move.l %d0,%a0
 558 0584 2081      	move.l %d1,(%a0)
 559 0586 6000 1714 	jra .L2
 560               	.L12:
 561 058a 7001      	moveq #1,%d0
 562 058c 2D40 FFE0 	move.l %d0,-32(%fp)
 563 0590 2D7C 0000 	move.l #.LC11,-28(%fp)
 563      0000 FFE4 
 564 0598 2039 0000 	move.l _fdlib_version,%d0
 564      0000 
 565 059e 4A80      	tst.l %d0
 566 05a0 6612      	jne .L79
 567 05a2 2D7C C7EF 	move.l #-940572673,-8(%fp)
 567      FFFF FFF8 
 568 05aa 2D7C E000 	move.l #-536870912,-4(%fp)
 568      0000 FFFC 
 569 05b2 6014      	jra .L80
 570               	.L79:
 571 05b4 202E FFD8 	move.l -40(%fp),%d0
 572 05b8 222E FFDC 	move.l -36(%fp),%d1
 573 05bc 0840 001F 	bchg #31,%d0
 574 05c0 2D40 FFF8 	move.l %d0,-8(%fp)
 575 05c4 2D41 FFFC 	move.l %d1,-4(%fp)
 576               	.L80:
 577 05c8 2039 0000 	move.l _fdlib_version,%d0
 577      0000 
 578 05ce 7202      	moveq #2,%d1
 579 05d0 B280      	cmp.l %d0,%d1
 580 05d2 6612      	jne .L81
 581 05d4 4EB9 0000 	jsr __getErrno
 581      0000 
 582 05da 2008      	move.l %a0,%d0
 583 05dc 7221      	moveq #33,%d1
 584 05de 2040      	move.l %d0,%a0
 585 05e0 2081      	move.l %d1,(%a0)
 586 05e2 6000 16B8 	jra .L2
 587               	.L81:
 588 05e6 70E0      	moveq #-32,%d0
 589 05e8 D08E      	add.l %fp,%d0
 590 05ea 2F00      	move.l %d0,-(%sp)
 591 05ec 4EB9 0000 	jsr matherr
 591      0000 
 592 05f2 588F      	addq.l #4,%sp
68K GAS   			page 15


 593 05f4 4A80      	tst.l %d0
 594 05f6 6600 1622 	jne .L221
 595 05fa 2039 0000 	move.l _fdlib_version,%d0
 595      0000 
 596 0600 4A80      	tst.l %d0
 597 0602 661C      	jne .L83
 598 0604 203C 0000 	move.l #_pstreams,%d0
 598      0000 
 599 060a 5080      	addq.l #8,%d0
 600 060c 2040      	move.l %d0,%a0
 601 060e 2010      	move.l (%a0),%d0
 602 0610 2F00      	move.l %d0,-(%sp)
 603 0612 4879 0000 	pea .LC12
 603      0000 
 604 0618 4EB9 0000 	jsr fputs
 604      0000 
 605 061e 508F      	addq.l #8,%sp
 606               	.L83:
 607 0620 4EB9 0000 	jsr __getErrno
 607      0000 
 608 0626 2008      	move.l %a0,%d0
 609 0628 7221      	moveq #33,%d1
 610 062a 2040      	move.l %d0,%a0
 611 062c 2081      	move.l %d1,(%a0)
 612 062e 6000 166C 	jra .L2
 613               	.L13:
 614 0632 7001      	moveq #1,%d0
 615 0634 2D40 FFE0 	move.l %d0,-32(%fp)
 616 0638 2D7C 0000 	move.l #.LC11,-28(%fp)
 616      0000 FFE4 
 617 0640 2039 0000 	move.l _fdlib_version,%d0
 617      0000 
 618 0646 4A80      	tst.l %d0
 619 0648 6612      	jne .L84
 620 064a 2D7C C7EF 	move.l #-940572673,-8(%fp)
 620      FFFF FFF8 
 621 0652 2D7C E000 	move.l #-536870912,-4(%fp)
 621      0000 FFFC 
 622 065a 6014      	jra .L85
 623               	.L84:
 624 065c 202E FFD8 	move.l -40(%fp),%d0
 625 0660 222E FFDC 	move.l -36(%fp),%d1
 626 0664 0840 001F 	bchg #31,%d0
 627 0668 2D40 FFF8 	move.l %d0,-8(%fp)
 628 066c 2D41 FFFC 	move.l %d1,-4(%fp)
 629               	.L85:
 630 0670 2039 0000 	move.l _fdlib_version,%d0
 630      0000 
 631 0676 7202      	moveq #2,%d1
 632 0678 B280      	cmp.l %d0,%d1
 633 067a 6612      	jne .L86
 634 067c 4EB9 0000 	jsr __getErrno
 634      0000 
 635 0682 2008      	move.l %a0,%d0
 636 0684 7221      	moveq #33,%d1
 637 0686 2040      	move.l %d0,%a0
 638 0688 2081      	move.l %d1,(%a0)
68K GAS   			page 16


 639 068a 6000 1610 	jra .L2
 640               	.L86:
 641 068e 70E0      	moveq #-32,%d0
 642 0690 D08E      	add.l %fp,%d0
 643 0692 2F00      	move.l %d0,-(%sp)
 644 0694 4EB9 0000 	jsr matherr
 644      0000 
 645 069a 588F      	addq.l #4,%sp
 646 069c 4A80      	tst.l %d0
 647 069e 6600 157E 	jne .L222
 648 06a2 2039 0000 	move.l _fdlib_version,%d0
 648      0000 
 649 06a8 4A80      	tst.l %d0
 650 06aa 661C      	jne .L88
 651 06ac 203C 0000 	move.l #_pstreams,%d0
 651      0000 
 652 06b2 5080      	addq.l #8,%d0
 653 06b4 2040      	move.l %d0,%a0
 654 06b6 2010      	move.l (%a0),%d0
 655 06b8 2F00      	move.l %d0,-(%sp)
 656 06ba 4879 0000 	pea .LC12
 656      0000 
 657 06c0 4EB9 0000 	jsr fputs
 657      0000 
 658 06c6 508F      	addq.l #8,%sp
 659               	.L88:
 660 06c8 4EB9 0000 	jsr __getErrno
 660      0000 
 661 06ce 2008      	move.l %a0,%d0
 662 06d0 7221      	moveq #33,%d1
 663 06d2 2040      	move.l %d0,%a0
 664 06d4 2081      	move.l %d1,(%a0)
 665 06d6 6000 15C4 	jra .L2
 666               	.L14:
 667 06da 7001      	moveq #1,%d0
 668 06dc 2D40 FFE0 	move.l %d0,-32(%fp)
 669 06e0 2D7C 0000 	move.l #.LC13,-28(%fp)
 669      0000 FFE4 
 670 06e8 2039 0000 	move.l _fdlib_version,%d0
 670      0000 
 671 06ee 4A80      	tst.l %d0
 672 06f0 6612      	jne .L89
 673 06f2 2D7C C7EF 	move.l #-940572673,-8(%fp)
 673      FFFF FFF8 
 674 06fa 2D7C E000 	move.l #-536870912,-4(%fp)
 674      0000 FFFC 
 675 0702 6014      	jra .L90
 676               	.L89:
 677 0704 202E FFD8 	move.l -40(%fp),%d0
 678 0708 222E FFDC 	move.l -36(%fp),%d1
 679 070c 0840 001F 	bchg #31,%d0
 680 0710 2D40 FFF8 	move.l %d0,-8(%fp)
 681 0714 2D41 FFFC 	move.l %d1,-4(%fp)
 682               	.L90:
 683 0718 2039 0000 	move.l _fdlib_version,%d0
 683      0000 
 684 071e 7202      	moveq #2,%d1
68K GAS   			page 17


 685 0720 B280      	cmp.l %d0,%d1
 686 0722 6612      	jne .L91
 687 0724 4EB9 0000 	jsr __getErrno
 687      0000 
 688 072a 2008      	move.l %a0,%d0
 689 072c 7221      	moveq #33,%d1
 690 072e 2040      	move.l %d0,%a0
 691 0730 2081      	move.l %d1,(%a0)
 692 0732 6000 1568 	jra .L2
 693               	.L91:
 694 0736 70E0      	moveq #-32,%d0
 695 0738 D08E      	add.l %fp,%d0
 696 073a 2F00      	move.l %d0,-(%sp)
 697 073c 4EB9 0000 	jsr matherr
 697      0000 
 698 0742 588F      	addq.l #4,%sp
 699 0744 4A80      	tst.l %d0
 700 0746 6600 14DA 	jne .L223
 701 074a 2039 0000 	move.l _fdlib_version,%d0
 701      0000 
 702 0750 4A80      	tst.l %d0
 703 0752 661C      	jne .L93
 704 0754 203C 0000 	move.l #_pstreams,%d0
 704      0000 
 705 075a 5080      	addq.l #8,%d0
 706 075c 2040      	move.l %d0,%a0
 707 075e 2010      	move.l (%a0),%d0
 708 0760 2F00      	move.l %d0,-(%sp)
 709 0762 4879 0000 	pea .LC14
 709      0000 
 710 0768 4EB9 0000 	jsr fputs
 710      0000 
 711 076e 508F      	addq.l #8,%sp
 712               	.L93:
 713 0770 4EB9 0000 	jsr __getErrno
 713      0000 
 714 0776 2008      	move.l %a0,%d0
 715 0778 7221      	moveq #33,%d1
 716 077a 2040      	move.l %d0,%a0
 717 077c 2081      	move.l %d1,(%a0)
 718 077e 6000 151C 	jra .L2
 719               	.L15:
 720 0782 7001      	moveq #1,%d0
 721 0784 2D40 FFE0 	move.l %d0,-32(%fp)
 722 0788 2D7C 0000 	move.l #.LC13,-28(%fp)
 722      0000 FFE4 
 723 0790 2039 0000 	move.l _fdlib_version,%d0
 723      0000 
 724 0796 4A80      	tst.l %d0
 725 0798 6612      	jne .L94
 726 079a 2D7C C7EF 	move.l #-940572673,-8(%fp)
 726      FFFF FFF8 
 727 07a2 2D7C E000 	move.l #-536870912,-4(%fp)
 727      0000 FFFC 
 728 07aa 6014      	jra .L95
 729               	.L94:
 730 07ac 202E FFD8 	move.l -40(%fp),%d0
68K GAS   			page 18


 731 07b0 222E FFDC 	move.l -36(%fp),%d1
 732 07b4 0840 001F 	bchg #31,%d0
 733 07b8 2D40 FFF8 	move.l %d0,-8(%fp)
 734 07bc 2D41 FFFC 	move.l %d1,-4(%fp)
 735               	.L95:
 736 07c0 2039 0000 	move.l _fdlib_version,%d0
 736      0000 
 737 07c6 7202      	moveq #2,%d1
 738 07c8 B280      	cmp.l %d0,%d1
 739 07ca 6612      	jne .L96
 740 07cc 4EB9 0000 	jsr __getErrno
 740      0000 
 741 07d2 2008      	move.l %a0,%d0
 742 07d4 7221      	moveq #33,%d1
 743 07d6 2040      	move.l %d0,%a0
 744 07d8 2081      	move.l %d1,(%a0)
 745 07da 6000 14C0 	jra .L2
 746               	.L96:
 747 07de 70E0      	moveq #-32,%d0
 748 07e0 D08E      	add.l %fp,%d0
 749 07e2 2F00      	move.l %d0,-(%sp)
 750 07e4 4EB9 0000 	jsr matherr
 750      0000 
 751 07ea 588F      	addq.l #4,%sp
 752 07ec 4A80      	tst.l %d0
 753 07ee 6600 1436 	jne .L224
 754 07f2 2039 0000 	move.l _fdlib_version,%d0
 754      0000 
 755 07f8 4A80      	tst.l %d0
 756 07fa 661C      	jne .L98
 757 07fc 203C 0000 	move.l #_pstreams,%d0
 757      0000 
 758 0802 5080      	addq.l #8,%d0
 759 0804 2040      	move.l %d0,%a0
 760 0806 2010      	move.l (%a0),%d0
 761 0808 2F00      	move.l %d0,-(%sp)
 762 080a 4879 0000 	pea .LC14
 762      0000 
 763 0810 4EB9 0000 	jsr fputs
 763      0000 
 764 0816 508F      	addq.l #8,%sp
 765               	.L98:
 766 0818 4EB9 0000 	jsr __getErrno
 766      0000 
 767 081e 2008      	move.l %a0,%d0
 768 0820 7221      	moveq #33,%d1
 769 0822 2040      	move.l %d0,%a0
 770 0824 2081      	move.l %d1,(%a0)
 771 0826 6000 1474 	jra .L2
 772               	.L16:
 773 082a 7003      	moveq #3,%d0
 774 082c 2D40 FFE0 	move.l %d0,-32(%fp)
 775 0830 2D7C 0000 	move.l #.LC15,-28(%fp)
 775      0000 FFE4 
 776 0838 2039 0000 	move.l _fdlib_version,%d0
 776      0000 
 777 083e 4A80      	tst.l %d0
68K GAS   			page 19


 778 0840 6612      	jne .L99
 779 0842 2D7C 47EF 	move.l #1206910975,-8(%fp)
 779      FFFF FFF8 
 780 084a 2D7C E000 	move.l #-536870912,-4(%fp)
 780      0000 FFFC 
 781 0852 6010      	jra .L100
 782               	.L99:
 783 0854 202E FFD8 	move.l -40(%fp),%d0
 784 0858 222E FFDC 	move.l -36(%fp),%d1
 785 085c 2D40 FFF8 	move.l %d0,-8(%fp)
 786 0860 2D41 FFFC 	move.l %d1,-4(%fp)
 787               	.L100:
 788 0864 2039 0000 	move.l _fdlib_version,%d0
 788      0000 
 789 086a 7202      	moveq #2,%d1
 790 086c B280      	cmp.l %d0,%d1
 791 086e 6612      	jne .L101
 792 0870 4EB9 0000 	jsr __getErrno
 792      0000 
 793 0876 2008      	move.l %a0,%d0
 794 0878 7222      	moveq #34,%d1
 795 087a 2040      	move.l %d0,%a0
 796 087c 2081      	move.l %d1,(%a0)
 797 087e 6000 141C 	jra .L2
 798               	.L101:
 799 0882 70E0      	moveq #-32,%d0
 800 0884 D08E      	add.l %fp,%d0
 801 0886 2F00      	move.l %d0,-(%sp)
 802 0888 4EB9 0000 	jsr matherr
 802      0000 
 803 088e 588F      	addq.l #4,%sp
 804 0890 4A80      	tst.l %d0
 805 0892 6600 1396 	jne .L225
 806 0896 4EB9 0000 	jsr __getErrno
 806      0000 
 807 089c 2008      	move.l %a0,%d0
 808 089e 7222      	moveq #34,%d1
 809 08a0 2040      	move.l %d0,%a0
 810 08a2 2081      	move.l %d1,(%a0)
 811 08a4 6000 13F6 	jra .L2
 812               	.L17:
 813 08a8 7002      	moveq #2,%d0
 814 08aa 2D40 FFE0 	move.l %d0,-32(%fp)
 815 08ae 2D7C 0000 	move.l #.LC15,-28(%fp)
 815      0000 FFE4 
 816 08b6 2039 0000 	move.l _fdlib_version,%d0
 816      0000 
 817 08bc 4A80      	tst.l %d0
 818 08be 6612      	jne .L103
 819 08c0 2D7C 47EF 	move.l #1206910975,-8(%fp)
 819      FFFF FFF8 
 820 08c8 2D7C E000 	move.l #-536870912,-4(%fp)
 820      0000 FFFC 
 821 08d0 6010      	jra .L104
 822               	.L103:
 823 08d2 202E FFD8 	move.l -40(%fp),%d0
 824 08d6 222E FFDC 	move.l -36(%fp),%d1
68K GAS   			page 20


 825 08da 2D40 FFF8 	move.l %d0,-8(%fp)
 826 08de 2D41 FFFC 	move.l %d1,-4(%fp)
 827               	.L104:
 828 08e2 2039 0000 	move.l _fdlib_version,%d0
 828      0000 
 829 08e8 7202      	moveq #2,%d1
 830 08ea B280      	cmp.l %d0,%d1
 831 08ec 6612      	jne .L105
 832 08ee 4EB9 0000 	jsr __getErrno
 832      0000 
 833 08f4 2008      	move.l %a0,%d0
 834 08f6 7221      	moveq #33,%d1
 835 08f8 2040      	move.l %d0,%a0
 836 08fa 2081      	move.l %d1,(%a0)
 837 08fc 6000 139E 	jra .L2
 838               	.L105:
 839 0900 70E0      	moveq #-32,%d0
 840 0902 D08E      	add.l %fp,%d0
 841 0904 2F00      	move.l %d0,-(%sp)
 842 0906 4EB9 0000 	jsr matherr
 842      0000 
 843 090c 588F      	addq.l #4,%sp
 844 090e 4A80      	tst.l %d0
 845 0910 6600 131C 	jne .L226
 846 0914 2039 0000 	move.l _fdlib_version,%d0
 846      0000 
 847 091a 4A80      	tst.l %d0
 848 091c 661C      	jne .L107
 849 091e 203C 0000 	move.l #_pstreams,%d0
 849      0000 
 850 0924 5080      	addq.l #8,%d0
 851 0926 2040      	move.l %d0,%a0
 852 0928 2010      	move.l (%a0),%d0
 853 092a 2F00      	move.l %d0,-(%sp)
 854 092c 4879 0000 	pea .LC16
 854      0000 
 855 0932 4EB9 0000 	jsr fputs
 855      0000 
 856 0938 508F      	addq.l #8,%sp
 857               	.L107:
 858 093a 4EB9 0000 	jsr __getErrno
 858      0000 
 859 0940 2008      	move.l %a0,%d0
 860 0942 7221      	moveq #33,%d1
 861 0944 2040      	move.l %d0,%a0
 862 0946 2081      	move.l %d1,(%a0)
 863 0948 6000 1352 	jra .L2
 864               	.L18:
 865 094c 7002      	moveq #2,%d0
 866 094e 2D40 FFE0 	move.l %d0,-32(%fp)
 867 0952 2D7C 0000 	move.l #.LC17,-28(%fp)
 867      0000 FFE4 
 868 095a 2039 0000 	move.l _fdlib_version,%d0
 868      0000 
 869 0960 4A80      	tst.l %d0
 870 0962 6612      	jne .L108
 871 0964 2D7C C7EF 	move.l #-940572673,-8(%fp)
68K GAS   			page 21


 871      FFFF FFF8 
 872 096c 2D7C E000 	move.l #-536870912,-4(%fp)
 872      0000 FFFC 
 873 0974 6014      	jra .L109
 874               	.L108:
 875 0976 202E FFD8 	move.l -40(%fp),%d0
 876 097a 222E FFDC 	move.l -36(%fp),%d1
 877 097e 0840 001F 	bchg #31,%d0
 878 0982 2D40 FFF8 	move.l %d0,-8(%fp)
 879 0986 2D41 FFFC 	move.l %d1,-4(%fp)
 880               	.L109:
 881 098a 2039 0000 	move.l _fdlib_version,%d0
 881      0000 
 882 0990 7202      	moveq #2,%d1
 883 0992 B280      	cmp.l %d0,%d1
 884 0994 6612      	jne .L110
 885 0996 4EB9 0000 	jsr __getErrno
 885      0000 
 886 099c 2008      	move.l %a0,%d0
 887 099e 7222      	moveq #34,%d1
 888 09a0 2040      	move.l %d0,%a0
 889 09a2 2081      	move.l %d1,(%a0)
 890 09a4 6000 12F6 	jra .L2
 891               	.L110:
 892 09a8 70E0      	moveq #-32,%d0
 893 09aa D08E      	add.l %fp,%d0
 894 09ac 2F00      	move.l %d0,-(%sp)
 895 09ae 4EB9 0000 	jsr matherr
 895      0000 
 896 09b4 588F      	addq.l #4,%sp
 897 09b6 4A80      	tst.l %d0
 898 09b8 6600 1278 	jne .L227
 899 09bc 2039 0000 	move.l _fdlib_version,%d0
 899      0000 
 900 09c2 4A80      	tst.l %d0
 901 09c4 661C      	jne .L112
 902 09c6 203C 0000 	move.l #_pstreams,%d0
 902      0000 
 903 09cc 5080      	addq.l #8,%d0
 904 09ce 2040      	move.l %d0,%a0
 905 09d0 2010      	move.l (%a0),%d0
 906 09d2 2F00      	move.l %d0,-(%sp)
 907 09d4 4879 0000 	pea .LC18
 907      0000 
 908 09da 4EB9 0000 	jsr fputs
 908      0000 
 909 09e0 508F      	addq.l #8,%sp
 910               	.L112:
 911 09e2 4EB9 0000 	jsr __getErrno
 911      0000 
 912 09e8 2008      	move.l %a0,%d0
 913 09ea 7221      	moveq #33,%d1
 914 09ec 2040      	move.l %d0,%a0
 915 09ee 2081      	move.l %d1,(%a0)
 916 09f0 6000 12AA 	jra .L2
 917               	.L19:
 918 09f4 7001      	moveq #1,%d0
68K GAS   			page 22


 919 09f6 2D40 FFE0 	move.l %d0,-32(%fp)
 920 09fa 2D7C 0000 	move.l #.LC17,-28(%fp)
 920      0000 FFE4 
 921 0a02 2039 0000 	move.l _fdlib_version,%d0
 921      0000 
 922 0a08 4A80      	tst.l %d0
 923 0a0a 6612      	jne .L113
 924 0a0c 2D7C C7EF 	move.l #-940572673,-8(%fp)
 924      FFFF FFF8 
 925 0a14 2D7C E000 	move.l #-536870912,-4(%fp)
 925      0000 FFFC 
 926 0a1c 6014      	jra .L114
 927               	.L113:
 928 0a1e 202E FFD8 	move.l -40(%fp),%d0
 929 0a22 222E FFDC 	move.l -36(%fp),%d1
 930 0a26 0840 001F 	bchg #31,%d0
 931 0a2a 2D40 FFF8 	move.l %d0,-8(%fp)
 932 0a2e 2D41 FFFC 	move.l %d1,-4(%fp)
 933               	.L114:
 934 0a32 2039 0000 	move.l _fdlib_version,%d0
 934      0000 
 935 0a38 7202      	moveq #2,%d1
 936 0a3a B280      	cmp.l %d0,%d1
 937 0a3c 6612      	jne .L115
 938 0a3e 4EB9 0000 	jsr __getErrno
 938      0000 
 939 0a44 2008      	move.l %a0,%d0
 940 0a46 7221      	moveq #33,%d1
 941 0a48 2040      	move.l %d0,%a0
 942 0a4a 2081      	move.l %d1,(%a0)
 943 0a4c 6000 124E 	jra .L2
 944               	.L115:
 945 0a50 70E0      	moveq #-32,%d0
 946 0a52 D08E      	add.l %fp,%d0
 947 0a54 2F00      	move.l %d0,-(%sp)
 948 0a56 4EB9 0000 	jsr matherr
 948      0000 
 949 0a5c 588F      	addq.l #4,%sp
 950 0a5e 4A80      	tst.l %d0
 951 0a60 6600 11D4 	jne .L228
 952 0a64 2039 0000 	move.l _fdlib_version,%d0
 952      0000 
 953 0a6a 4A80      	tst.l %d0
 954 0a6c 661C      	jne .L117
 955 0a6e 203C 0000 	move.l #_pstreams,%d0
 955      0000 
 956 0a74 5080      	addq.l #8,%d0
 957 0a76 2040      	move.l %d0,%a0
 958 0a78 2010      	move.l (%a0),%d0
 959 0a7a 2F00      	move.l %d0,-(%sp)
 960 0a7c 4879 0000 	pea .LC19
 960      0000 
 961 0a82 4EB9 0000 	jsr fputs
 961      0000 
 962 0a88 508F      	addq.l #8,%sp
 963               	.L117:
 964 0a8a 4EB9 0000 	jsr __getErrno
68K GAS   			page 23


 964      0000 
 965 0a90 2008      	move.l %a0,%d0
 966 0a92 7221      	moveq #33,%d1
 967 0a94 2040      	move.l %d0,%a0
 968 0a96 2081      	move.l %d1,(%a0)
 969 0a98 6000 1202 	jra .L2
 970               	.L20:
 971 0a9c 7002      	moveq #2,%d0
 972 0a9e 2D40 FFE0 	move.l %d0,-32(%fp)
 973 0aa2 2D7C 0000 	move.l #.LC20,-28(%fp)
 973      0000 FFE4 
 974 0aaa 2039 0000 	move.l _fdlib_version,%d0
 974      0000 
 975 0ab0 4A80      	tst.l %d0
 976 0ab2 6612      	jne .L118
 977 0ab4 2D7C C7EF 	move.l #-940572673,-8(%fp)
 977      FFFF FFF8 
 978 0abc 2D7C E000 	move.l #-536870912,-4(%fp)
 978      0000 FFFC 
 979 0ac4 6014      	jra .L119
 980               	.L118:
 981 0ac6 202E FFD8 	move.l -40(%fp),%d0
 982 0aca 222E FFDC 	move.l -36(%fp),%d1
 983 0ace 0840 001F 	bchg #31,%d0
 984 0ad2 2D40 FFF8 	move.l %d0,-8(%fp)
 985 0ad6 2D41 FFFC 	move.l %d1,-4(%fp)
 986               	.L119:
 987 0ada 2039 0000 	move.l _fdlib_version,%d0
 987      0000 
 988 0ae0 7202      	moveq #2,%d1
 989 0ae2 B280      	cmp.l %d0,%d1
 990 0ae4 6612      	jne .L120
 991 0ae6 4EB9 0000 	jsr __getErrno
 991      0000 
 992 0aec 2008      	move.l %a0,%d0
 993 0aee 7222      	moveq #34,%d1
 994 0af0 2040      	move.l %d0,%a0
 995 0af2 2081      	move.l %d1,(%a0)
 996 0af4 6000 11A6 	jra .L2
 997               	.L120:
 998 0af8 70E0      	moveq #-32,%d0
 999 0afa D08E      	add.l %fp,%d0
 1000 0afc 2F00      	move.l %d0,-(%sp)
 1001 0afe 4EB9 0000 	jsr matherr
 1001      0000 
 1002 0b04 588F      	addq.l #4,%sp
 1003 0b06 4A80      	tst.l %d0
 1004 0b08 6600 1130 	jne .L229
 1005 0b0c 2039 0000 	move.l _fdlib_version,%d0
 1005      0000 
 1006 0b12 4A80      	tst.l %d0
 1007 0b14 661C      	jne .L122
 1008 0b16 203C 0000 	move.l #_pstreams,%d0
 1008      0000 
 1009 0b1c 5080      	addq.l #8,%d0
 1010 0b1e 2040      	move.l %d0,%a0
 1011 0b20 2010      	move.l (%a0),%d0
68K GAS   			page 24


 1012 0b22 2F00      	move.l %d0,-(%sp)
 1013 0b24 4879 0000 	pea .LC21
 1013      0000 
 1014 0b2a 4EB9 0000 	jsr fputs
 1014      0000 
 1015 0b30 508F      	addq.l #8,%sp
 1016               	.L122:
 1017 0b32 4EB9 0000 	jsr __getErrno
 1017      0000 
 1018 0b38 2008      	move.l %a0,%d0
 1019 0b3a 7221      	moveq #33,%d1
 1020 0b3c 2040      	move.l %d0,%a0
 1021 0b3e 2081      	move.l %d1,(%a0)
 1022 0b40 6000 115A 	jra .L2
 1023               	.L21:
 1024 0b44 7001      	moveq #1,%d0
 1025 0b46 2D40 FFE0 	move.l %d0,-32(%fp)
 1026 0b4a 2D7C 0000 	move.l #.LC20,-28(%fp)
 1026      0000 FFE4 
 1027 0b52 2039 0000 	move.l _fdlib_version,%d0
 1027      0000 
 1028 0b58 4A80      	tst.l %d0
 1029 0b5a 6612      	jne .L123
 1030 0b5c 2D7C C7EF 	move.l #-940572673,-8(%fp)
 1030      FFFF FFF8 
 1031 0b64 2D7C E000 	move.l #-536870912,-4(%fp)
 1031      0000 FFFC 
 1032 0b6c 6014      	jra .L124
 1033               	.L123:
 1034 0b6e 202E FFD8 	move.l -40(%fp),%d0
 1035 0b72 222E FFDC 	move.l -36(%fp),%d1
 1036 0b76 0840 001F 	bchg #31,%d0
 1037 0b7a 2D40 FFF8 	move.l %d0,-8(%fp)
 1038 0b7e 2D41 FFFC 	move.l %d1,-4(%fp)
 1039               	.L124:
 1040 0b82 2039 0000 	move.l _fdlib_version,%d0
 1040      0000 
 1041 0b88 7202      	moveq #2,%d1
 1042 0b8a B280      	cmp.l %d0,%d1
 1043 0b8c 6612      	jne .L125
 1044 0b8e 4EB9 0000 	jsr __getErrno
 1044      0000 
 1045 0b94 2008      	move.l %a0,%d0
 1046 0b96 7221      	moveq #33,%d1
 1047 0b98 2040      	move.l %d0,%a0
 1048 0b9a 2081      	move.l %d1,(%a0)
 1049 0b9c 6000 10FE 	jra .L2
 1050               	.L125:
 1051 0ba0 70E0      	moveq #-32,%d0
 1052 0ba2 D08E      	add.l %fp,%d0
 1053 0ba4 2F00      	move.l %d0,-(%sp)
 1054 0ba6 4EB9 0000 	jsr matherr
 1054      0000 
 1055 0bac 588F      	addq.l #4,%sp
 1056 0bae 4A80      	tst.l %d0
 1057 0bb0 6600 108C 	jne .L230
 1058 0bb4 2039 0000 	move.l _fdlib_version,%d0
68K GAS   			page 25


 1058      0000 
 1059 0bba 4A80      	tst.l %d0
 1060 0bbc 661C      	jne .L127
 1061 0bbe 203C 0000 	move.l #_pstreams,%d0
 1061      0000 
 1062 0bc4 5080      	addq.l #8,%d0
 1063 0bc6 2040      	move.l %d0,%a0
 1064 0bc8 2010      	move.l (%a0),%d0
 1065 0bca 2F00      	move.l %d0,-(%sp)
 1066 0bcc 4879 0000 	pea .LC22
 1066      0000 
 1067 0bd2 4EB9 0000 	jsr fputs
 1067      0000 
 1068 0bd8 508F      	addq.l #8,%sp
 1069               	.L127:
 1070 0bda 4EB9 0000 	jsr __getErrno
 1070      0000 
 1071 0be0 2008      	move.l %a0,%d0
 1072 0be2 7221      	moveq #33,%d1
 1073 0be4 2040      	move.l %d0,%a0
 1074 0be6 2081      	move.l %d1,(%a0)
 1075 0be8 6000 10B2 	jra .L2
 1076               	.L22:
 1077 0bec 7001      	moveq #1,%d0
 1078 0bee 2D40 FFE0 	move.l %d0,-32(%fp)
 1079 0bf2 2D7C 0000 	move.l #.LC23,-28(%fp)
 1079      0000 FFE4 
 1080 0bfa 2039 0000 	move.l zero,%d0
 1080      0000 
 1081 0c00 2239 0000 	move.l zero+4,%d1
 1081      0000 
 1082 0c06 2D40 FFF8 	move.l %d0,-8(%fp)
 1083 0c0a 2D41 FFFC 	move.l %d1,-4(%fp)
 1084 0c0e 2039 0000 	move.l _fdlib_version,%d0
 1084      0000 
 1085 0c14 4A80      	tst.l %d0
 1086 0c16 6710      	jeq .L128
 1087 0c18 2D7C 3FF0 	move.l #1072693248,-8(%fp)
 1087      0000 FFF8 
 1088 0c20 42AE FFFC 	clr.l -4(%fp)
 1089 0c24 6000 1076 	jra .L2
 1090               	.L128:
 1091 0c28 70E0      	moveq #-32,%d0
 1092 0c2a D08E      	add.l %fp,%d0
 1093 0c2c 2F00      	move.l %d0,-(%sp)
 1094 0c2e 4EB9 0000 	jsr matherr
 1094      0000 
 1095 0c34 588F      	addq.l #4,%sp
 1096 0c36 4A80      	tst.l %d0
 1097 0c38 6600 1008 	jne .L231
 1098 0c3c 203C 0000 	move.l #_pstreams,%d0
 1098      0000 
 1099 0c42 5080      	addq.l #8,%d0
 1100 0c44 2040      	move.l %d0,%a0
 1101 0c46 2010      	move.l (%a0),%d0
 1102 0c48 2F00      	move.l %d0,-(%sp)
 1103 0c4a 4879 0000 	pea .LC24
68K GAS   			page 26


 1103      0000 
 1104 0c50 4EB9 0000 	jsr fputs
 1104      0000 
 1105 0c56 508F      	addq.l #8,%sp
 1106 0c58 4EB9 0000 	jsr __getErrno
 1106      0000 
 1107 0c5e 2008      	move.l %a0,%d0
 1108 0c60 7221      	moveq #33,%d1
 1109 0c62 2040      	move.l %d0,%a0
 1110 0c64 2081      	move.l %d1,(%a0)
 1111 0c66 6000 1034 	jra .L2
 1112               	.L23:
 1113 0c6a 7003      	moveq #3,%d0
 1114 0c6c 2D40 FFE0 	move.l %d0,-32(%fp)
 1115 0c70 2D7C 0000 	move.l #.LC23,-28(%fp)
 1115      0000 FFE4 
 1116 0c78 2039 0000 	move.l _fdlib_version,%d0
 1116      0000 
 1117 0c7e 4A80      	tst.l %d0
 1118 0c80 6600 009C 	jne .L130
 1119 0c84 2D7C 47EF 	move.l #1206910975,-8(%fp)
 1119      FFFF FFF8 
 1120 0c8c 2D7C E000 	move.l #-536870912,-4(%fp)
 1120      0000 FFFC 
 1121 0c94 F22E 5400 	fmove.d 16(%fp),%fp0
 1121      0010 
 1122 0c9a F23C 5423 	fmul.d #0x3fe0000000000000,%fp0
 1122      3FE0 0000 
 1122      0000 0000 
 1123 0ca6 F22E 7400 	fmove.d %fp0,16(%fp)
 1123      0010 
 1124 0cac 2039 0000 	move.l zero,%d0
 1124      0000 
 1125 0cb2 2239 0000 	move.l zero+4,%d1
 1125      0000 
 1126 0cb8 206E 0008 	move.l 8(%fp),%a0
 1127 0cbc 226E 000C 	move.l 12(%fp),%a1
 1128 0cc0 2F09      	move.l %a1,-(%sp)
 1129 0cc2 2F08      	move.l %a0,-(%sp)
 1130 0cc4 F21F 5480 	fmove.d (%sp)+,%fp1
 1131 0cc8 2F01      	move.l %d1,-(%sp)
 1132 0cca 2F00      	move.l %d0,-(%sp)
 1133 0ccc F21F 5400 	fmove.d (%sp)+,%fp0
 1134 0cd0 F200 00B8 	fcmp.x %fp0,%fp1
 1135 0cd4 F240 0014 	fslt %d0
 1136 0cd8 4400      	neg.b %d0
 1137 0cda 4A00      	tst.b %d0
 1138 0cdc 6700 00D8 	jeq .L131
 1139 0ce0 2F2E 0014 	move.l 20(%fp),-(%sp)
 1140 0ce4 2F2E 0010 	move.l 16(%fp),-(%sp)
 1141 0ce8 4EB9 0000 	jsr rint
 1141      0000 
 1142 0cee 508F      	addq.l #8,%sp
 1143 0cf0 F227 7400 	fmove.d %fp0,-(%sp)
 1144 0cf4 201F      	move.l (%sp)+,%d0
 1145 0cf6 221F      	move.l (%sp)+,%d1
 1146 0cf8 2F01      	move.l %d1,-(%sp)
68K GAS   			page 27


 1147 0cfa 2F00      	move.l %d0,-(%sp)
 1148 0cfc F21F 5480 	fmove.d (%sp)+,%fp1
 1149 0d00 F22E 54B8 	fcmp.d 16(%fp),%fp1
 1149      0010 
 1150 0d06 F281 00AE 	fjeq .L131
 1151 0d0a 2D7C C7EF 	move.l #-940572673,-8(%fp)
 1151      FFFF FFF8 
 1152 0d12 2D7C E000 	move.l #-536870912,-4(%fp)
 1152      0000 FFFC 
 1153 0d1a 6000 009A 	jra .L131
 1154               	.L130:
 1155 0d1e 202E FFD8 	move.l -40(%fp),%d0
 1156 0d22 222E FFDC 	move.l -36(%fp),%d1
 1157 0d26 2D40 FFF8 	move.l %d0,-8(%fp)
 1158 0d2a 2D41 FFFC 	move.l %d1,-4(%fp)
 1159 0d2e F22E 5400 	fmove.d 16(%fp),%fp0
 1159      0010 
 1160 0d34 F23C 5423 	fmul.d #0x3fe0000000000000,%fp0
 1160      3FE0 0000 
 1160      0000 0000 
 1161 0d40 F22E 7400 	fmove.d %fp0,16(%fp)
 1161      0010 
 1162 0d46 2039 0000 	move.l zero,%d0
 1162      0000 
 1163 0d4c 2239 0000 	move.l zero+4,%d1
 1163      0000 
 1164 0d52 206E 0008 	move.l 8(%fp),%a0
 1165 0d56 226E 000C 	move.l 12(%fp),%a1
 1166 0d5a 2F09      	move.l %a1,-(%sp)
 1167 0d5c 2F08      	move.l %a0,-(%sp)
 1168 0d5e F21F 5480 	fmove.d (%sp)+,%fp1
 1169 0d62 2F01      	move.l %d1,-(%sp)
 1170 0d64 2F00      	move.l %d0,-(%sp)
 1171 0d66 F21F 5400 	fmove.d (%sp)+,%fp0
 1172 0d6a F200 00B8 	fcmp.x %fp0,%fp1
 1173 0d6e F240 0014 	fslt %d0
 1174 0d72 4400      	neg.b %d0
 1175 0d74 4A00      	tst.b %d0
 1176 0d76 673E      	jeq .L131
 1177 0d78 2F2E 0014 	move.l 20(%fp),-(%sp)
 1178 0d7c 2F2E 0010 	move.l 16(%fp),-(%sp)
 1179 0d80 4EB9 0000 	jsr rint
 1179      0000 
 1180 0d86 508F      	addq.l #8,%sp
 1181 0d88 F227 7400 	fmove.d %fp0,-(%sp)
 1182 0d8c 201F      	move.l (%sp)+,%d0
 1183 0d8e 221F      	move.l (%sp)+,%d1
 1184 0d90 2F01      	move.l %d1,-(%sp)
 1185 0d92 2F00      	move.l %d0,-(%sp)
 1186 0d94 F21F 5480 	fmove.d (%sp)+,%fp1
 1187 0d98 F22E 54B8 	fcmp.d 16(%fp),%fp1
 1187      0010 
 1188 0d9e F281 0016 	fjeq .L131
 1189 0da2 202E FFD8 	move.l -40(%fp),%d0
 1190 0da6 222E FFDC 	move.l -36(%fp),%d1
 1191 0daa 0840 001F 	bchg #31,%d0
 1192 0dae 2D40 FFF8 	move.l %d0,-8(%fp)
68K GAS   			page 28


 1193 0db2 2D41 FFFC 	move.l %d1,-4(%fp)
 1194               	.L131:
 1195 0db6 2039 0000 	move.l _fdlib_version,%d0
 1195      0000 
 1196 0dbc 7202      	moveq #2,%d1
 1197 0dbe B280      	cmp.l %d0,%d1
 1198 0dc0 6612      	jne .L132
 1199 0dc2 4EB9 0000 	jsr __getErrno
 1199      0000 
 1200 0dc8 2008      	move.l %a0,%d0
 1201 0dca 7222      	moveq #34,%d1
 1202 0dcc 2040      	move.l %d0,%a0
 1203 0dce 2081      	move.l %d1,(%a0)
 1204 0dd0 6000 0ECA 	jra .L2
 1205               	.L132:
 1206 0dd4 70E0      	moveq #-32,%d0
 1207 0dd6 D08E      	add.l %fp,%d0
 1208 0dd8 2F00      	move.l %d0,-(%sp)
 1209 0dda 4EB9 0000 	jsr matherr
 1209      0000 
 1210 0de0 588F      	addq.l #4,%sp
 1211 0de2 4A80      	tst.l %d0
 1212 0de4 6600 0E60 	jne .L232
 1213 0de8 4EB9 0000 	jsr __getErrno
 1213      0000 
 1214 0dee 2008      	move.l %a0,%d0
 1215 0df0 7222      	moveq #34,%d1
 1216 0df2 2040      	move.l %d0,%a0
 1217 0df4 2081      	move.l %d1,(%a0)
 1218 0df6 6000 0EA4 	jra .L2
 1219               	.L24:
 1220 0dfa 7004      	moveq #4,%d0
 1221 0dfc 2D40 FFE0 	move.l %d0,-32(%fp)
 1222 0e00 2D7C 0000 	move.l #.LC23,-28(%fp)
 1222      0000 FFE4 
 1223 0e08 2039 0000 	move.l zero,%d0
 1223      0000 
 1224 0e0e 2239 0000 	move.l zero+4,%d1
 1224      0000 
 1225 0e14 2D40 FFF8 	move.l %d0,-8(%fp)
 1226 0e18 2D41 FFFC 	move.l %d1,-4(%fp)
 1227 0e1c 2039 0000 	move.l _fdlib_version,%d0
 1227      0000 
 1228 0e22 7202      	moveq #2,%d1
 1229 0e24 B280      	cmp.l %d0,%d1
 1230 0e26 6612      	jne .L134
 1231 0e28 4EB9 0000 	jsr __getErrno
 1231      0000 
 1232 0e2e 2008      	move.l %a0,%d0
 1233 0e30 7222      	moveq #34,%d1
 1234 0e32 2040      	move.l %d0,%a0
 1235 0e34 2081      	move.l %d1,(%a0)
 1236 0e36 6000 0E64 	jra .L2
 1237               	.L134:
 1238 0e3a 70E0      	moveq #-32,%d0
 1239 0e3c D08E      	add.l %fp,%d0
 1240 0e3e 2F00      	move.l %d0,-(%sp)
68K GAS   			page 29


 1241 0e40 4EB9 0000 	jsr matherr
 1241      0000 
 1242 0e46 588F      	addq.l #4,%sp
 1243 0e48 4A80      	tst.l %d0
 1244 0e4a 6600 0DFE 	jne .L233
 1245 0e4e 4EB9 0000 	jsr __getErrno
 1245      0000 
 1246 0e54 2008      	move.l %a0,%d0
 1247 0e56 7222      	moveq #34,%d1
 1248 0e58 2040      	move.l %d0,%a0
 1249 0e5a 2081      	move.l %d1,(%a0)
 1250 0e5c 6000 0E3E 	jra .L2
 1251               	.L25:
 1252 0e60 7001      	moveq #1,%d0
 1253 0e62 2D40 FFE0 	move.l %d0,-32(%fp)
 1254 0e66 2D7C 0000 	move.l #.LC23,-28(%fp)
 1254      0000 FFE4 
 1255 0e6e 2039 0000 	move.l _fdlib_version,%d0
 1255      0000 
 1256 0e74 4A80      	tst.l %d0
 1257 0e76 6616      	jne .L136
 1258 0e78 2039 0000 	move.l zero,%d0
 1258      0000 
 1259 0e7e 2239 0000 	move.l zero+4,%d1
 1259      0000 
 1260 0e84 2D40 FFF8 	move.l %d0,-8(%fp)
 1261 0e88 2D41 FFFC 	move.l %d1,-4(%fp)
 1262 0e8c 6014      	jra .L137
 1263               	.L136:
 1264 0e8e 202E FFD8 	move.l -40(%fp),%d0
 1265 0e92 222E FFDC 	move.l -36(%fp),%d1
 1266 0e96 0840 001F 	bchg #31,%d0
 1267 0e9a 2D40 FFF8 	move.l %d0,-8(%fp)
 1268 0e9e 2D41 FFFC 	move.l %d1,-4(%fp)
 1269               	.L137:
 1270 0ea2 2039 0000 	move.l _fdlib_version,%d0
 1270      0000 
 1271 0ea8 7202      	moveq #2,%d1
 1272 0eaa B280      	cmp.l %d0,%d1
 1273 0eac 6612      	jne .L138
 1274 0eae 4EB9 0000 	jsr __getErrno
 1274      0000 
 1275 0eb4 2008      	move.l %a0,%d0
 1276 0eb6 7221      	moveq #33,%d1
 1277 0eb8 2040      	move.l %d0,%a0
 1278 0eba 2081      	move.l %d1,(%a0)
 1279 0ebc 6000 0DDE 	jra .L2
 1280               	.L138:
 1281 0ec0 70E0      	moveq #-32,%d0
 1282 0ec2 D08E      	add.l %fp,%d0
 1283 0ec4 2F00      	move.l %d0,-(%sp)
 1284 0ec6 4EB9 0000 	jsr matherr
 1284      0000 
 1285 0ecc 588F      	addq.l #4,%sp
 1286 0ece 4A80      	tst.l %d0
 1287 0ed0 6600 0D7C 	jne .L234
 1288 0ed4 2039 0000 	move.l _fdlib_version,%d0
68K GAS   			page 30


 1288      0000 
 1289 0eda 4A80      	tst.l %d0
 1290 0edc 661C      	jne .L140
 1291 0ede 203C 0000 	move.l #_pstreams,%d0
 1291      0000 
 1292 0ee4 5080      	addq.l #8,%d0
 1293 0ee6 2040      	move.l %d0,%a0
 1294 0ee8 2010      	move.l (%a0),%d0
 1295 0eea 2F00      	move.l %d0,-(%sp)
 1296 0eec 4879 0000 	pea .LC25
 1296      0000 
 1297 0ef2 4EB9 0000 	jsr fputs
 1297      0000 
 1298 0ef8 508F      	addq.l #8,%sp
 1299               	.L140:
 1300 0efa 4EB9 0000 	jsr __getErrno
 1300      0000 
 1301 0f00 2008      	move.l %a0,%d0
 1302 0f02 7221      	moveq #33,%d1
 1303 0f04 2040      	move.l %d0,%a0
 1304 0f06 2081      	move.l %d1,(%a0)
 1305 0f08 6000 0D92 	jra .L2
 1306               	.L26:
 1307 0f0c 7001      	moveq #1,%d0
 1308 0f0e 2D40 FFE0 	move.l %d0,-32(%fp)
 1309 0f12 2D7C 0000 	move.l #.LC23,-28(%fp)
 1309      0000 FFE4 
 1310 0f1a 2039 0000 	move.l _fdlib_version,%d0
 1310      0000 
 1311 0f20 4A80      	tst.l %d0
 1312 0f22 6616      	jne .L141
 1313 0f24 2039 0000 	move.l zero,%d0
 1313      0000 
 1314 0f2a 2239 0000 	move.l zero+4,%d1
 1314      0000 
 1315 0f30 2D40 FFF8 	move.l %d0,-8(%fp)
 1316 0f34 2D41 FFFC 	move.l %d1,-4(%fp)
 1317 0f38 603C      	jra .L142
 1318               	.L141:
 1319 0f3a 2039 0000 	move.l zero,%d0
 1319      0000 
 1320 0f40 2239 0000 	move.l zero+4,%d1
 1320      0000 
 1321 0f46 2079 0000 	move.l zero,%a0
 1321      0000 
 1322 0f4c 2279 0000 	move.l zero+4,%a1
 1322      0000 
 1323 0f52 2F01      	move.l %d1,-(%sp)
 1324 0f54 2F00      	move.l %d0,-(%sp)
 1325 0f56 F21F 5400 	fmove.d (%sp)+,%fp0
 1326 0f5a 2F09      	move.l %a1,-(%sp)
 1327 0f5c 2F08      	move.l %a0,-(%sp)
 1328 0f5e F21F 5480 	fmove.d (%sp)+,%fp1
 1329 0f62 F200 0420 	fdiv.x %fp1,%fp0
 1330 0f66 F227 7400 	fmove.d %fp0,-(%sp)
 1331 0f6a 201F      	move.l (%sp)+,%d0
 1332 0f6c 221F      	move.l (%sp)+,%d1
68K GAS   			page 31


 1333 0f6e 2D40 FFF8 	move.l %d0,-8(%fp)
 1334 0f72 2D41 FFFC 	move.l %d1,-4(%fp)
 1335               	.L142:
 1336 0f76 2039 0000 	move.l _fdlib_version,%d0
 1336      0000 
 1337 0f7c 7202      	moveq #2,%d1
 1338 0f7e B280      	cmp.l %d0,%d1
 1339 0f80 6612      	jne .L143
 1340 0f82 4EB9 0000 	jsr __getErrno
 1340      0000 
 1341 0f88 2008      	move.l %a0,%d0
 1342 0f8a 7221      	moveq #33,%d1
 1343 0f8c 2040      	move.l %d0,%a0
 1344 0f8e 2081      	move.l %d1,(%a0)
 1345 0f90 6000 0D0A 	jra .L2
 1346               	.L143:
 1347 0f94 70E0      	moveq #-32,%d0
 1348 0f96 D08E      	add.l %fp,%d0
 1349 0f98 2F00      	move.l %d0,-(%sp)
 1350 0f9a 4EB9 0000 	jsr matherr
 1350      0000 
 1351 0fa0 588F      	addq.l #4,%sp
 1352 0fa2 4A80      	tst.l %d0
 1353 0fa4 6600 0CAC 	jne .L235
 1354 0fa8 2039 0000 	move.l _fdlib_version,%d0
 1354      0000 
 1355 0fae 4A80      	tst.l %d0
 1356 0fb0 661C      	jne .L145
 1357 0fb2 203C 0000 	move.l #_pstreams,%d0
 1357      0000 
 1358 0fb8 5080      	addq.l #8,%d0
 1359 0fba 2040      	move.l %d0,%a0
 1360 0fbc 2010      	move.l (%a0),%d0
 1361 0fbe 2F00      	move.l %d0,-(%sp)
 1362 0fc0 4879 0000 	pea .LC26
 1362      0000 
 1363 0fc6 4EB9 0000 	jsr fputs
 1363      0000 
 1364 0fcc 508F      	addq.l #8,%sp
 1365               	.L145:
 1366 0fce 4EB9 0000 	jsr __getErrno
 1366      0000 
 1367 0fd4 2008      	move.l %a0,%d0
 1368 0fd6 7221      	moveq #33,%d1
 1369 0fd8 2040      	move.l %d0,%a0
 1370 0fda 2081      	move.l %d1,(%a0)
 1371 0fdc 6000 0CBE 	jra .L2
 1372               	.L27:
 1373 0fe0 7003      	moveq #3,%d0
 1374 0fe2 2D40 FFE0 	move.l %d0,-32(%fp)
 1375 0fe6 2D7C 0000 	move.l #.LC27,-28(%fp)
 1375      0000 FFE4 
 1376 0fee 2039 0000 	move.l _fdlib_version,%d0
 1376      0000 
 1377 0ff4 4A80      	tst.l %d0
 1378 0ff6 6656      	jne .L146
 1379 0ff8 2039 0000 	move.l zero,%d0
68K GAS   			page 32


 1379      0000 
 1380 0ffe 2239 0000 	move.l zero+4,%d1
 1380      0000 
 1381 1004 206E 0008 	move.l 8(%fp),%a0
 1382 1008 226E 000C 	move.l 12(%fp),%a1
 1383 100c 2F09      	move.l %a1,-(%sp)
 1384 100e 2F08      	move.l %a0,-(%sp)
 1385 1010 F21F 5400 	fmove.d (%sp)+,%fp0
 1386 1014 2F01      	move.l %d1,-(%sp)
 1387 1016 2F00      	move.l %d0,-(%sp)
 1388 1018 F21F 5480 	fmove.d (%sp)+,%fp1
 1389 101c F200 0438 	fcmp.x %fp1,%fp0
 1390 1020 F240 0012 	fsgt %d0
 1391 1024 4400      	neg.b %d0
 1392 1026 4A00      	tst.b %d0
 1393 1028 670E      	jeq .L147
 1394 102a 203C 47EF 	move.l #1206910975,%d0
 1394      FFFF 
 1395 1030 223C E000 	move.l #-536870912,%d1
 1395      0000 
 1396 1036 600C      	jra .L148
 1397               	.L147:
 1398 1038 203C C7EF 	move.l #-940572673,%d0
 1398      FFFF 
 1399 103e 223C E000 	move.l #-536870912,%d1
 1399      0000 
 1400               	.L148:
 1401 1044 2D40 FFF8 	move.l %d0,-8(%fp)
 1402 1048 2D41 FFFC 	move.l %d1,-4(%fp)
 1403 104c 6050      	jra .L149
 1404               	.L146:
 1405 104e 2039 0000 	move.l zero,%d0
 1405      0000 
 1406 1054 2239 0000 	move.l zero+4,%d1
 1406      0000 
 1407 105a 206E 0008 	move.l 8(%fp),%a0
 1408 105e 226E 000C 	move.l 12(%fp),%a1
 1409 1062 2F09      	move.l %a1,-(%sp)
 1410 1064 2F08      	move.l %a0,-(%sp)
 1411 1066 F21F 5400 	fmove.d (%sp)+,%fp0
 1412 106a 2F01      	move.l %d1,-(%sp)
 1413 106c 2F00      	move.l %d0,-(%sp)
 1414 106e F21F 5480 	fmove.d (%sp)+,%fp1
 1415 1072 F200 0438 	fcmp.x %fp1,%fp0
 1416 1076 F240 0012 	fsgt %d0
 1417 107a 4400      	neg.b %d0
 1418 107c 4A00      	tst.b %d0
 1419 107e 670A      	jeq .L150
 1420 1080 202E FFD8 	move.l -40(%fp),%d0
 1421 1084 222E FFDC 	move.l -36(%fp),%d1
 1422 1088 600C      	jra .L151
 1423               	.L150:
 1424 108a 202E FFD8 	move.l -40(%fp),%d0
 1425 108e 222E FFDC 	move.l -36(%fp),%d1
 1426 1092 0840 001F 	bchg #31,%d0
 1427               	.L151:
 1428 1096 2D40 FFF8 	move.l %d0,-8(%fp)
68K GAS   			page 33


 1429 109a 2D41 FFFC 	move.l %d1,-4(%fp)
 1430               	.L149:
 1431 109e 2039 0000 	move.l _fdlib_version,%d0
 1431      0000 
 1432 10a4 7202      	moveq #2,%d1
 1433 10a6 B280      	cmp.l %d0,%d1
 1434 10a8 6612      	jne .L152
 1435 10aa 4EB9 0000 	jsr __getErrno
 1435      0000 
 1436 10b0 2008      	move.l %a0,%d0
 1437 10b2 7222      	moveq #34,%d1
 1438 10b4 2040      	move.l %d0,%a0
 1439 10b6 2081      	move.l %d1,(%a0)
 1440 10b8 6000 0BE2 	jra .L2
 1441               	.L152:
 1442 10bc 70E0      	moveq #-32,%d0
 1443 10be D08E      	add.l %fp,%d0
 1444 10c0 2F00      	move.l %d0,-(%sp)
 1445 10c2 4EB9 0000 	jsr matherr
 1445      0000 
 1446 10c8 588F      	addq.l #4,%sp
 1447 10ca 4A80      	tst.l %d0
 1448 10cc 6600 0B88 	jne .L236
 1449 10d0 4EB9 0000 	jsr __getErrno
 1449      0000 
 1450 10d6 2008      	move.l %a0,%d0
 1451 10d8 7222      	moveq #34,%d1
 1452 10da 2040      	move.l %d0,%a0
 1453 10dc 2081      	move.l %d1,(%a0)
 1454 10de 6000 0BBC 	jra .L2
 1455               	.L28:
 1456 10e2 7001      	moveq #1,%d0
 1457 10e4 2D40 FFE0 	move.l %d0,-32(%fp)
 1458 10e8 2D7C 0000 	move.l #.LC28,-28(%fp)
 1458      0000 FFE4 
 1459 10f0 2039 0000 	move.l _fdlib_version,%d0
 1459      0000 
 1460 10f6 4A80      	tst.l %d0
 1461 10f8 6616      	jne .L154
 1462 10fa 2039 0000 	move.l zero,%d0
 1462      0000 
 1463 1100 2239 0000 	move.l zero+4,%d1
 1463      0000 
 1464 1106 2D40 FFF8 	move.l %d0,-8(%fp)
 1465 110a 2D41 FFFC 	move.l %d1,-4(%fp)
 1466 110e 603C      	jra .L155
 1467               	.L154:
 1468 1110 2039 0000 	move.l zero,%d0
 1468      0000 
 1469 1116 2239 0000 	move.l zero+4,%d1
 1469      0000 
 1470 111c 2079 0000 	move.l zero,%a0
 1470      0000 
 1471 1122 2279 0000 	move.l zero+4,%a1
 1471      0000 
 1472 1128 2F01      	move.l %d1,-(%sp)
 1473 112a 2F00      	move.l %d0,-(%sp)
68K GAS   			page 34


 1474 112c F21F 5400 	fmove.d (%sp)+,%fp0
 1475 1130 2F09      	move.l %a1,-(%sp)
 1476 1132 2F08      	move.l %a0,-(%sp)
 1477 1134 F21F 5480 	fmove.d (%sp)+,%fp1
 1478 1138 F200 0420 	fdiv.x %fp1,%fp0
 1479 113c F227 7400 	fmove.d %fp0,-(%sp)
 1480 1140 201F      	move.l (%sp)+,%d0
 1481 1142 221F      	move.l (%sp)+,%d1
 1482 1144 2D40 FFF8 	move.l %d0,-8(%fp)
 1483 1148 2D41 FFFC 	move.l %d1,-4(%fp)
 1484               	.L155:
 1485 114c 2039 0000 	move.l _fdlib_version,%d0
 1485      0000 
 1486 1152 7202      	moveq #2,%d1
 1487 1154 B280      	cmp.l %d0,%d1
 1488 1156 6612      	jne .L156
 1489 1158 4EB9 0000 	jsr __getErrno
 1489      0000 
 1490 115e 2008      	move.l %a0,%d0
 1491 1160 7221      	moveq #33,%d1
 1492 1162 2040      	move.l %d0,%a0
 1493 1164 2081      	move.l %d1,(%a0)
 1494 1166 6000 0B34 	jra .L2
 1495               	.L156:
 1496 116a 70E0      	moveq #-32,%d0
 1497 116c D08E      	add.l %fp,%d0
 1498 116e 2F00      	move.l %d0,-(%sp)
 1499 1170 4EB9 0000 	jsr matherr
 1499      0000 
 1500 1176 588F      	addq.l #4,%sp
 1501 1178 4A80      	tst.l %d0
 1502 117a 6600 0ADE 	jne .L237
 1503 117e 2039 0000 	move.l _fdlib_version,%d0
 1503      0000 
 1504 1184 4A80      	tst.l %d0
 1505 1186 661C      	jne .L158
 1506 1188 203C 0000 	move.l #_pstreams,%d0
 1506      0000 
 1507 118e 5080      	addq.l #8,%d0
 1508 1190 2040      	move.l %d0,%a0
 1509 1192 2010      	move.l (%a0),%d0
 1510 1194 2F00      	move.l %d0,-(%sp)
 1511 1196 4879 0000 	pea .LC29
 1511      0000 
 1512 119c 4EB9 0000 	jsr fputs
 1512      0000 
 1513 11a2 508F      	addq.l #8,%sp
 1514               	.L158:
 1515 11a4 4EB9 0000 	jsr __getErrno
 1515      0000 
 1516 11aa 2008      	move.l %a0,%d0
 1517 11ac 7221      	moveq #33,%d1
 1518 11ae 2040      	move.l %d0,%a0
 1519 11b0 2081      	move.l %d1,(%a0)
 1520 11b2 6000 0AE8 	jra .L2
 1521               	.L29:
 1522 11b6 7001      	moveq #1,%d0
68K GAS   			page 35


 1523 11b8 2D40 FFE0 	move.l %d0,-32(%fp)
 1524 11bc 2D7C 0000 	move.l #.LC30,-28(%fp)
 1524      0000 FFE4 
 1525 11c4 2039 0000 	move.l _fdlib_version,%d0
 1525      0000 
 1526 11ca 4A80      	tst.l %d0
 1527 11cc 660E      	jne .L159
 1528 11ce 2D6E 0008 	move.l 8(%fp),-8(%fp)
 1528      FFF8 
 1529 11d4 2D6E 000C 	move.l 12(%fp),-4(%fp)
 1529      FFFC 
 1530 11da 603C      	jra .L160
 1531               	.L159:
 1532 11dc 2039 0000 	move.l zero,%d0
 1532      0000 
 1533 11e2 2239 0000 	move.l zero+4,%d1
 1533      0000 
 1534 11e8 2079 0000 	move.l zero,%a0
 1534      0000 
 1535 11ee 2279 0000 	move.l zero+4,%a1
 1535      0000 
 1536 11f4 2F01      	move.l %d1,-(%sp)
 1537 11f6 2F00      	move.l %d0,-(%sp)
 1538 11f8 F21F 5400 	fmove.d (%sp)+,%fp0
 1539 11fc 2F09      	move.l %a1,-(%sp)
 1540 11fe 2F08      	move.l %a0,-(%sp)
 1541 1200 F21F 5480 	fmove.d (%sp)+,%fp1
 1542 1204 F200 0420 	fdiv.x %fp1,%fp0
 1543 1208 F227 7400 	fmove.d %fp0,-(%sp)
 1544 120c 201F      	move.l (%sp)+,%d0
 1545 120e 221F      	move.l (%sp)+,%d1
 1546 1210 2D40 FFF8 	move.l %d0,-8(%fp)
 1547 1214 2D41 FFFC 	move.l %d1,-4(%fp)
 1548               	.L160:
 1549 1218 2039 0000 	move.l _fdlib_version,%d0
 1549      0000 
 1550 121e 7202      	moveq #2,%d1
 1551 1220 B280      	cmp.l %d0,%d1
 1552 1222 6612      	jne .L161
 1553 1224 4EB9 0000 	jsr __getErrno
 1553      0000 
 1554 122a 2008      	move.l %a0,%d0
 1555 122c 7221      	moveq #33,%d1
 1556 122e 2040      	move.l %d0,%a0
 1557 1230 2081      	move.l %d1,(%a0)
 1558 1232 6000 0A68 	jra .L2
 1559               	.L161:
 1560 1236 70E0      	moveq #-32,%d0
 1561 1238 D08E      	add.l %fp,%d0
 1562 123a 2F00      	move.l %d0,-(%sp)
 1563 123c 4EB9 0000 	jsr matherr
 1563      0000 
 1564 1242 588F      	addq.l #4,%sp
 1565 1244 4A80      	tst.l %d0
 1566 1246 6600 0A16 	jne .L238
 1567 124a 2039 0000 	move.l _fdlib_version,%d0
 1567      0000 
68K GAS   			page 36


 1568 1250 4A80      	tst.l %d0
 1569 1252 661C      	jne .L163
 1570 1254 203C 0000 	move.l #_pstreams,%d0
 1570      0000 
 1571 125a 5080      	addq.l #8,%d0
 1572 125c 2040      	move.l %d0,%a0
 1573 125e 2010      	move.l (%a0),%d0
 1574 1260 2F00      	move.l %d0,-(%sp)
 1575 1262 4879 0000 	pea .LC31
 1575      0000 
 1576 1268 4EB9 0000 	jsr fputs
 1576      0000 
 1577 126e 508F      	addq.l #8,%sp
 1578               	.L163:
 1579 1270 4EB9 0000 	jsr __getErrno
 1579      0000 
 1580 1276 2008      	move.l %a0,%d0
 1581 1278 7221      	moveq #33,%d1
 1582 127a 2040      	move.l %d0,%a0
 1583 127c 2081      	move.l %d1,(%a0)
 1584 127e 6000 0A1C 	jra .L2
 1585               	.L30:
 1586 1282 7001      	moveq #1,%d0
 1587 1284 2D40 FFE0 	move.l %d0,-32(%fp)
 1588 1288 2D7C 0000 	move.l #.LC32,-28(%fp)
 1588      0000 FFE4 
 1589 1290 2039 0000 	move.l zero,%d0
 1589      0000 
 1590 1296 2239 0000 	move.l zero+4,%d1
 1590      0000 
 1591 129c 2079 0000 	move.l zero,%a0
 1591      0000 
 1592 12a2 2279 0000 	move.l zero+4,%a1
 1592      0000 
 1593 12a8 2F01      	move.l %d1,-(%sp)
 1594 12aa 2F00      	move.l %d0,-(%sp)
 1595 12ac F21F 5400 	fmove.d (%sp)+,%fp0
 1596 12b0 2F09      	move.l %a1,-(%sp)
 1597 12b2 2F08      	move.l %a0,-(%sp)
 1598 12b4 F21F 5480 	fmove.d (%sp)+,%fp1
 1599 12b8 F200 0420 	fdiv.x %fp1,%fp0
 1600 12bc F227 7400 	fmove.d %fp0,-(%sp)
 1601 12c0 201F      	move.l (%sp)+,%d0
 1602 12c2 221F      	move.l (%sp)+,%d1
 1603 12c4 2D40 FFF8 	move.l %d0,-8(%fp)
 1604 12c8 2D41 FFFC 	move.l %d1,-4(%fp)
 1605 12cc 2039 0000 	move.l _fdlib_version,%d0
 1605      0000 
 1606 12d2 7202      	moveq #2,%d1
 1607 12d4 B280      	cmp.l %d0,%d1
 1608 12d6 6612      	jne .L164
 1609 12d8 4EB9 0000 	jsr __getErrno
 1609      0000 
 1610 12de 2008      	move.l %a0,%d0
 1611 12e0 7221      	moveq #33,%d1
 1612 12e2 2040      	move.l %d0,%a0
 1613 12e4 2081      	move.l %d1,(%a0)
68K GAS   			page 37


 1614 12e6 6000 09B4 	jra .L2
 1615               	.L164:
 1616 12ea 70E0      	moveq #-32,%d0
 1617 12ec D08E      	add.l %fp,%d0
 1618 12ee 2F00      	move.l %d0,-(%sp)
 1619 12f0 4EB9 0000 	jsr matherr
 1619      0000 
 1620 12f6 588F      	addq.l #4,%sp
 1621 12f8 4A80      	tst.l %d0
 1622 12fa 6600 0966 	jne .L239
 1623 12fe 2039 0000 	move.l _fdlib_version,%d0
 1623      0000 
 1624 1304 4A80      	tst.l %d0
 1625 1306 661C      	jne .L166
 1626 1308 203C 0000 	move.l #_pstreams,%d0
 1626      0000 
 1627 130e 5080      	addq.l #8,%d0
 1628 1310 2040      	move.l %d0,%a0
 1629 1312 2010      	move.l (%a0),%d0
 1630 1314 2F00      	move.l %d0,-(%sp)
 1631 1316 4879 0000 	pea .LC33
 1631      0000 
 1632 131c 4EB9 0000 	jsr fputs
 1632      0000 
 1633 1322 508F      	addq.l #8,%sp
 1634               	.L166:
 1635 1324 4EB9 0000 	jsr __getErrno
 1635      0000 
 1636 132a 2008      	move.l %a0,%d0
 1637 132c 7221      	moveq #33,%d1
 1638 132e 2040      	move.l %d0,%a0
 1639 1330 2081      	move.l %d1,(%a0)
 1640 1332 6000 0968 	jra .L2
 1641               	.L31:
 1642 1336 7001      	moveq #1,%d0
 1643 1338 2D40 FFE0 	move.l %d0,-32(%fp)
 1644 133c 2D7C 0000 	move.l #.LC34,-28(%fp)
 1644      0000 FFE4 
 1645 1344 2039 0000 	move.l zero,%d0
 1645      0000 
 1646 134a 2239 0000 	move.l zero+4,%d1
 1646      0000 
 1647 1350 2079 0000 	move.l zero,%a0
 1647      0000 
 1648 1356 2279 0000 	move.l zero+4,%a1
 1648      0000 
 1649 135c 2F01      	move.l %d1,-(%sp)
 1650 135e 2F00      	move.l %d0,-(%sp)
 1651 1360 F21F 5400 	fmove.d (%sp)+,%fp0
 1652 1364 2F09      	move.l %a1,-(%sp)
 1653 1366 2F08      	move.l %a0,-(%sp)
 1654 1368 F21F 5480 	fmove.d (%sp)+,%fp1
 1655 136c F200 0420 	fdiv.x %fp1,%fp0
 1656 1370 F227 7400 	fmove.d %fp0,-(%sp)
 1657 1374 201F      	move.l (%sp)+,%d0
 1658 1376 221F      	move.l (%sp)+,%d1
 1659 1378 2D40 FFF8 	move.l %d0,-8(%fp)
68K GAS   			page 38


 1660 137c 2D41 FFFC 	move.l %d1,-4(%fp)
 1661 1380 2039 0000 	move.l _fdlib_version,%d0
 1661      0000 
 1662 1386 7202      	moveq #2,%d1
 1663 1388 B280      	cmp.l %d0,%d1
 1664 138a 6612      	jne .L167
 1665 138c 4EB9 0000 	jsr __getErrno
 1665      0000 
 1666 1392 2008      	move.l %a0,%d0
 1667 1394 7221      	moveq #33,%d1
 1668 1396 2040      	move.l %d0,%a0
 1669 1398 2081      	move.l %d1,(%a0)
 1670 139a 6000 0900 	jra .L2
 1671               	.L167:
 1672 139e 70E0      	moveq #-32,%d0
 1673 13a0 D08E      	add.l %fp,%d0
 1674 13a2 2F00      	move.l %d0,-(%sp)
 1675 13a4 4EB9 0000 	jsr matherr
 1675      0000 
 1676 13aa 588F      	addq.l #4,%sp
 1677 13ac 4A80      	tst.l %d0
 1678 13ae 6600 08B6 	jne .L240
 1679 13b2 2039 0000 	move.l _fdlib_version,%d0
 1679      0000 
 1680 13b8 4A80      	tst.l %d0
 1681 13ba 661C      	jne .L169
 1682 13bc 203C 0000 	move.l #_pstreams,%d0
 1682      0000 
 1683 13c2 5080      	addq.l #8,%d0
 1684 13c4 2040      	move.l %d0,%a0
 1685 13c6 2010      	move.l (%a0),%d0
 1686 13c8 2F00      	move.l %d0,-(%sp)
 1687 13ca 4879 0000 	pea .LC35
 1687      0000 
 1688 13d0 4EB9 0000 	jsr fputs
 1688      0000 
 1689 13d6 508F      	addq.l #8,%sp
 1690               	.L169:
 1691 13d8 4EB9 0000 	jsr __getErrno
 1691      0000 
 1692 13de 2008      	move.l %a0,%d0
 1693 13e0 7221      	moveq #33,%d1
 1694 13e2 2040      	move.l %d0,%a0
 1695 13e4 2081      	move.l %d1,(%a0)
 1696 13e6 6000 08B4 	jra .L2
 1697               	.L32:
 1698 13ea 7001      	moveq #1,%d0
 1699 13ec 2D40 FFE0 	move.l %d0,-32(%fp)
 1700 13f0 2D7C 0000 	move.l #.LC36,-28(%fp)
 1700      0000 FFE4 
 1701 13f8 2039 0000 	move.l zero,%d0
 1701      0000 
 1702 13fe 2239 0000 	move.l zero+4,%d1
 1702      0000 
 1703 1404 2079 0000 	move.l zero,%a0
 1703      0000 
 1704 140a 2279 0000 	move.l zero+4,%a1
68K GAS   			page 39


 1704      0000 
 1705 1410 2F01      	move.l %d1,-(%sp)
 1706 1412 2F00      	move.l %d0,-(%sp)
 1707 1414 F21F 5400 	fmove.d (%sp)+,%fp0
 1708 1418 2F09      	move.l %a1,-(%sp)
 1709 141a 2F08      	move.l %a0,-(%sp)
 1710 141c F21F 5480 	fmove.d (%sp)+,%fp1
 1711 1420 F200 0420 	fdiv.x %fp1,%fp0
 1712 1424 F227 7400 	fmove.d %fp0,-(%sp)
 1713 1428 201F      	move.l (%sp)+,%d0
 1714 142a 221F      	move.l (%sp)+,%d1
 1715 142c 2D40 FFF8 	move.l %d0,-8(%fp)
 1716 1430 2D41 FFFC 	move.l %d1,-4(%fp)
 1717 1434 2039 0000 	move.l _fdlib_version,%d0
 1717      0000 
 1718 143a 7202      	moveq #2,%d1
 1719 143c B280      	cmp.l %d0,%d1
 1720 143e 6612      	jne .L170
 1721 1440 4EB9 0000 	jsr __getErrno
 1721      0000 
 1722 1446 2008      	move.l %a0,%d0
 1723 1448 7221      	moveq #33,%d1
 1724 144a 2040      	move.l %d0,%a0
 1725 144c 2081      	move.l %d1,(%a0)
 1726 144e 6000 084C 	jra .L2
 1727               	.L170:
 1728 1452 70E0      	moveq #-32,%d0
 1729 1454 D08E      	add.l %fp,%d0
 1730 1456 2F00      	move.l %d0,-(%sp)
 1731 1458 4EB9 0000 	jsr matherr
 1731      0000 
 1732 145e 588F      	addq.l #4,%sp
 1733 1460 4A80      	tst.l %d0
 1734 1462 6600 0806 	jne .L241
 1735 1466 2039 0000 	move.l _fdlib_version,%d0
 1735      0000 
 1736 146c 4A80      	tst.l %d0
 1737 146e 661C      	jne .L172
 1738 1470 203C 0000 	move.l #_pstreams,%d0
 1738      0000 
 1739 1476 5080      	addq.l #8,%d0
 1740 1478 2040      	move.l %d0,%a0
 1741 147a 2010      	move.l (%a0),%d0
 1742 147c 2F00      	move.l %d0,-(%sp)
 1743 147e 4879 0000 	pea .LC37
 1743      0000 
 1744 1484 4EB9 0000 	jsr fputs
 1744      0000 
 1745 148a 508F      	addq.l #8,%sp
 1746               	.L172:
 1747 148c 4EB9 0000 	jsr __getErrno
 1747      0000 
 1748 1492 2008      	move.l %a0,%d0
 1749 1494 7221      	moveq #33,%d1
 1750 1496 2040      	move.l %d0,%a0
 1751 1498 2081      	move.l %d1,(%a0)
 1752 149a 6000 0800 	jra .L2
68K GAS   			page 40


 1753               	.L33:
 1754 149e 7002      	moveq #2,%d0
 1755 14a0 2D40 FFE0 	move.l %d0,-32(%fp)
 1756 14a4 2D7C 0000 	move.l #.LC36,-28(%fp)
 1756      0000 FFE4 
 1757 14ac 2039 0000 	move.l zero,%d0
 1757      0000 
 1758 14b2 2239 0000 	move.l zero+4,%d1
 1758      0000 
 1759 14b8 F22E 5400 	fmove.d 8(%fp),%fp0
 1759      0008 
 1760 14be 2F01      	move.l %d1,-(%sp)
 1761 14c0 2F00      	move.l %d0,-(%sp)
 1762 14c2 F21F 5480 	fmove.d (%sp)+,%fp1
 1763 14c6 F200 0420 	fdiv.x %fp1,%fp0
 1764 14ca F227 7400 	fmove.d %fp0,-(%sp)
 1765 14ce 201F      	move.l (%sp)+,%d0
 1766 14d0 221F      	move.l (%sp)+,%d1
 1767 14d2 2D40 FFF8 	move.l %d0,-8(%fp)
 1768 14d6 2D41 FFFC 	move.l %d1,-4(%fp)
 1769 14da 2039 0000 	move.l _fdlib_version,%d0
 1769      0000 
 1770 14e0 7202      	moveq #2,%d1
 1771 14e2 B280      	cmp.l %d0,%d1
 1772 14e4 6612      	jne .L173
 1773 14e6 4EB9 0000 	jsr __getErrno
 1773      0000 
 1774 14ec 2008      	move.l %a0,%d0
 1775 14ee 7221      	moveq #33,%d1
 1776 14f0 2040      	move.l %d0,%a0
 1777 14f2 2081      	move.l %d1,(%a0)
 1778 14f4 6000 07A6 	jra .L2
 1779               	.L173:
 1780 14f8 70E0      	moveq #-32,%d0
 1781 14fa D08E      	add.l %fp,%d0
 1782 14fc 2F00      	move.l %d0,-(%sp)
 1783 14fe 4EB9 0000 	jsr matherr
 1783      0000 
 1784 1504 588F      	addq.l #4,%sp
 1785 1506 4A80      	tst.l %d0
 1786 1508 6600 0764 	jne .L242
 1787 150c 2039 0000 	move.l _fdlib_version,%d0
 1787      0000 
 1788 1512 4A80      	tst.l %d0
 1789 1514 661C      	jne .L175
 1790 1516 203C 0000 	move.l #_pstreams,%d0
 1790      0000 
 1791 151c 5080      	addq.l #8,%d0
 1792 151e 2040      	move.l %d0,%a0
 1793 1520 2010      	move.l (%a0),%d0
 1794 1522 2F00      	move.l %d0,-(%sp)
 1795 1524 4879 0000 	pea .LC38
 1795      0000 
 1796 152a 4EB9 0000 	jsr fputs
 1796      0000 
 1797 1530 508F      	addq.l #8,%sp
 1798               	.L175:
68K GAS   			page 41


 1799 1532 4EB9 0000 	jsr __getErrno
 1799      0000 
 1800 1538 2008      	move.l %a0,%d0
 1801 153a 7221      	moveq #33,%d1
 1802 153c 2040      	move.l %d0,%a0
 1803 153e 2081      	move.l %d1,(%a0)
 1804 1540 6000 075A 	jra .L2
 1805               	.L34:
 1806 1544 7003      	moveq #3,%d0
 1807 1546 2D40 FFE0 	move.l %d0,-32(%fp)
 1808 154a 2D7C 0000 	move.l #.LC39,-28(%fp)
 1808      0000 FFE4 
 1809 1552 2039 0000 	move.l zero,%d0
 1809      0000 
 1810 1558 2239 0000 	move.l zero+4,%d1
 1810      0000 
 1811 155e 206E 0008 	move.l 8(%fp),%a0
 1812 1562 226E 000C 	move.l 12(%fp),%a1
 1813 1566 2F09      	move.l %a1,-(%sp)
 1814 1568 2F08      	move.l %a0,-(%sp)
 1815 156a F21F 5400 	fmove.d (%sp)+,%fp0
 1816 156e 2F01      	move.l %d1,-(%sp)
 1817 1570 2F00      	move.l %d0,-(%sp)
 1818 1572 F21F 5480 	fmove.d (%sp)+,%fp1
 1819 1576 F200 0438 	fcmp.x %fp1,%fp0
 1820 157a F240 0012 	fsgt %d0
 1821 157e 4400      	neg.b %d0
 1822 1580 4A00      	tst.b %d0
 1823 1582 670A      	jeq .L176
 1824 1584 202E FFD8 	move.l -40(%fp),%d0
 1825 1588 222E FFDC 	move.l -36(%fp),%d1
 1826 158c 600C      	jra .L177
 1827               	.L176:
 1828 158e 202E FFD8 	move.l -40(%fp),%d0
 1829 1592 222E FFDC 	move.l -36(%fp),%d1
 1830 1596 0840 001F 	bchg #31,%d0
 1831               	.L177:
 1832 159a 2D40 FFF8 	move.l %d0,-8(%fp)
 1833 159e 2D41 FFFC 	move.l %d1,-4(%fp)
 1834 15a2 2039 0000 	move.l _fdlib_version,%d0
 1834      0000 
 1835 15a8 7202      	moveq #2,%d1
 1836 15aa B280      	cmp.l %d0,%d1
 1837 15ac 6612      	jne .L178
 1838 15ae 4EB9 0000 	jsr __getErrno
 1838      0000 
 1839 15b4 2008      	move.l %a0,%d0
 1840 15b6 7222      	moveq #34,%d1
 1841 15b8 2040      	move.l %d0,%a0
 1842 15ba 2081      	move.l %d1,(%a0)
 1843 15bc 6000 06DE 	jra .L2
 1844               	.L178:
 1845 15c0 70E0      	moveq #-32,%d0
 1846 15c2 D08E      	add.l %fp,%d0
 1847 15c4 2F00      	move.l %d0,-(%sp)
 1848 15c6 4EB9 0000 	jsr matherr
 1848      0000 
68K GAS   			page 42


 1849 15cc 588F      	addq.l #4,%sp
 1850 15ce 4A80      	tst.l %d0
 1851 15d0 6600 06A0 	jne .L243
 1852 15d4 4EB9 0000 	jsr __getErrno
 1852      0000 
 1853 15da 2008      	move.l %a0,%d0
 1854 15dc 7222      	moveq #34,%d1
 1855 15de 2040      	move.l %d0,%a0
 1856 15e0 2081      	move.l %d1,(%a0)
 1857 15e2 6000 06B8 	jra .L2
 1858               	.L35:
 1859 15e6 7004      	moveq #4,%d0
 1860 15e8 2D40 FFE0 	move.l %d0,-32(%fp)
 1861 15ec 2D7C 0000 	move.l #.LC39,-28(%fp)
 1861      0000 FFE4 
 1862 15f4 2039 0000 	move.l zero,%d0
 1862      0000 
 1863 15fa 2239 0000 	move.l zero+4,%d1
 1863      0000 
 1864 1600 2F2E 000C 	move.l 12(%fp),-(%sp)
 1865 1604 2F2E 0008 	move.l 8(%fp),-(%sp)
 1866 1608 2F01      	move.l %d1,-(%sp)
 1867 160a 2F00      	move.l %d0,-(%sp)
 1868 160c 4EB9 0000 	jsr copysign
 1868      0000 
 1869 1612 4FEF 0010 	lea (16,%sp),%sp
 1870 1616 F227 7400 	fmove.d %fp0,-(%sp)
 1871 161a 201F      	move.l (%sp)+,%d0
 1872 161c 221F      	move.l (%sp)+,%d1
 1873 161e 2D40 FFF8 	move.l %d0,-8(%fp)
 1874 1622 2D41 FFFC 	move.l %d1,-4(%fp)
 1875 1626 2039 0000 	move.l _fdlib_version,%d0
 1875      0000 
 1876 162c 7202      	moveq #2,%d1
 1877 162e B280      	cmp.l %d0,%d1
 1878 1630 6612      	jne .L180
 1879 1632 4EB9 0000 	jsr __getErrno
 1879      0000 
 1880 1638 2008      	move.l %a0,%d0
 1881 163a 7222      	moveq #34,%d1
 1882 163c 2040      	move.l %d0,%a0
 1883 163e 2081      	move.l %d1,(%a0)
 1884 1640 6000 065A 	jra .L2
 1885               	.L180:
 1886 1644 70E0      	moveq #-32,%d0
 1887 1646 D08E      	add.l %fp,%d0
 1888 1648 2F00      	move.l %d0,-(%sp)
 1889 164a 4EB9 0000 	jsr matherr
 1889      0000 
 1890 1650 588F      	addq.l #4,%sp
 1891 1652 4A80      	tst.l %d0
 1892 1654 6600 0620 	jne .L244
 1893 1658 4EB9 0000 	jsr __getErrno
 1893      0000 
 1894 165e 2008      	move.l %a0,%d0
 1895 1660 7222      	moveq #34,%d1
 1896 1662 2040      	move.l %d0,%a0
68K GAS   			page 43


 1897 1664 2081      	move.l %d1,(%a0)
 1898 1666 6000 0634 	jra .L2
 1899               	.L36:
 1900 166a 7005      	moveq #5,%d0
 1901 166c 2D40 FFE0 	move.l %d0,-32(%fp)
 1902 1670 2D7C 0000 	move.l #.LC40,-28(%fp)
 1902      0000 FFE4 
 1903 1678 2039 0000 	move.l zero,%d0
 1903      0000 
 1904 167e 2239 0000 	move.l zero+4,%d1
 1904      0000 
 1905 1684 2D40 FFF8 	move.l %d0,-8(%fp)
 1906 1688 2D41 FFFC 	move.l %d1,-4(%fp)
 1907 168c 2039 0000 	move.l _fdlib_version,%d0
 1907      0000 
 1908 1692 7202      	moveq #2,%d1
 1909 1694 B280      	cmp.l %d0,%d1
 1910 1696 6612      	jne .L182
 1911 1698 4EB9 0000 	jsr __getErrno
 1911      0000 
 1912 169e 2008      	move.l %a0,%d0
 1913 16a0 7222      	moveq #34,%d1
 1914 16a2 2040      	move.l %d0,%a0
 1915 16a4 2081      	move.l %d1,(%a0)
 1916 16a6 6000 05F4 	jra .L2
 1917               	.L182:
 1918 16aa 70E0      	moveq #-32,%d0
 1919 16ac D08E      	add.l %fp,%d0
 1920 16ae 2F00      	move.l %d0,-(%sp)
 1921 16b0 4EB9 0000 	jsr matherr
 1921      0000 
 1922 16b6 588F      	addq.l #4,%sp
 1923 16b8 4A80      	tst.l %d0
 1924 16ba 6600 05BE 	jne .L245
 1925 16be 2039 0000 	move.l _fdlib_version,%d0
 1925      0000 
 1926 16c4 4A80      	tst.l %d0
 1927 16c6 6638      	jne .L184
 1928 16c8 203C 0000 	move.l #_pstreams,%d0
 1928      0000 
 1929 16ce 5080      	addq.l #8,%d0
 1930 16d0 2040      	move.l %d0,%a0
 1931 16d2 2210      	move.l (%a0),%d1
 1932 16d4 202E FFE4 	move.l -28(%fp),%d0
 1933 16d8 2F01      	move.l %d1,-(%sp)
 1934 16da 2F00      	move.l %d0,-(%sp)
 1935 16dc 4EB9 0000 	jsr fputs
 1935      0000 
 1936 16e2 508F      	addq.l #8,%sp
 1937 16e4 203C 0000 	move.l #_pstreams,%d0
 1937      0000 
 1938 16ea 5080      	addq.l #8,%d0
 1939 16ec 2040      	move.l %d0,%a0
 1940 16ee 2010      	move.l (%a0),%d0
 1941 16f0 2F00      	move.l %d0,-(%sp)
 1942 16f2 4879 0000 	pea .LC41
 1942      0000 
68K GAS   			page 44


 1943 16f8 4EB9 0000 	jsr fputs
 1943      0000 
 1944 16fe 508F      	addq.l #8,%sp
 1945               	.L184:
 1946 1700 4EB9 0000 	jsr __getErrno
 1946      0000 
 1947 1706 2008      	move.l %a0,%d0
 1948 1708 7222      	moveq #34,%d1
 1949 170a 2040      	move.l %d0,%a0
 1950 170c 2081      	move.l %d1,(%a0)
 1951 170e 6000 058C 	jra .L2
 1952               	.L37:
 1953 1712 7005      	moveq #5,%d0
 1954 1714 2D40 FFE0 	move.l %d0,-32(%fp)
 1955 1718 2D7C 0000 	move.l #.LC9,-28(%fp)
 1955      0000 FFE4 
 1956 1720 2039 0000 	move.l zero,%d0
 1956      0000 
 1957 1726 2239 0000 	move.l zero+4,%d1
 1957      0000 
 1958 172c 2D40 FFF8 	move.l %d0,-8(%fp)
 1959 1730 2D41 FFFC 	move.l %d1,-4(%fp)
 1960 1734 2039 0000 	move.l _fdlib_version,%d0
 1960      0000 
 1961 173a 7202      	moveq #2,%d1
 1962 173c B280      	cmp.l %d0,%d1
 1963 173e 6612      	jne .L185
 1964 1740 4EB9 0000 	jsr __getErrno
 1964      0000 
 1965 1746 2008      	move.l %a0,%d0
 1966 1748 7222      	moveq #34,%d1
 1967 174a 2040      	move.l %d0,%a0
 1968 174c 2081      	move.l %d1,(%a0)
 1969 174e 6000 054C 	jra .L2
 1970               	.L185:
 1971 1752 70E0      	moveq #-32,%d0
 1972 1754 D08E      	add.l %fp,%d0
 1973 1756 2F00      	move.l %d0,-(%sp)
 1974 1758 4EB9 0000 	jsr matherr
 1974      0000 
 1975 175e 588F      	addq.l #4,%sp
 1976 1760 4A80      	tst.l %d0
 1977 1762 6600 051A 	jne .L246
 1978 1766 2039 0000 	move.l _fdlib_version,%d0
 1978      0000 
 1979 176c 4A80      	tst.l %d0
 1980 176e 6638      	jne .L187
 1981 1770 203C 0000 	move.l #_pstreams,%d0
 1981      0000 
 1982 1776 5080      	addq.l #8,%d0
 1983 1778 2040      	move.l %d0,%a0
 1984 177a 2210      	move.l (%a0),%d1
 1985 177c 202E FFE4 	move.l -28(%fp),%d0
 1986 1780 2F01      	move.l %d1,-(%sp)
 1987 1782 2F00      	move.l %d0,-(%sp)
 1988 1784 4EB9 0000 	jsr fputs
 1988      0000 
68K GAS   			page 45


 1989 178a 508F      	addq.l #8,%sp
 1990 178c 203C 0000 	move.l #_pstreams,%d0
 1990      0000 
 1991 1792 5080      	addq.l #8,%d0
 1992 1794 2040      	move.l %d0,%a0
 1993 1796 2010      	move.l (%a0),%d0
 1994 1798 2F00      	move.l %d0,-(%sp)
 1995 179a 4879 0000 	pea .LC41
 1995      0000 
 1996 17a0 4EB9 0000 	jsr fputs
 1996      0000 
 1997 17a6 508F      	addq.l #8,%sp
 1998               	.L187:
 1999 17a8 4EB9 0000 	jsr __getErrno
 1999      0000 
 2000 17ae 2008      	move.l %a0,%d0
 2001 17b0 7222      	moveq #34,%d1
 2002 17b2 2040      	move.l %d0,%a0
 2003 17b4 2081      	move.l %d1,(%a0)
 2004 17b6 6000 04E4 	jra .L2
 2005               	.L38:
 2006 17ba 7005      	moveq #5,%d0
 2007 17bc 2D40 FFE0 	move.l %d0,-32(%fp)
 2008 17c0 2D7C 0000 	move.l #.LC42,-28(%fp)
 2008      0000 FFE4 
 2009 17c8 2039 0000 	move.l zero,%d0
 2009      0000 
 2010 17ce 2239 0000 	move.l zero+4,%d1
 2010      0000 
 2011 17d4 2D40 FFF8 	move.l %d0,-8(%fp)
 2012 17d8 2D41 FFFC 	move.l %d1,-4(%fp)
 2013 17dc 2039 0000 	move.l _fdlib_version,%d0
 2013      0000 
 2014 17e2 7202      	moveq #2,%d1
 2015 17e4 B280      	cmp.l %d0,%d1
 2016 17e6 6612      	jne .L188
 2017 17e8 4EB9 0000 	jsr __getErrno
 2017      0000 
 2018 17ee 2008      	move.l %a0,%d0
 2019 17f0 7222      	moveq #34,%d1
 2020 17f2 2040      	move.l %d0,%a0
 2021 17f4 2081      	move.l %d1,(%a0)
 2022 17f6 6000 04A4 	jra .L2
 2023               	.L188:
 2024 17fa 70E0      	moveq #-32,%d0
 2025 17fc D08E      	add.l %fp,%d0
 2026 17fe 2F00      	move.l %d0,-(%sp)
 2027 1800 4EB9 0000 	jsr matherr
 2027      0000 
 2028 1806 588F      	addq.l #4,%sp
 2029 1808 4A80      	tst.l %d0
 2030 180a 6600 0476 	jne .L247
 2031 180e 2039 0000 	move.l _fdlib_version,%d0
 2031      0000 
 2032 1814 4A80      	tst.l %d0
 2033 1816 6638      	jne .L190
 2034 1818 203C 0000 	move.l #_pstreams,%d0
68K GAS   			page 46


 2034      0000 
 2035 181e 5080      	addq.l #8,%d0
 2036 1820 2040      	move.l %d0,%a0
 2037 1822 2210      	move.l (%a0),%d1
 2038 1824 202E FFE4 	move.l -28(%fp),%d0
 2039 1828 2F01      	move.l %d1,-(%sp)
 2040 182a 2F00      	move.l %d0,-(%sp)
 2041 182c 4EB9 0000 	jsr fputs
 2041      0000 
 2042 1832 508F      	addq.l #8,%sp
 2043 1834 203C 0000 	move.l #_pstreams,%d0
 2043      0000 
 2044 183a 5080      	addq.l #8,%d0
 2045 183c 2040      	move.l %d0,%a0
 2046 183e 2010      	move.l (%a0),%d0
 2047 1840 2F00      	move.l %d0,-(%sp)
 2048 1842 4879 0000 	pea .LC41
 2048      0000 
 2049 1848 4EB9 0000 	jsr fputs
 2049      0000 
 2050 184e 508F      	addq.l #8,%sp
 2051               	.L190:
 2052 1850 4EB9 0000 	jsr __getErrno
 2052      0000 
 2053 1856 2008      	move.l %a0,%d0
 2054 1858 7222      	moveq #34,%d1
 2055 185a 2040      	move.l %d0,%a0
 2056 185c 2081      	move.l %d1,(%a0)
 2057 185e 6000 043C 	jra .L2
 2058               	.L39:
 2059 1862 7005      	moveq #5,%d0
 2060 1864 2D40 FFE0 	move.l %d0,-32(%fp)
 2061 1868 2D7C 0000 	move.l #.LC11,-28(%fp)
 2061      0000 FFE4 
 2062 1870 2039 0000 	move.l zero,%d0
 2062      0000 
 2063 1876 2239 0000 	move.l zero+4,%d1
 2063      0000 
 2064 187c 2D40 FFF8 	move.l %d0,-8(%fp)
 2065 1880 2D41 FFFC 	move.l %d1,-4(%fp)
 2066 1884 2039 0000 	move.l _fdlib_version,%d0
 2066      0000 
 2067 188a 7202      	moveq #2,%d1
 2068 188c B280      	cmp.l %d0,%d1
 2069 188e 6612      	jne .L191
 2070 1890 4EB9 0000 	jsr __getErrno
 2070      0000 
 2071 1896 2008      	move.l %a0,%d0
 2072 1898 7222      	moveq #34,%d1
 2073 189a 2040      	move.l %d0,%a0
 2074 189c 2081      	move.l %d1,(%a0)
 2075 189e 6000 03FC 	jra .L2
 2076               	.L191:
 2077 18a2 70E0      	moveq #-32,%d0
 2078 18a4 D08E      	add.l %fp,%d0
 2079 18a6 2F00      	move.l %d0,-(%sp)
 2080 18a8 4EB9 0000 	jsr matherr
68K GAS   			page 47


 2080      0000 
 2081 18ae 588F      	addq.l #4,%sp
 2082 18b0 4A80      	tst.l %d0
 2083 18b2 6600 03D2 	jne .L248
 2084 18b6 2039 0000 	move.l _fdlib_version,%d0
 2084      0000 
 2085 18bc 4A80      	tst.l %d0
 2086 18be 6638      	jne .L193
 2087 18c0 203C 0000 	move.l #_pstreams,%d0
 2087      0000 
 2088 18c6 5080      	addq.l #8,%d0
 2089 18c8 2040      	move.l %d0,%a0
 2090 18ca 2210      	move.l (%a0),%d1
 2091 18cc 202E FFE4 	move.l -28(%fp),%d0
 2092 18d0 2F01      	move.l %d1,-(%sp)
 2093 18d2 2F00      	move.l %d0,-(%sp)
 2094 18d4 4EB9 0000 	jsr fputs
 2094      0000 
 2095 18da 508F      	addq.l #8,%sp
 2096 18dc 203C 0000 	move.l #_pstreams,%d0
 2096      0000 
 2097 18e2 5080      	addq.l #8,%d0
 2098 18e4 2040      	move.l %d0,%a0
 2099 18e6 2010      	move.l (%a0),%d0
 2100 18e8 2F00      	move.l %d0,-(%sp)
 2101 18ea 4879 0000 	pea .LC41
 2101      0000 
 2102 18f0 4EB9 0000 	jsr fputs
 2102      0000 
 2103 18f6 508F      	addq.l #8,%sp
 2104               	.L193:
 2105 18f8 4EB9 0000 	jsr __getErrno
 2105      0000 
 2106 18fe 2008      	move.l %a0,%d0
 2107 1900 7222      	moveq #34,%d1
 2108 1902 2040      	move.l %d0,%a0
 2109 1904 2081      	move.l %d1,(%a0)
 2110 1906 6000 0394 	jra .L2
 2111               	.L40:
 2112 190a 7005      	moveq #5,%d0
 2113 190c 2D40 FFE0 	move.l %d0,-32(%fp)
 2114 1910 2D7C 0000 	move.l #.LC43,-28(%fp)
 2114      0000 FFE4 
 2115 1918 2039 0000 	move.l zero,%d0
 2115      0000 
 2116 191e 2239 0000 	move.l zero+4,%d1
 2116      0000 
 2117 1924 2D40 FFF8 	move.l %d0,-8(%fp)
 2118 1928 2D41 FFFC 	move.l %d1,-4(%fp)
 2119 192c 2039 0000 	move.l _fdlib_version,%d0
 2119      0000 
 2120 1932 7202      	moveq #2,%d1
 2121 1934 B280      	cmp.l %d0,%d1
 2122 1936 6612      	jne .L194
 2123 1938 4EB9 0000 	jsr __getErrno
 2123      0000 
 2124 193e 2008      	move.l %a0,%d0
68K GAS   			page 48


 2125 1940 7222      	moveq #34,%d1
 2126 1942 2040      	move.l %d0,%a0
 2127 1944 2081      	move.l %d1,(%a0)
 2128 1946 6000 0354 	jra .L2
 2129               	.L194:
 2130 194a 70E0      	moveq #-32,%d0
 2131 194c D08E      	add.l %fp,%d0
 2132 194e 2F00      	move.l %d0,-(%sp)
 2133 1950 4EB9 0000 	jsr matherr
 2133      0000 
 2134 1956 588F      	addq.l #4,%sp
 2135 1958 4A80      	tst.l %d0
 2136 195a 6600 032E 	jne .L249
 2137 195e 2039 0000 	move.l _fdlib_version,%d0
 2137      0000 
 2138 1964 4A80      	tst.l %d0
 2139 1966 6638      	jne .L196
 2140 1968 203C 0000 	move.l #_pstreams,%d0
 2140      0000 
 2141 196e 5080      	addq.l #8,%d0
 2142 1970 2040      	move.l %d0,%a0
 2143 1972 2210      	move.l (%a0),%d1
 2144 1974 202E FFE4 	move.l -28(%fp),%d0
 2145 1978 2F01      	move.l %d1,-(%sp)
 2146 197a 2F00      	move.l %d0,-(%sp)
 2147 197c 4EB9 0000 	jsr fputs
 2147      0000 
 2148 1982 508F      	addq.l #8,%sp
 2149 1984 203C 0000 	move.l #_pstreams,%d0
 2149      0000 
 2150 198a 5080      	addq.l #8,%d0
 2151 198c 2040      	move.l %d0,%a0
 2152 198e 2010      	move.l (%a0),%d0
 2153 1990 2F00      	move.l %d0,-(%sp)
 2154 1992 4879 0000 	pea .LC41
 2154      0000 
 2155 1998 4EB9 0000 	jsr fputs
 2155      0000 
 2156 199e 508F      	addq.l #8,%sp
 2157               	.L196:
 2158 19a0 4EB9 0000 	jsr __getErrno
 2158      0000 
 2159 19a6 2008      	move.l %a0,%d0
 2160 19a8 7222      	moveq #34,%d1
 2161 19aa 2040      	move.l %d0,%a0
 2162 19ac 2081      	move.l %d1,(%a0)
 2163 19ae 6000 02EC 	jra .L2
 2164               	.L41:
 2165 19b2 7005      	moveq #5,%d0
 2166 19b4 2D40 FFE0 	move.l %d0,-32(%fp)
 2167 19b8 2D7C 0000 	move.l #.LC13,-28(%fp)
 2167      0000 FFE4 
 2168 19c0 2039 0000 	move.l zero,%d0
 2168      0000 
 2169 19c6 2239 0000 	move.l zero+4,%d1
 2169      0000 
 2170 19cc 2D40 FFF8 	move.l %d0,-8(%fp)
68K GAS   			page 49


 2171 19d0 2D41 FFFC 	move.l %d1,-4(%fp)
 2172 19d4 2039 0000 	move.l _fdlib_version,%d0
 2172      0000 
 2173 19da 7202      	moveq #2,%d1
 2174 19dc B280      	cmp.l %d0,%d1
 2175 19de 6612      	jne .L197
 2176 19e0 4EB9 0000 	jsr __getErrno
 2176      0000 
 2177 19e6 2008      	move.l %a0,%d0
 2178 19e8 7222      	moveq #34,%d1
 2179 19ea 2040      	move.l %d0,%a0
 2180 19ec 2081      	move.l %d1,(%a0)
 2181 19ee 6000 02AC 	jra .L2
 2182               	.L197:
 2183 19f2 70E0      	moveq #-32,%d0
 2184 19f4 D08E      	add.l %fp,%d0
 2185 19f6 2F00      	move.l %d0,-(%sp)
 2186 19f8 4EB9 0000 	jsr matherr
 2186      0000 
 2187 19fe 588F      	addq.l #4,%sp
 2188 1a00 4A80      	tst.l %d0
 2189 1a02 6600 028A 	jne .L250
 2190 1a06 2039 0000 	move.l _fdlib_version,%d0
 2190      0000 
 2191 1a0c 4A80      	tst.l %d0
 2192 1a0e 6638      	jne .L199
 2193 1a10 203C 0000 	move.l #_pstreams,%d0
 2193      0000 
 2194 1a16 5080      	addq.l #8,%d0
 2195 1a18 2040      	move.l %d0,%a0
 2196 1a1a 2210      	move.l (%a0),%d1
 2197 1a1c 202E FFE4 	move.l -28(%fp),%d0
 2198 1a20 2F01      	move.l %d1,-(%sp)
 2199 1a22 2F00      	move.l %d0,-(%sp)
 2200 1a24 4EB9 0000 	jsr fputs
 2200      0000 
 2201 1a2a 508F      	addq.l #8,%sp
 2202 1a2c 203C 0000 	move.l #_pstreams,%d0
 2202      0000 
 2203 1a32 5080      	addq.l #8,%d0
 2204 1a34 2040      	move.l %d0,%a0
 2205 1a36 2010      	move.l (%a0),%d0
 2206 1a38 2F00      	move.l %d0,-(%sp)
 2207 1a3a 4879 0000 	pea .LC41
 2207      0000 
 2208 1a40 4EB9 0000 	jsr fputs
 2208      0000 
 2209 1a46 508F      	addq.l #8,%sp
 2210               	.L199:
 2211 1a48 4EB9 0000 	jsr __getErrno
 2211      0000 
 2212 1a4e 2008      	move.l %a0,%d0
 2213 1a50 7222      	moveq #34,%d1
 2214 1a52 2040      	move.l %d0,%a0
 2215 1a54 2081      	move.l %d1,(%a0)
 2216 1a56 6000 0244 	jra .L2
 2217               	.L42:
68K GAS   			page 50


 2218 1a5a 7003      	moveq #3,%d0
 2219 1a5c 2D40 FFE0 	move.l %d0,-32(%fp)
 2220 1a60 2D7C 0000 	move.l #.LC44,-28(%fp)
 2220      0000 FFE4 
 2221 1a68 2039 0000 	move.l _fdlib_version,%d0
 2221      0000 
 2222 1a6e 4A80      	tst.l %d0
 2223 1a70 6612      	jne .L200
 2224 1a72 2D7C 47EF 	move.l #1206910975,-8(%fp)
 2224      FFFF FFF8 
 2225 1a7a 2D7C E000 	move.l #-536870912,-4(%fp)
 2225      0000 FFFC 
 2226 1a82 6010      	jra .L201
 2227               	.L200:
 2228 1a84 202E FFD8 	move.l -40(%fp),%d0
 2229 1a88 222E FFDC 	move.l -36(%fp),%d1
 2230 1a8c 2D40 FFF8 	move.l %d0,-8(%fp)
 2231 1a90 2D41 FFFC 	move.l %d1,-4(%fp)
 2232               	.L201:
 2233 1a94 2039 0000 	move.l _fdlib_version,%d0
 2233      0000 
 2234 1a9a 7202      	moveq #2,%d1
 2235 1a9c B280      	cmp.l %d0,%d1
 2236 1a9e 6612      	jne .L202
 2237 1aa0 4EB9 0000 	jsr __getErrno
 2237      0000 
 2238 1aa6 2008      	move.l %a0,%d0
 2239 1aa8 7222      	moveq #34,%d1
 2240 1aaa 2040      	move.l %d0,%a0
 2241 1aac 2081      	move.l %d1,(%a0)
 2242 1aae 6000 01EC 	jra .L2
 2243               	.L202:
 2244 1ab2 70E0      	moveq #-32,%d0
 2245 1ab4 D08E      	add.l %fp,%d0
 2246 1ab6 2F00      	move.l %d0,-(%sp)
 2247 1ab8 4EB9 0000 	jsr matherr
 2247      0000 
 2248 1abe 588F      	addq.l #4,%sp
 2249 1ac0 4A80      	tst.l %d0
 2250 1ac2 6600 01CE 	jne .L251
 2251 1ac6 4EB9 0000 	jsr __getErrno
 2251      0000 
 2252 1acc 2008      	move.l %a0,%d0
 2253 1ace 7222      	moveq #34,%d1
 2254 1ad0 2040      	move.l %d0,%a0
 2255 1ad2 2081      	move.l %d1,(%a0)
 2256 1ad4 6000 01C6 	jra .L2
 2257               	.L43:
 2258 1ad8 7002      	moveq #2,%d0
 2259 1ada 2D40 FFE0 	move.l %d0,-32(%fp)
 2260 1ade 2D7C 0000 	move.l #.LC44,-28(%fp)
 2260      0000 FFE4 
 2261 1ae6 2039 0000 	move.l _fdlib_version,%d0
 2261      0000 
 2262 1aec 4A80      	tst.l %d0
 2263 1aee 6612      	jne .L204
 2264 1af0 2D7C 47EF 	move.l #1206910975,-8(%fp)
68K GAS   			page 51


 2264      FFFF FFF8 
 2265 1af8 2D7C E000 	move.l #-536870912,-4(%fp)
 2265      0000 FFFC 
 2266 1b00 6010      	jra .L205
 2267               	.L204:
 2268 1b02 202E FFD8 	move.l -40(%fp),%d0
 2269 1b06 222E FFDC 	move.l -36(%fp),%d1
 2270 1b0a 2D40 FFF8 	move.l %d0,-8(%fp)
 2271 1b0e 2D41 FFFC 	move.l %d1,-4(%fp)
 2272               	.L205:
 2273 1b12 2039 0000 	move.l _fdlib_version,%d0
 2273      0000 
 2274 1b18 7202      	moveq #2,%d1
 2275 1b1a B280      	cmp.l %d0,%d1
 2276 1b1c 6612      	jne .L206
 2277 1b1e 4EB9 0000 	jsr __getErrno
 2277      0000 
 2278 1b24 2008      	move.l %a0,%d0
 2279 1b26 7221      	moveq #33,%d1
 2280 1b28 2040      	move.l %d0,%a0
 2281 1b2a 2081      	move.l %d1,(%a0)
 2282 1b2c 6000 016E 	jra .L2
 2283               	.L206:
 2284 1b30 70E0      	moveq #-32,%d0
 2285 1b32 D08E      	add.l %fp,%d0
 2286 1b34 2F00      	move.l %d0,-(%sp)
 2287 1b36 4EB9 0000 	jsr matherr
 2287      0000 
 2288 1b3c 588F      	addq.l #4,%sp
 2289 1b3e 4A80      	tst.l %d0
 2290 1b40 6600 0154 	jne .L252
 2291 1b44 2039 0000 	move.l _fdlib_version,%d0
 2291      0000 
 2292 1b4a 4A80      	tst.l %d0
 2293 1b4c 661C      	jne .L208
 2294 1b4e 203C 0000 	move.l #_pstreams,%d0
 2294      0000 
 2295 1b54 5080      	addq.l #8,%d0
 2296 1b56 2040      	move.l %d0,%a0
 2297 1b58 2010      	move.l (%a0),%d0
 2298 1b5a 2F00      	move.l %d0,-(%sp)
 2299 1b5c 4879 0000 	pea .LC45
 2299      0000 
 2300 1b62 4EB9 0000 	jsr fputs
 2300      0000 
 2301 1b68 508F      	addq.l #8,%sp
 2302               	.L208:
 2303 1b6a 4EB9 0000 	jsr __getErrno
 2303      0000 
 2304 1b70 2008      	move.l %a0,%d0
 2305 1b72 7221      	moveq #33,%d1
 2306 1b74 2040      	move.l %d0,%a0
 2307 1b76 2081      	move.l %d1,(%a0)
 2308 1b78 6000 0122 	jra .L2
 2309               	.L44:
 2310 1b7c 7001      	moveq #1,%d0
 2311 1b7e 2D40 FFE0 	move.l %d0,-32(%fp)
68K GAS   			page 52


 2312 1b82 2D7C 0000 	move.l #.LC23,-28(%fp)
 2312      0000 FFE4 
 2313 1b8a 2D6E 0008 	move.l 8(%fp),-8(%fp)
 2313      FFF8 
 2314 1b90 2D6E 000C 	move.l 12(%fp),-4(%fp)
 2314      FFFC 
 2315 1b96 2039 0000 	move.l _fdlib_version,%d0
 2315      0000 
 2316 1b9c 72FF      	moveq #-1,%d1
 2317 1b9e B280      	cmp.l %d0,%d1
 2318 1ba0 670C      	jeq .L209
 2319 1ba2 2039 0000 	move.l _fdlib_version,%d0
 2319      0000 
 2320 1ba8 7202      	moveq #2,%d1
 2321 1baa B280      	cmp.l %d0,%d1
 2322 1bac 6610      	jne .L210
 2323               	.L209:
 2324 1bae 2D7C 3FF0 	move.l #1072693248,-8(%fp)
 2324      0000 FFF8 
 2325 1bb6 42AE FFFC 	clr.l -4(%fp)
 2326 1bba 6000 00E0 	jra .L2
 2327               	.L210:
 2328 1bbe 70E0      	moveq #-32,%d0
 2329 1bc0 D08E      	add.l %fp,%d0
 2330 1bc2 2F00      	move.l %d0,-(%sp)
 2331 1bc4 4EB9 0000 	jsr matherr
 2331      0000 
 2332 1bca 588F      	addq.l #4,%sp
 2333 1bcc 4A80      	tst.l %d0
 2334 1bce 6600 00CA 	jne .L253
 2335 1bd2 4EB9 0000 	jsr __getErrno
 2335      0000 
 2336 1bd8 2008      	move.l %a0,%d0
 2337 1bda 7221      	moveq #33,%d1
 2338 1bdc 2040      	move.l %d0,%a0
 2339 1bde 2081      	move.l %d1,(%a0)
 2340 1be0 6000 00BA 	jra .L2
 2341               	.L212:
 2342 1be4 4E71      	nop
 2343 1be6 6000 00B4 	jra .L2
 2344               	.L213:
 2345 1bea 4E71      	nop
 2346 1bec 6000 00AE 	jra .L2
 2347               	.L214:
 2348 1bf0 4E71      	nop
 2349 1bf2 6000 00A8 	jra .L2
 2350               	.L215:
 2351 1bf6 4E71      	nop
 2352 1bf8 6000 00A2 	jra .L2
 2353               	.L216:
 2354 1bfc 4E71      	nop
 2355 1bfe 6000 009C 	jra .L2
 2356               	.L217:
 2357 1c02 4E71      	nop
 2358 1c04 6000 0096 	jra .L2
 2359               	.L218:
 2360 1c08 4E71      	nop
68K GAS   			page 53


 2361 1c0a 6000 0090 	jra .L2
 2362               	.L219:
 2363 1c0e 4E71      	nop
 2364 1c10 6000 008A 	jra .L2
 2365               	.L220:
 2366 1c14 4E71      	nop
 2367 1c16 6000 0084 	jra .L2
 2368               	.L221:
 2369 1c1a 4E71      	nop
 2370 1c1c 607E      	jra .L2
 2371               	.L222:
 2372 1c1e 4E71      	nop
 2373 1c20 607A      	jra .L2
 2374               	.L223:
 2375 1c22 4E71      	nop
 2376 1c24 6076      	jra .L2
 2377               	.L224:
 2378 1c26 4E71      	nop
 2379 1c28 6072      	jra .L2
 2380               	.L225:
 2381 1c2a 4E71      	nop
 2382 1c2c 606E      	jra .L2
 2383               	.L226:
 2384 1c2e 4E71      	nop
 2385 1c30 606A      	jra .L2
 2386               	.L227:
 2387 1c32 4E71      	nop
 2388 1c34 6066      	jra .L2
 2389               	.L228:
 2390 1c36 4E71      	nop
 2391 1c38 6062      	jra .L2
 2392               	.L229:
 2393 1c3a 4E71      	nop
 2394 1c3c 605E      	jra .L2
 2395               	.L230:
 2396 1c3e 4E71      	nop
 2397 1c40 605A      	jra .L2
 2398               	.L231:
 2399 1c42 4E71      	nop
 2400 1c44 6056      	jra .L2
 2401               	.L232:
 2402 1c46 4E71      	nop
 2403 1c48 6052      	jra .L2
 2404               	.L233:
 2405 1c4a 4E71      	nop
 2406 1c4c 604E      	jra .L2
 2407               	.L234:
 2408 1c4e 4E71      	nop
 2409 1c50 604A      	jra .L2
 2410               	.L235:
 2411 1c52 4E71      	nop
 2412 1c54 6046      	jra .L2
 2413               	.L236:
 2414 1c56 4E71      	nop
 2415 1c58 6042      	jra .L2
 2416               	.L237:
 2417 1c5a 4E71      	nop
68K GAS   			page 54


 2418 1c5c 603E      	jra .L2
 2419               	.L238:
 2420 1c5e 4E71      	nop
 2421 1c60 603A      	jra .L2
 2422               	.L239:
 2423 1c62 4E71      	nop
 2424 1c64 6036      	jra .L2
 2425               	.L240:
 2426 1c66 4E71      	nop
 2427 1c68 6032      	jra .L2
 2428               	.L241:
 2429 1c6a 4E71      	nop
 2430 1c6c 602E      	jra .L2
 2431               	.L242:
 2432 1c6e 4E71      	nop
 2433 1c70 602A      	jra .L2
 2434               	.L243:
 2435 1c72 4E71      	nop
 2436 1c74 6026      	jra .L2
 2437               	.L244:
 2438 1c76 4E71      	nop
 2439 1c78 6022      	jra .L2
 2440               	.L245:
 2441 1c7a 4E71      	nop
 2442 1c7c 601E      	jra .L2
 2443               	.L246:
 2444 1c7e 4E71      	nop
 2445 1c80 601A      	jra .L2
 2446               	.L247:
 2447 1c82 4E71      	nop
 2448 1c84 6016      	jra .L2
 2449               	.L248:
 2450 1c86 4E71      	nop
 2451 1c88 6012      	jra .L2
 2452               	.L249:
 2453 1c8a 4E71      	nop
 2454 1c8c 600E      	jra .L2
 2455               	.L250:
 2456 1c8e 4E71      	nop
 2457 1c90 600A      	jra .L2
 2458               	.L251:
 2459 1c92 4E71      	nop
 2460 1c94 6006      	jra .L2
 2461               	.L252:
 2462 1c96 4E71      	nop
 2463 1c98 6002      	jra .L2
 2464               	.L253:
 2465 1c9a 4E71      	nop
 2466               	.L2:
 2467 1c9c 202E FFF8 	move.l -8(%fp),%d0
 2468 1ca0 222E FFFC 	move.l -4(%fp),%d1
 2469 1ca4 2F01      	move.l %d1,-(%sp)
 2470 1ca6 2F00      	move.l %d0,-(%sp)
 2471 1ca8 F21F 5400 	fmove.d (%sp)+,%fp0
 2472 1cac 4E5E      	unlk %fp
 2473 1cae 4E75      	rts
 2475               	.ident"GCC: (GNU) 4.5.1"
68K GAS   			page 55


 2476               	.section.note.GNU-stack,"",@progbits
68K GAS   			page 56


DEFINED SYMBOLS
                            *ABS*:00000000 k_standard.c
    {standard input}:4      .bss:00000000 zero
    {standard input}:102    .text:00000000 __kernel_standard

UNDEFINED SYMBOLS
_fdlib_version
__getErrno
matherr
_pstreams
fputs
rint
copysign
