68K GAS   			page 1


   1               	
   2               	.file"k_tan.c"
   3               	.section.rodata
   4               	.align2
   7               	xxx:
   8 0000 3FD5 5555 	.long1070945621
   9 0004 5555 5563 	.long1431655779
  10 0008 3FC1 1111 	.long1069617425
  11 000c 1110 FE7A 	.long286326394
  12 0010 3FAB A1BA 	.long1068212666
  13 0014 1BB3 41FE 	.long464732670
  14 0018 3F96 64F4 	.long1066820852
  15 001c 8406 D637 	.long-2079926729
  16 0020 3F82 26E3 	.long1065494243
  17 0024 E96E 8493 	.long-378633069
  18 0028 3F6D 6D22 	.long1064135970
  19 002c C956 0328 	.long-917109976
  20 0030 3F57 DBC8 	.long1062722504
  21 0034 FEE0 8315 	.long-18840811
  22 0038 3F43 44D8 	.long1061373144
  23 003c F2F2 6501 	.long-218995455
  24 0040 3F30 26F7 	.long1060120311
  25 0044 1A8D 1068 	.long445452392
  26 0048 3F14 7E88 	.long1058307720
  27 004c A037 92A6 	.long-1606970714
  28 0050 3F12 B80F 	.long1058191375
  29 0054 32F0 A7E9 	.long854632425
  30 0058 BEF3 75CB 	.long-1091340853
  31 005c DB60 5373 	.long-614444173
  32 0060 3EFB 2A70 	.long1056647792
  33 0064 74BF 7AD4 	.long1958705876
  34 0068 3FF0 0000 	.long1072693248
  35 006c 0000 0000 	.long0
  36 0070 3FE9 21FB 	.long1072243195
  37 0074 5444 2D18 	.long1413754136
  38 0078 3C81 A626 	.long1015129638
  39 007c 3314 5C07 	.long856972295
  40               	.text
  41               	.align2
  42               	.globl__kernel_tan
  44               	__kernel_tan:
  45 0000 4E56 FFB0 	link.w %fp,#-80
  46 0004 48E7 3F30 	movem.l #16176,-(%sp)
  47 0008 200E      	move.l %fp,%d0
  48 000a 5080      	addq.l #8,%d0
  49 000c 2040      	move.l %d0,%a0
  50 000e 2D50 FFFC 	move.l (%a0),-4(%fp)
  51 0012 202E FFFC 	move.l -4(%fp),%d0
  52 0016 0880 001F 	bclr #31,%d0
  53 001a 2D40 FFF8 	move.l %d0,-8(%fp)
  54 001e 0CAE 3E2F 	cmp.l #1043333119,-8(%fp)
  54      FFFF FFF8 
  55 0026 6E00 021C 	jgt .L2
  56 002a 202E 0008 	move.l 8(%fp),%d0
  57 002e 222E 000C 	move.l 12(%fp),%d1
  58 0032 2F01      	move.l %d1,-(%sp)
  59 0034 2F00      	move.l %d0,-(%sp)
68K GAS   			page 2


  60 0036 F21F 5400 	fmove.d (%sp)+,%fp0
  61 003a F200 0003 	fintrz.x %fp0,%fp0
  62 003e F227 7400 	fmove.d %fp0,-(%sp)
  63 0042 201F      	move.l (%sp)+,%d0
  64 0044 221F      	move.l (%sp)+,%d1
  65 0046 2F01      	move.l %d1,-(%sp)
  66 0048 2F00      	move.l %d0,-(%sp)
  67 004a F21F 5480 	fmove.d (%sp)+,%fp1
  68 004e F200 6080 	fmove.l %fp1,%d0
  69 0052 4A80      	tst.l %d0
  70 0054 6600 01EE 	jne .L2
  71 0058 200E      	move.l %fp,%d0
  72 005a 5080      	addq.l #8,%d0
  73 005c 5880      	addq.l #4,%d0
  74 005e 2040      	move.l %d0,%a0
  75 0060 2010      	move.l (%a0),%d0
  76 0062 2200      	move.l %d0,%d1
  77 0064 82AE FFF8 	or.l -8(%fp),%d1
  78 0068 202E 0018 	move.l 24(%fp),%d0
  79 006c 5280      	addq.l #1,%d0
  80 006e 8081      	or.l %d1,%d0
  81 0070 4A80      	tst.l %d0
  82 0072 6648      	jne .L3
  83 0074 2439 0000 	move.l xxx+104,%d2
  83      0000 
  84 007a 2639 0000 	move.l xxx+108,%d3
  84      0000 
  85 0080 202E 0008 	move.l 8(%fp),%d0
  86 0084 222E 000C 	move.l 12(%fp),%d1
  87 0088 2F01      	move.l %d1,-(%sp)
  88 008a 2F00      	move.l %d0,-(%sp)
  89 008c 4EB9 0000 	jsr fabs
  89      0000 
  90 0092 508F      	addq.l #8,%sp
  91 0094 F227 7400 	fmove.d %fp0,-(%sp)
  92 0098 201F      	move.l (%sp)+,%d0
  93 009a 221F      	move.l (%sp)+,%d1
  94 009c 2F03      	move.l %d3,-(%sp)
  95 009e 2F02      	move.l %d2,-(%sp)
  96 00a0 F21F 5400 	fmove.d (%sp)+,%fp0
  97 00a4 2F01      	move.l %d1,-(%sp)
  98 00a6 2F00      	move.l %d0,-(%sp)
  99 00a8 F21F 5480 	fmove.d (%sp)+,%fp1
 100 00ac F200 0420 	fdiv.x %fp1,%fp0
 101 00b0 F227 7400 	fmove.d %fp0,-(%sp)
 102 00b4 201F      	move.l (%sp)+,%d0
 103 00b6 221F      	move.l (%sp)+,%d1
 104 00b8 6000 088E 	jra .L4
 105               	.L3:
 106 00bc 7001      	moveq #1,%d0
 107 00be B0AE 0018 	cmp.l 24(%fp),%d0
 108 00c2 660C      	jne .L5
 109 00c4 202E 0008 	move.l 8(%fp),%d0
 110 00c8 222E 000C 	move.l 12(%fp),%d1
 111 00cc 6000 087A 	jra .L4
 112               	.L5:
 113 00d0 202E 0008 	move.l 8(%fp),%d0
68K GAS   			page 3


 114 00d4 222E 000C 	move.l 12(%fp),%d1
 115 00d8 2F01      	move.l %d1,-(%sp)
 116 00da 2F00      	move.l %d0,-(%sp)
 117 00dc F21F 5400 	fmove.d (%sp)+,%fp0
 118 00e0 F22E 5422 	fadd.d 16(%fp),%fp0
 118      0010 
 119 00e6 F22E 7400 	fmove.d %fp0,-16(%fp)
 119      FFF0 
 120 00ec 2D6E FFF0 	move.l -16(%fp),-64(%fp)
 120      FFC0 
 121 00f2 2D6E FFF4 	move.l -12(%fp),-60(%fp)
 121      FFC4 
 122 00f8 70C0      	moveq #-64,%d0
 123 00fa D08E      	add.l %fp,%d0
 124 00fc 5880      	addq.l #4,%d0
 125 00fe 2040      	move.l %d0,%a0
 126 0100 4290      	clr.l (%a0)
 127 0102 202E FFC0 	move.l -64(%fp),%d0
 128 0106 222E FFC4 	move.l -60(%fp),%d1
 129 010a 206E 0008 	move.l 8(%fp),%a0
 130 010e 226E 000C 	move.l 12(%fp),%a1
 131 0112 2F01      	move.l %d1,-(%sp)
 132 0114 2F00      	move.l %d0,-(%sp)
 133 0116 F21F 5400 	fmove.d (%sp)+,%fp0
 134 011a 2F09      	move.l %a1,-(%sp)
 135 011c 2F08      	move.l %a0,-(%sp)
 136 011e F21F 5480 	fmove.d (%sp)+,%fp1
 137 0122 F200 0428 	fsub.x %fp1,%fp0
 138 0126 F227 7400 	fmove.d %fp0,-(%sp)
 139 012a 201F      	move.l (%sp)+,%d0
 140 012c 221F      	move.l (%sp)+,%d1
 141 012e F22E 5400 	fmove.d 16(%fp),%fp0
 141      0010 
 142 0134 2F01      	move.l %d1,-(%sp)
 143 0136 2F00      	move.l %d0,-(%sp)
 144 0138 F21F 5480 	fmove.d (%sp)+,%fp1
 145 013c F200 0428 	fsub.x %fp1,%fp0
 146 0140 F22E 7400 	fmove.d %fp0,-24(%fp)
 146      FFE8 
 147 0146 2039 0000 	move.l xxx+104,%d0
 147      0000 
 148 014c 2239 0000 	move.l xxx+108,%d1
 148      0000 
 149 0152 0840 001F 	bchg #31,%d0
 150 0156 2F01      	move.l %d1,-(%sp)
 151 0158 2F00      	move.l %d0,-(%sp)
 152 015a F21F 5400 	fmove.d (%sp)+,%fp0
 153 015e F22E 5420 	fdiv.d -16(%fp),%fp0
 153      FFF0 
 154 0164 F22E 7400 	fmove.d %fp0,-32(%fp)
 154      FFE0 
 155 016a 2D6E FFE0 	move.l -32(%fp),-72(%fp)
 155      FFB8 
 156 0170 2D6E FFE4 	move.l -28(%fp),-68(%fp)
 156      FFBC 
 157 0176 70B8      	moveq #-72,%d0
 158 0178 D08E      	add.l %fp,%d0
68K GAS   			page 4


 159 017a 5880      	addq.l #4,%d0
 160 017c 2040      	move.l %d0,%a0
 161 017e 4290      	clr.l (%a0)
 162 0180 2079 0000 	move.l xxx+104,%a0
 162      0000 
 163 0186 2279 0000 	move.l xxx+108,%a1
 163      0000 
 164 018c 242E FFB8 	move.l -72(%fp),%d2
 165 0190 262E FFBC 	move.l -68(%fp),%d3
 166 0194 202E FFC0 	move.l -64(%fp),%d0
 167 0198 222E FFC4 	move.l -60(%fp),%d1
 168 019c 2F03      	move.l %d3,-(%sp)
 169 019e 2F02      	move.l %d2,-(%sp)
 170 01a0 F21F 5400 	fmove.d (%sp)+,%fp0
 171 01a4 2F01      	move.l %d1,-(%sp)
 172 01a6 2F00      	move.l %d0,-(%sp)
 173 01a8 F21F 5480 	fmove.d (%sp)+,%fp1
 174 01ac F200 0423 	fmul.x %fp1,%fp0
 175 01b0 F227 7400 	fmove.d %fp0,-(%sp)
 176 01b4 201F      	move.l (%sp)+,%d0
 177 01b6 221F      	move.l (%sp)+,%d1
 178 01b8 2F09      	move.l %a1,-(%sp)
 179 01ba 2F08      	move.l %a0,-(%sp)
 180 01bc F21F 5400 	fmove.d (%sp)+,%fp0
 181 01c0 2F01      	move.l %d1,-(%sp)
 182 01c2 2F00      	move.l %d0,-(%sp)
 183 01c4 F21F 5480 	fmove.d (%sp)+,%fp1
 184 01c8 F200 0422 	fadd.x %fp1,%fp0
 185 01cc F22E 7400 	fmove.d %fp0,-40(%fp)
 185      FFD8 
 186 01d2 202E FFB8 	move.l -72(%fp),%d0
 187 01d6 222E FFBC 	move.l -68(%fp),%d1
 188 01da 2F01      	move.l %d1,-(%sp)
 189 01dc 2F00      	move.l %d0,-(%sp)
 190 01de F21F 5400 	fmove.d (%sp)+,%fp0
 191 01e2 F22E 5423 	fmul.d -24(%fp),%fp0
 191      FFE8 
 192 01e8 F227 7400 	fmove.d %fp0,-(%sp)
 193 01ec 201F      	move.l (%sp)+,%d0
 194 01ee 221F      	move.l (%sp)+,%d1
 195 01f0 2F01      	move.l %d1,-(%sp)
 196 01f2 2F00      	move.l %d0,-(%sp)
 197 01f4 F21F 5480 	fmove.d (%sp)+,%fp1
 198 01f8 F22E 54A2 	fadd.d -40(%fp),%fp1
 198      FFD8 
 199 01fe F227 7480 	fmove.d %fp1,-(%sp)
 200 0202 201F      	move.l (%sp)+,%d0
 201 0204 221F      	move.l (%sp)+,%d1
 202 0206 2F01      	move.l %d1,-(%sp)
 203 0208 2F00      	move.l %d0,-(%sp)
 204 020a F21F 5400 	fmove.d (%sp)+,%fp0
 205 020e F22E 5423 	fmul.d -32(%fp),%fp0
 205      FFE0 
 206 0214 F227 7400 	fmove.d %fp0,-(%sp)
 207 0218 201F      	move.l (%sp)+,%d0
 208 021a 221F      	move.l (%sp)+,%d1
 209 021c 206E FFB8 	move.l -72(%fp),%a0
68K GAS   			page 5


 210 0220 226E FFBC 	move.l -68(%fp),%a1
 211 0224 2F01      	move.l %d1,-(%sp)
 212 0226 2F00      	move.l %d0,-(%sp)
 213 0228 F21F 5480 	fmove.d (%sp)+,%fp1
 214 022c 2F09      	move.l %a1,-(%sp)
 215 022e 2F08      	move.l %a0,-(%sp)
 216 0230 F21F 5400 	fmove.d (%sp)+,%fp0
 217 0234 F200 00A2 	fadd.x %fp0,%fp1
 218 0238 F227 7480 	fmove.d %fp1,-(%sp)
 219 023c 201F      	move.l (%sp)+,%d0
 220 023e 221F      	move.l (%sp)+,%d1
 221 0240 6000 0706 	jra .L4
 222               	.L2:
 223 0244 0CAE 3FE5 	cmp.l #1072010279,-8(%fp)
 223      9427 FFF8 
 224 024c 6F00 00AE 	jle .L6
 225 0250 4AAE FFFC 	tst.l -4(%fp)
 226 0254 6C20      	jge .L7
 227 0256 202E 0008 	move.l 8(%fp),%d0
 228 025a 222E 000C 	move.l 12(%fp),%d1
 229 025e 0840 001F 	bchg #31,%d0
 230 0262 2D40 0008 	move.l %d0,8(%fp)
 231 0266 2D41 000C 	move.l %d1,12(%fp)
 232 026a F22E 549A 	fneg.d 16(%fp),%fp1
 232      0010 
 233 0270 F22E 7480 	fmove.d %fp1,16(%fp)
 233      0010 
 234               	.L7:
 235 0276 2039 0000 	move.l xxx+112,%d0
 235      0000 
 236 027c 2239 0000 	move.l xxx+116,%d1
 236      0000 
 237 0282 206E 0008 	move.l 8(%fp),%a0
 238 0286 226E 000C 	move.l 12(%fp),%a1
 239 028a 2F01      	move.l %d1,-(%sp)
 240 028c 2F00      	move.l %d0,-(%sp)
 241 028e F21F 5400 	fmove.d (%sp)+,%fp0
 242 0292 2F09      	move.l %a1,-(%sp)
 243 0294 2F08      	move.l %a0,-(%sp)
 244 0296 F21F 5480 	fmove.d (%sp)+,%fp1
 245 029a F200 0428 	fsub.x %fp1,%fp0
 246 029e F227 7400 	fmove.d %fp0,-(%sp)
 247 02a2 201F      	move.l (%sp)+,%d0
 248 02a4 221F      	move.l (%sp)+,%d1
 249 02a6 2D40 FFC0 	move.l %d0,-64(%fp)
 250 02aa 2D41 FFC4 	move.l %d1,-60(%fp)
 251 02ae 2039 0000 	move.l xxx+120,%d0
 251      0000 
 252 02b4 2239 0000 	move.l xxx+124,%d1
 252      0000 
 253 02ba 2F01      	move.l %d1,-(%sp)
 254 02bc 2F00      	move.l %d0,-(%sp)
 255 02be F21F 5400 	fmove.d (%sp)+,%fp0
 256 02c2 F22E 5428 	fsub.d 16(%fp),%fp0
 256      0010 
 257 02c8 F22E 7400 	fmove.d %fp0,-16(%fp)
 257      FFF0 
68K GAS   			page 6


 258 02ce 202E FFC0 	move.l -64(%fp),%d0
 259 02d2 222E FFC4 	move.l -60(%fp),%d1
 260 02d6 2F01      	move.l %d1,-(%sp)
 261 02d8 2F00      	move.l %d0,-(%sp)
 262 02da F21F 5480 	fmove.d (%sp)+,%fp1
 263 02de F22E 54A2 	fadd.d -16(%fp),%fp1
 263      FFF0 
 264 02e4 F227 7480 	fmove.d %fp1,-(%sp)
 265 02e8 201F      	move.l (%sp)+,%d0
 266 02ea 221F      	move.l (%sp)+,%d1
 267 02ec 2D40 0008 	move.l %d0,8(%fp)
 268 02f0 2D41 000C 	move.l %d1,12(%fp)
 269 02f4 42AE 0010 	clr.l 16(%fp)
 270 02f8 42AE 0014 	clr.l 20(%fp)
 271               	.L6:
 272 02fc 206E 0008 	move.l 8(%fp),%a0
 273 0300 226E 000C 	move.l 12(%fp),%a1
 274 0304 202E 0008 	move.l 8(%fp),%d0
 275 0308 222E 000C 	move.l 12(%fp),%d1
 276 030c 2F09      	move.l %a1,-(%sp)
 277 030e 2F08      	move.l %a0,-(%sp)
 278 0310 F21F 5400 	fmove.d (%sp)+,%fp0
 279 0314 2F01      	move.l %d1,-(%sp)
 280 0316 2F00      	move.l %d0,-(%sp)
 281 0318 F21F 5480 	fmove.d (%sp)+,%fp1
 282 031c F200 0423 	fmul.x %fp1,%fp0
 283 0320 F227 7400 	fmove.d %fp0,-(%sp)
 284 0324 201F      	move.l (%sp)+,%d0
 285 0326 221F      	move.l (%sp)+,%d1
 286 0328 2D40 FFC0 	move.l %d0,-64(%fp)
 287 032c 2D41 FFC4 	move.l %d1,-60(%fp)
 288 0330 206E FFC0 	move.l -64(%fp),%a0
 289 0334 226E FFC4 	move.l -60(%fp),%a1
 290 0338 202E FFC0 	move.l -64(%fp),%d0
 291 033c 222E FFC4 	move.l -60(%fp),%d1
 292 0340 2F09      	move.l %a1,-(%sp)
 293 0342 2F08      	move.l %a0,-(%sp)
 294 0344 F21F 5400 	fmove.d (%sp)+,%fp0
 295 0348 2F01      	move.l %d1,-(%sp)
 296 034a 2F00      	move.l %d0,-(%sp)
 297 034c F21F 5480 	fmove.d (%sp)+,%fp1
 298 0350 F200 0423 	fmul.x %fp1,%fp0
 299 0354 F22E 7400 	fmove.d %fp0,-16(%fp)
 299      FFF0 
 300 035a 2079 0000 	move.l xxx+8,%a0
 300      0000 
 301 0360 2279 0000 	move.l xxx+12,%a1
 301      0000 
 302 0366 2439 0000 	move.l xxx+24,%d2
 302      0000 
 303 036c 2639 0000 	move.l xxx+28,%d3
 303      0000 
 304 0372 2839 0000 	move.l xxx+40,%d4
 304      0000 
 305 0378 2A39 0000 	move.l xxx+44,%d5
 305      0000 
 306 037e 2C39 0000 	move.l xxx+56,%d6
68K GAS   			page 7


 306      0000 
 307 0384 2E39 0000 	move.l xxx+60,%d7
 307      0000 
 308 038a 2479 0000 	move.l xxx+72,%a2
 308      0000 
 309 0390 2679 0000 	move.l xxx+76,%a3
 309      0000 
 310 0396 2039 0000 	move.l xxx+88,%d0
 310      0000 
 311 039c 2239 0000 	move.l xxx+92,%d1
 311      0000 
 312 03a2 2F01      	move.l %d1,-(%sp)
 313 03a4 2F00      	move.l %d0,-(%sp)
 314 03a6 F21F 5400 	fmove.d (%sp)+,%fp0
 315 03aa F22E 5423 	fmul.d -16(%fp),%fp0
 315      FFF0 
 316 03b0 F227 7400 	fmove.d %fp0,-(%sp)
 317 03b4 201F      	move.l (%sp)+,%d0
 318 03b6 221F      	move.l (%sp)+,%d1
 319 03b8 2F0B      	move.l %a3,-(%sp)
 320 03ba 2F0A      	move.l %a2,-(%sp)
 321 03bc F21F 5480 	fmove.d (%sp)+,%fp1
 322 03c0 2F01      	move.l %d1,-(%sp)
 323 03c2 2F00      	move.l %d0,-(%sp)
 324 03c4 F21F 5400 	fmove.d (%sp)+,%fp0
 325 03c8 F200 00A2 	fadd.x %fp0,%fp1
 326 03cc F227 7480 	fmove.d %fp1,-(%sp)
 327 03d0 201F      	move.l (%sp)+,%d0
 328 03d2 221F      	move.l (%sp)+,%d1
 329 03d4 2F01      	move.l %d1,-(%sp)
 330 03d6 2F00      	move.l %d0,-(%sp)
 331 03d8 F21F 5480 	fmove.d (%sp)+,%fp1
 332 03dc F22E 54A3 	fmul.d -16(%fp),%fp1
 332      FFF0 
 333 03e2 F227 7480 	fmove.d %fp1,-(%sp)
 334 03e6 201F      	move.l (%sp)+,%d0
 335 03e8 221F      	move.l (%sp)+,%d1
 336 03ea 2F07      	move.l %d7,-(%sp)
 337 03ec 2F06      	move.l %d6,-(%sp)
 338 03ee F21F 5400 	fmove.d (%sp)+,%fp0
 339 03f2 2F01      	move.l %d1,-(%sp)
 340 03f4 2F00      	move.l %d0,-(%sp)
 341 03f6 F21F 5480 	fmove.d (%sp)+,%fp1
 342 03fa F200 0422 	fadd.x %fp1,%fp0
 343 03fe F227 7400 	fmove.d %fp0,-(%sp)
 344 0402 201F      	move.l (%sp)+,%d0
 345 0404 221F      	move.l (%sp)+,%d1
 346 0406 2F01      	move.l %d1,-(%sp)
 347 0408 2F00      	move.l %d0,-(%sp)
 348 040a F21F 5400 	fmove.d (%sp)+,%fp0
 349 040e F22E 5423 	fmul.d -16(%fp),%fp0
 349      FFF0 
 350 0414 F227 7400 	fmove.d %fp0,-(%sp)
 351 0418 201F      	move.l (%sp)+,%d0
 352 041a 221F      	move.l (%sp)+,%d1
 353 041c 2F05      	move.l %d5,-(%sp)
 354 041e 2F04      	move.l %d4,-(%sp)
68K GAS   			page 8


 355 0420 F21F 5480 	fmove.d (%sp)+,%fp1
 356 0424 2F01      	move.l %d1,-(%sp)
 357 0426 2F00      	move.l %d0,-(%sp)
 358 0428 F21F 5400 	fmove.d (%sp)+,%fp0
 359 042c F200 00A2 	fadd.x %fp0,%fp1
 360 0430 F227 7480 	fmove.d %fp1,-(%sp)
 361 0434 201F      	move.l (%sp)+,%d0
 362 0436 221F      	move.l (%sp)+,%d1
 363 0438 2F01      	move.l %d1,-(%sp)
 364 043a 2F00      	move.l %d0,-(%sp)
 365 043c F21F 5480 	fmove.d (%sp)+,%fp1
 366 0440 F22E 54A3 	fmul.d -16(%fp),%fp1
 366      FFF0 
 367 0446 F227 7480 	fmove.d %fp1,-(%sp)
 368 044a 201F      	move.l (%sp)+,%d0
 369 044c 221F      	move.l (%sp)+,%d1
 370 044e 2F03      	move.l %d3,-(%sp)
 371 0450 2F02      	move.l %d2,-(%sp)
 372 0452 F21F 5400 	fmove.d (%sp)+,%fp0
 373 0456 2F01      	move.l %d1,-(%sp)
 374 0458 2F00      	move.l %d0,-(%sp)
 375 045a F21F 5480 	fmove.d (%sp)+,%fp1
 376 045e F200 0422 	fadd.x %fp1,%fp0
 377 0462 F227 7400 	fmove.d %fp0,-(%sp)
 378 0466 201F      	move.l (%sp)+,%d0
 379 0468 221F      	move.l (%sp)+,%d1
 380 046a 2F01      	move.l %d1,-(%sp)
 381 046c 2F00      	move.l %d0,-(%sp)
 382 046e F21F 5400 	fmove.d (%sp)+,%fp0
 383 0472 F22E 5423 	fmul.d -16(%fp),%fp0
 383      FFF0 
 384 0478 F227 7400 	fmove.d %fp0,-(%sp)
 385 047c 201F      	move.l (%sp)+,%d0
 386 047e 221F      	move.l (%sp)+,%d1
 387 0480 2F09      	move.l %a1,-(%sp)
 388 0482 2F08      	move.l %a0,-(%sp)
 389 0484 F21F 5480 	fmove.d (%sp)+,%fp1
 390 0488 2F01      	move.l %d1,-(%sp)
 391 048a 2F00      	move.l %d0,-(%sp)
 392 048c F21F 5400 	fmove.d (%sp)+,%fp0
 393 0490 F200 00A2 	fadd.x %fp0,%fp1
 394 0494 F22E 7480 	fmove.d %fp1,-48(%fp)
 394      FFD0 
 395 049a 2079 0000 	move.l xxx+16,%a0
 395      0000 
 396 04a0 2279 0000 	move.l xxx+20,%a1
 396      0000 
 397 04a6 2439 0000 	move.l xxx+32,%d2
 397      0000 
 398 04ac 2639 0000 	move.l xxx+36,%d3
 398      0000 
 399 04b2 2839 0000 	move.l xxx+48,%d4
 399      0000 
 400 04b8 2A39 0000 	move.l xxx+52,%d5
 400      0000 
 401 04be 2C39 0000 	move.l xxx+64,%d6
 401      0000 
68K GAS   			page 9


 402 04c4 2E39 0000 	move.l xxx+68,%d7
 402      0000 
 403 04ca 2479 0000 	move.l xxx+80,%a2
 403      0000 
 404 04d0 2679 0000 	move.l xxx+84,%a3
 404      0000 
 405 04d6 2039 0000 	move.l xxx+96,%d0
 405      0000 
 406 04dc 2239 0000 	move.l xxx+100,%d1
 406      0000 
 407 04e2 2F01      	move.l %d1,-(%sp)
 408 04e4 2F00      	move.l %d0,-(%sp)
 409 04e6 F21F 5480 	fmove.d (%sp)+,%fp1
 410 04ea F22E 54A3 	fmul.d -16(%fp),%fp1
 410      FFF0 
 411 04f0 F227 7480 	fmove.d %fp1,-(%sp)
 412 04f4 201F      	move.l (%sp)+,%d0
 413 04f6 221F      	move.l (%sp)+,%d1
 414 04f8 2F0B      	move.l %a3,-(%sp)
 415 04fa 2F0A      	move.l %a2,-(%sp)
 416 04fc F21F 5400 	fmove.d (%sp)+,%fp0
 417 0500 2F01      	move.l %d1,-(%sp)
 418 0502 2F00      	move.l %d0,-(%sp)
 419 0504 F21F 5480 	fmove.d (%sp)+,%fp1
 420 0508 F200 0422 	fadd.x %fp1,%fp0
 421 050c F227 7400 	fmove.d %fp0,-(%sp)
 422 0510 201F      	move.l (%sp)+,%d0
 423 0512 221F      	move.l (%sp)+,%d1
 424 0514 2F01      	move.l %d1,-(%sp)
 425 0516 2F00      	move.l %d0,-(%sp)
 426 0518 F21F 5400 	fmove.d (%sp)+,%fp0
 427 051c F22E 5423 	fmul.d -16(%fp),%fp0
 427      FFF0 
 428 0522 F227 7400 	fmove.d %fp0,-(%sp)
 429 0526 201F      	move.l (%sp)+,%d0
 430 0528 221F      	move.l (%sp)+,%d1
 431 052a 2F07      	move.l %d7,-(%sp)
 432 052c 2F06      	move.l %d6,-(%sp)
 433 052e F21F 5480 	fmove.d (%sp)+,%fp1
 434 0532 2F01      	move.l %d1,-(%sp)
 435 0534 2F00      	move.l %d0,-(%sp)
 436 0536 F21F 5400 	fmove.d (%sp)+,%fp0
 437 053a F200 00A2 	fadd.x %fp0,%fp1
 438 053e F227 7480 	fmove.d %fp1,-(%sp)
 439 0542 201F      	move.l (%sp)+,%d0
 440 0544 221F      	move.l (%sp)+,%d1
 441 0546 2F01      	move.l %d1,-(%sp)
 442 0548 2F00      	move.l %d0,-(%sp)
 443 054a F21F 5480 	fmove.d (%sp)+,%fp1
 444 054e F22E 54A3 	fmul.d -16(%fp),%fp1
 444      FFF0 
 445 0554 F227 7480 	fmove.d %fp1,-(%sp)
 446 0558 201F      	move.l (%sp)+,%d0
 447 055a 221F      	move.l (%sp)+,%d1
 448 055c 2F05      	move.l %d5,-(%sp)
 449 055e 2F04      	move.l %d4,-(%sp)
 450 0560 F21F 5400 	fmove.d (%sp)+,%fp0
68K GAS   			page 10


 451 0564 2F01      	move.l %d1,-(%sp)
 452 0566 2F00      	move.l %d0,-(%sp)
 453 0568 F21F 5480 	fmove.d (%sp)+,%fp1
 454 056c F200 0422 	fadd.x %fp1,%fp0
 455 0570 F227 7400 	fmove.d %fp0,-(%sp)
 456 0574 201F      	move.l (%sp)+,%d0
 457 0576 221F      	move.l (%sp)+,%d1
 458 0578 2F01      	move.l %d1,-(%sp)
 459 057a 2F00      	move.l %d0,-(%sp)
 460 057c F21F 5400 	fmove.d (%sp)+,%fp0
 461 0580 F22E 5423 	fmul.d -16(%fp),%fp0
 461      FFF0 
 462 0586 F227 7400 	fmove.d %fp0,-(%sp)
 463 058a 201F      	move.l (%sp)+,%d0
 464 058c 221F      	move.l (%sp)+,%d1
 465 058e 2F03      	move.l %d3,-(%sp)
 466 0590 2F02      	move.l %d2,-(%sp)
 467 0592 F21F 5480 	fmove.d (%sp)+,%fp1
 468 0596 2F01      	move.l %d1,-(%sp)
 469 0598 2F00      	move.l %d0,-(%sp)
 470 059a F21F 5400 	fmove.d (%sp)+,%fp0
 471 059e F200 00A2 	fadd.x %fp0,%fp1
 472 05a2 F227 7480 	fmove.d %fp1,-(%sp)
 473 05a6 201F      	move.l (%sp)+,%d0
 474 05a8 221F      	move.l (%sp)+,%d1
 475 05aa 2F01      	move.l %d1,-(%sp)
 476 05ac 2F00      	move.l %d0,-(%sp)
 477 05ae F21F 5480 	fmove.d (%sp)+,%fp1
 478 05b2 F22E 54A3 	fmul.d -16(%fp),%fp1
 478      FFF0 
 479 05b8 F227 7480 	fmove.d %fp1,-(%sp)
 480 05bc 201F      	move.l (%sp)+,%d0
 481 05be 221F      	move.l (%sp)+,%d1
 482 05c0 2F09      	move.l %a1,-(%sp)
 483 05c2 2F08      	move.l %a0,-(%sp)
 484 05c4 F21F 5400 	fmove.d (%sp)+,%fp0
 485 05c8 2F01      	move.l %d1,-(%sp)
 486 05ca 2F00      	move.l %d0,-(%sp)
 487 05cc F21F 5480 	fmove.d (%sp)+,%fp1
 488 05d0 F200 0422 	fadd.x %fp1,%fp0
 489 05d4 F227 7400 	fmove.d %fp0,-(%sp)
 490 05d8 201F      	move.l (%sp)+,%d0
 491 05da 221F      	move.l (%sp)+,%d1
 492 05dc 206E FFC0 	move.l -64(%fp),%a0
 493 05e0 226E FFC4 	move.l -60(%fp),%a1
 494 05e4 2F01      	move.l %d1,-(%sp)
 495 05e6 2F00      	move.l %d0,-(%sp)
 496 05e8 F21F 5400 	fmove.d (%sp)+,%fp0
 497 05ec 2F09      	move.l %a1,-(%sp)
 498 05ee 2F08      	move.l %a0,-(%sp)
 499 05f0 F21F 5480 	fmove.d (%sp)+,%fp1
 500 05f4 F200 0423 	fmul.x %fp1,%fp0
 501 05f8 F22E 7400 	fmove.d %fp0,-24(%fp)
 501      FFE8 
 502 05fe 206E FFC0 	move.l -64(%fp),%a0
 503 0602 226E FFC4 	move.l -60(%fp),%a1
 504 0606 202E 0008 	move.l 8(%fp),%d0
68K GAS   			page 11


 505 060a 222E 000C 	move.l 12(%fp),%d1
 506 060e 2F09      	move.l %a1,-(%sp)
 507 0610 2F08      	move.l %a0,-(%sp)
 508 0612 F21F 5400 	fmove.d (%sp)+,%fp0
 509 0616 2F01      	move.l %d1,-(%sp)
 510 0618 2F00      	move.l %d0,-(%sp)
 511 061a F21F 5480 	fmove.d (%sp)+,%fp1
 512 061e F200 0423 	fmul.x %fp1,%fp0
 513 0622 F22E 7400 	fmove.d %fp0,-40(%fp)
 513      FFD8 
 514 0628 F22E 5400 	fmove.d -48(%fp),%fp0
 514      FFD0 
 515 062e F22E 5422 	fadd.d -24(%fp),%fp0
 515      FFE8 
 516 0634 F227 7400 	fmove.d %fp0,-(%sp)
 517 0638 201F      	move.l (%sp)+,%d0
 518 063a 221F      	move.l (%sp)+,%d1
 519 063c 2F01      	move.l %d1,-(%sp)
 520 063e 2F00      	move.l %d0,-(%sp)
 521 0640 F21F 5480 	fmove.d (%sp)+,%fp1
 522 0644 F22E 54A3 	fmul.d -40(%fp),%fp1
 522      FFD8 
 523 064a F227 7480 	fmove.d %fp1,-(%sp)
 524 064e 201F      	move.l (%sp)+,%d0
 525 0650 221F      	move.l (%sp)+,%d1
 526 0652 2F01      	move.l %d1,-(%sp)
 527 0654 2F00      	move.l %d0,-(%sp)
 528 0656 F21F 5400 	fmove.d (%sp)+,%fp0
 529 065a F22E 5422 	fadd.d 16(%fp),%fp0
 529      0010 
 530 0660 F227 7400 	fmove.d %fp0,-(%sp)
 531 0664 201F      	move.l (%sp)+,%d0
 532 0666 221F      	move.l (%sp)+,%d1
 533 0668 206E FFC0 	move.l -64(%fp),%a0
 534 066c 226E FFC4 	move.l -60(%fp),%a1
 535 0670 2F01      	move.l %d1,-(%sp)
 536 0672 2F00      	move.l %d0,-(%sp)
 537 0674 F21F 5480 	fmove.d (%sp)+,%fp1
 538 0678 2F09      	move.l %a1,-(%sp)
 539 067a 2F08      	move.l %a0,-(%sp)
 540 067c F21F 5400 	fmove.d (%sp)+,%fp0
 541 0680 F200 00A3 	fmul.x %fp0,%fp1
 542 0684 F227 7480 	fmove.d %fp1,-(%sp)
 543 0688 201F      	move.l (%sp)+,%d0
 544 068a 221F      	move.l (%sp)+,%d1
 545 068c 2F01      	move.l %d1,-(%sp)
 546 068e 2F00      	move.l %d0,-(%sp)
 547 0690 F21F 5480 	fmove.d (%sp)+,%fp1
 548 0694 F22E 54A2 	fadd.d 16(%fp),%fp1
 548      0010 
 549 069a F22E 7480 	fmove.d %fp1,-48(%fp)
 549      FFD0 
 550 06a0 2039 0000 	move.l xxx,%d0
 550      0000 
 551 06a6 2239 0000 	move.l xxx+4,%d1
 551      0000 
 552 06ac 2F01      	move.l %d1,-(%sp)
68K GAS   			page 12


 553 06ae 2F00      	move.l %d0,-(%sp)
 554 06b0 F21F 5400 	fmove.d (%sp)+,%fp0
 555 06b4 F22E 5423 	fmul.d -40(%fp),%fp0
 555      FFD8 
 556 06ba F227 7400 	fmove.d %fp0,-(%sp)
 557 06be 201F      	move.l (%sp)+,%d0
 558 06c0 221F      	move.l (%sp)+,%d1
 559 06c2 2F01      	move.l %d1,-(%sp)
 560 06c4 2F00      	move.l %d0,-(%sp)
 561 06c6 F21F 5480 	fmove.d (%sp)+,%fp1
 562 06ca F22E 54A2 	fadd.d -48(%fp),%fp1
 562      FFD0 
 563 06d0 F22E 7480 	fmove.d %fp1,-48(%fp)
 563      FFD0 
 564 06d6 202E 0008 	move.l 8(%fp),%d0
 565 06da 222E 000C 	move.l 12(%fp),%d1
 566 06de 2F01      	move.l %d1,-(%sp)
 567 06e0 2F00      	move.l %d0,-(%sp)
 568 06e2 F21F 5400 	fmove.d (%sp)+,%fp0
 569 06e6 F22E 5422 	fadd.d -48(%fp),%fp0
 569      FFD0 
 570 06ec F22E 7400 	fmove.d %fp0,-16(%fp)
 570      FFF0 
 571 06f2 0CAE 3FE5 	cmp.l #1072010279,-8(%fp)
 571      9427 FFF8 
 572 06fa 6F00 0100 	jle .L8
 573 06fe F22E 4080 	fmove.l 24(%fp),%fp1
 573      0018 
 574 0704 F22E 7480 	fmove.d %fp1,-24(%fp)
 574      FFE8 
 575 070a 202E FFFC 	move.l -4(%fp),%d0
 576 070e 721E      	moveq #30,%d1
 577 0710 E2A0      	asr.l %d1,%d0
 578 0712 7202      	moveq #2,%d1
 579 0714 C081      	and.l %d1,%d0
 580 0716 7201      	moveq #1,%d1
 581 0718 9280      	sub.l %d0,%d1
 582 071a 2001      	move.l %d1,%d0
 583 071c F200 4000 	fmove.l %d0,%fp0
 584 0720 F227 7400 	fmove.d %fp0,-(%sp)
 585 0724 205F      	move.l (%sp)+,%a0
 586 0726 225F      	move.l (%sp)+,%a1
 587 0728 242E 0008 	move.l 8(%fp),%d2
 588 072c 262E 000C 	move.l 12(%fp),%d3
 589 0730 F22E 5480 	fmove.d -16(%fp),%fp1
 589      FFF0 
 590 0736 F22E 54A3 	fmul.d -16(%fp),%fp1
 590      FFF0 
 591 073c F227 7480 	fmove.d %fp1,-(%sp)
 592 0740 201F      	move.l (%sp)+,%d0
 593 0742 221F      	move.l (%sp)+,%d1
 594 0744 F22E 5400 	fmove.d -16(%fp),%fp0
 594      FFF0 
 595 074a F22E 5422 	fadd.d -24(%fp),%fp0
 595      FFE8 
 596 0750 F227 7400 	fmove.d %fp0,-(%sp)
 597 0754 281F      	move.l (%sp)+,%d4
68K GAS   			page 13


 598 0756 2A1F      	move.l (%sp)+,%d5
 599 0758 2F01      	move.l %d1,-(%sp)
 600 075a 2F00      	move.l %d0,-(%sp)
 601 075c F21F 5480 	fmove.d (%sp)+,%fp1
 602 0760 2F05      	move.l %d5,-(%sp)
 603 0762 2F04      	move.l %d4,-(%sp)
 604 0764 F21F 5400 	fmove.d (%sp)+,%fp0
 605 0768 F200 00A0 	fdiv.x %fp0,%fp1
 606 076c F227 7480 	fmove.d %fp1,-(%sp)
 607 0770 201F      	move.l (%sp)+,%d0
 608 0772 221F      	move.l (%sp)+,%d1
 609 0774 2F01      	move.l %d1,-(%sp)
 610 0776 2F00      	move.l %d0,-(%sp)
 611 0778 F21F 5480 	fmove.d (%sp)+,%fp1
 612 077c F22E 54A8 	fsub.d -48(%fp),%fp1
 612      FFD0 
 613 0782 F227 7480 	fmove.d %fp1,-(%sp)
 614 0786 201F      	move.l (%sp)+,%d0
 615 0788 221F      	move.l (%sp)+,%d1
 616 078a 2F03      	move.l %d3,-(%sp)
 617 078c 2F02      	move.l %d2,-(%sp)
 618 078e F21F 5400 	fmove.d (%sp)+,%fp0
 619 0792 2F01      	move.l %d1,-(%sp)
 620 0794 2F00      	move.l %d0,-(%sp)
 621 0796 F21F 5480 	fmove.d (%sp)+,%fp1
 622 079a F200 0428 	fsub.x %fp1,%fp0
 623 079e F227 7400 	fmove.d %fp0,-(%sp)
 624 07a2 201F      	move.l (%sp)+,%d0
 625 07a4 221F      	move.l (%sp)+,%d1
 626 07a6 2F01      	move.l %d1,-(%sp)
 627 07a8 2F00      	move.l %d0,-(%sp)
 628 07aa F21F 5400 	fmove.d (%sp)+,%fp0
 629 07ae 2F01      	move.l %d1,-(%sp)
 630 07b0 2F00      	move.l %d0,-(%sp)
 631 07b2 F21F 5480 	fmove.d (%sp)+,%fp1
 632 07b6 F200 0422 	fadd.x %fp1,%fp0
 633 07ba F227 7400 	fmove.d %fp0,-(%sp)
 634 07be 201F      	move.l (%sp)+,%d0
 635 07c0 221F      	move.l (%sp)+,%d1
 636 07c2 F22E 5400 	fmove.d -24(%fp),%fp0
 636      FFE8 
 637 07c8 2F01      	move.l %d1,-(%sp)
 638 07ca 2F00      	move.l %d0,-(%sp)
 639 07cc F21F 5480 	fmove.d (%sp)+,%fp1
 640 07d0 F200 0428 	fsub.x %fp1,%fp0
 641 07d4 F227 7400 	fmove.d %fp0,-(%sp)
 642 07d8 201F      	move.l (%sp)+,%d0
 643 07da 221F      	move.l (%sp)+,%d1
 644 07dc 2F09      	move.l %a1,-(%sp)
 645 07de 2F08      	move.l %a0,-(%sp)
 646 07e0 F21F 5400 	fmove.d (%sp)+,%fp0
 647 07e4 2F01      	move.l %d1,-(%sp)
 648 07e6 2F00      	move.l %d0,-(%sp)
 649 07e8 F21F 5480 	fmove.d (%sp)+,%fp1
 650 07ec F200 0423 	fmul.x %fp1,%fp0
 651 07f0 F227 7400 	fmove.d %fp0,-(%sp)
 652 07f4 201F      	move.l (%sp)+,%d0
68K GAS   			page 14


 653 07f6 221F      	move.l (%sp)+,%d1
 654 07f8 6000 014E 	jra .L4
 655               	.L8:
 656 07fc 7001      	moveq #1,%d0
 657 07fe B0AE 0018 	cmp.l 24(%fp),%d0
 658 0802 660C      	jne .L9
 659 0804 202E FFF0 	move.l -16(%fp),%d0
 660 0808 222E FFF4 	move.l -12(%fp),%d1
 661 080c 6000 013A 	jra .L4
 662               	.L9:
 663 0810 2D6E FFF0 	move.l -16(%fp),-64(%fp)
 663      FFC0 
 664 0816 2D6E FFF4 	move.l -12(%fp),-60(%fp)
 664      FFC4 
 665 081c 70C0      	moveq #-64,%d0
 666 081e D08E      	add.l %fp,%d0
 667 0820 5880      	addq.l #4,%d0
 668 0822 2040      	move.l %d0,%a0
 669 0824 4290      	clr.l (%a0)
 670 0826 202E FFC0 	move.l -64(%fp),%d0
 671 082a 222E FFC4 	move.l -60(%fp),%d1
 672 082e 206E 0008 	move.l 8(%fp),%a0
 673 0832 226E 000C 	move.l 12(%fp),%a1
 674 0836 2F01      	move.l %d1,-(%sp)
 675 0838 2F00      	move.l %d0,-(%sp)
 676 083a F21F 5400 	fmove.d (%sp)+,%fp0
 677 083e 2F09      	move.l %a1,-(%sp)
 678 0840 2F08      	move.l %a0,-(%sp)
 679 0842 F21F 5480 	fmove.d (%sp)+,%fp1
 680 0846 F200 0428 	fsub.x %fp1,%fp0
 681 084a F227 7400 	fmove.d %fp0,-(%sp)
 682 084e 201F      	move.l (%sp)+,%d0
 683 0850 221F      	move.l (%sp)+,%d1
 684 0852 F22E 5400 	fmove.d -48(%fp),%fp0
 684      FFD0 
 685 0858 2F01      	move.l %d1,-(%sp)
 686 085a 2F00      	move.l %d0,-(%sp)
 687 085c F21F 5480 	fmove.d (%sp)+,%fp1
 688 0860 F200 0428 	fsub.x %fp1,%fp0
 689 0864 F22E 7400 	fmove.d %fp0,-24(%fp)
 689      FFE8 
 690 086a F23C 5400 	fmove.d #0xbff0000000000000,%fp0
 690      BFF0 0000 
 690      0000 0000 
 691 0876 F22E 5420 	fdiv.d -16(%fp),%fp0
 691      FFF0 
 692 087c F22E 7400 	fmove.d %fp0,-56(%fp)
 692      FFC8 
 693 0882 2D6E FFC8 	move.l -56(%fp),-80(%fp)
 693      FFB0 
 694 0888 2D6E FFCC 	move.l -52(%fp),-76(%fp)
 694      FFB4 
 695 088e 70B0      	moveq #-80,%d0
 696 0890 D08E      	add.l %fp,%d0
 697 0892 5880      	addq.l #4,%d0
 698 0894 2040      	move.l %d0,%a0
 699 0896 4290      	clr.l (%a0)
68K GAS   			page 15


 700 0898 206E FFB0 	move.l -80(%fp),%a0
 701 089c 226E FFB4 	move.l -76(%fp),%a1
 702 08a0 202E FFC0 	move.l -64(%fp),%d0
 703 08a4 222E FFC4 	move.l -60(%fp),%d1
 704 08a8 2F09      	move.l %a1,-(%sp)
 705 08aa 2F08      	move.l %a0,-(%sp)
 706 08ac F21F 5400 	fmove.d (%sp)+,%fp0
 707 08b0 2F01      	move.l %d1,-(%sp)
 708 08b2 2F00      	move.l %d0,-(%sp)
 709 08b4 F21F 5480 	fmove.d (%sp)+,%fp1
 710 08b8 F200 0423 	fmul.x %fp1,%fp0
 711 08bc F227 7400 	fmove.d %fp0,-(%sp)
 712 08c0 201F      	move.l (%sp)+,%d0
 713 08c2 221F      	move.l (%sp)+,%d1
 714 08c4 2F01      	move.l %d1,-(%sp)
 715 08c6 2F00      	move.l %d0,-(%sp)
 716 08c8 F21F 5400 	fmove.d (%sp)+,%fp0
 717 08cc F200 5CB2 	fmovecr #0x32,%fp1
 718 08d0 F200 0422 	fadd.x %fp1,%fp0
 719 08d4 F22E 7400 	fmove.d %fp0,-40(%fp)
 719      FFD8 
 720 08da 202E FFB0 	move.l -80(%fp),%d0
 721 08de 222E FFB4 	move.l -76(%fp),%d1
 722 08e2 2F01      	move.l %d1,-(%sp)
 723 08e4 2F00      	move.l %d0,-(%sp)
 724 08e6 F21F 5400 	fmove.d (%sp)+,%fp0
 725 08ea F22E 5423 	fmul.d -24(%fp),%fp0
 725      FFE8 
 726 08f0 F227 7400 	fmove.d %fp0,-(%sp)
 727 08f4 201F      	move.l (%sp)+,%d0
 728 08f6 221F      	move.l (%sp)+,%d1
 729 08f8 2F01      	move.l %d1,-(%sp)
 730 08fa 2F00      	move.l %d0,-(%sp)
 731 08fc F21F 5480 	fmove.d (%sp)+,%fp1
 732 0900 F22E 54A2 	fadd.d -40(%fp),%fp1
 732      FFD8 
 733 0906 F227 7480 	fmove.d %fp1,-(%sp)
 734 090a 201F      	move.l (%sp)+,%d0
 735 090c 221F      	move.l (%sp)+,%d1
 736 090e 2F01      	move.l %d1,-(%sp)
 737 0910 2F00      	move.l %d0,-(%sp)
 738 0912 F21F 5400 	fmove.d (%sp)+,%fp0
 739 0916 F22E 5423 	fmul.d -56(%fp),%fp0
 739      FFC8 
 740 091c F227 7400 	fmove.d %fp0,-(%sp)
 741 0920 201F      	move.l (%sp)+,%d0
 742 0922 221F      	move.l (%sp)+,%d1
 743 0924 206E FFB0 	move.l -80(%fp),%a0
 744 0928 226E FFB4 	move.l -76(%fp),%a1
 745 092c 2F01      	move.l %d1,-(%sp)
 746 092e 2F00      	move.l %d0,-(%sp)
 747 0930 F21F 5480 	fmove.d (%sp)+,%fp1
 748 0934 2F09      	move.l %a1,-(%sp)
 749 0936 2F08      	move.l %a0,-(%sp)
 750 0938 F21F 5400 	fmove.d (%sp)+,%fp0
 751 093c F200 00A2 	fadd.x %fp0,%fp1
 752 0940 F227 7480 	fmove.d %fp1,-(%sp)
68K GAS   			page 16


 753 0944 201F      	move.l (%sp)+,%d0
 754 0946 221F      	move.l (%sp)+,%d1
 755               	.L4:
 756 0948 2F01      	move.l %d1,-(%sp)
 757 094a 2F00      	move.l %d0,-(%sp)
 758 094c F21F 5400 	fmove.d (%sp)+,%fp0
 759 0950 4CEE 0CFC 	movem.l -112(%fp),#3324
 759      FF90 
 760 0956 4E5E      	unlk %fp
 761 0958 4E75      	rts
 763               	.ident"GCC: (GNU) 4.5.1"
 764               	.section.note.GNU-stack,"",@progbits
68K GAS   			page 17


DEFINED SYMBOLS
                            *ABS*:00000000 k_tan.c
    {standard input}:7      .rodata:00000000 xxx
    {standard input}:44     .text:00000000 __kernel_tan

UNDEFINED SYMBOLS
fabs
