68K GAS   			page 1


   1               	
   2               	.file"s_asinh.c"
   3               	.section.rodata
   4               	.align2
   7               	one:
   8 0000 3FF0 0000 	.long1072693248
   9 0004 0000 0000 	.long0
  10               	.align2
  13               	ln2:
  14 0008 3FE6 2E42 	.long1072049730
  15 000c FEFA 39EF 	.long-17155601
  16               	.align2
  19               	huge:
  20 0010 7E37 E43C 	.long2117592124
  21 0014 8800 759C 	.long-2013235812
  22               	.text
  23               	.align2
  24               	.globlasinh
  26               	asinh:
  27 0000 4E56 FFE8 	link.w %fp,#-24
  28 0004 48E7 3C00 	movem.l #15360,-(%sp)
  29 0008 200E      	move.l %fp,%d0
  30 000a 5080      	addq.l #8,%d0
  31 000c 2040      	move.l %d0,%a0
  32 000e 2D50 FFF4 	move.l (%a0),-12(%fp)
  33 0012 202E FFF4 	move.l -12(%fp),%d0
  34 0016 0880 001F 	bclr #31,%d0
  35 001a 2D40 FFF0 	move.l %d0,-16(%fp)
  36 001e 0CAE 7FEF 	cmp.l #2146435071,-16(%fp)
  36      FFFF FFF0 
  37 0026 6F28      	jle .L2
  38 0028 202E 0008 	move.l 8(%fp),%d0
  39 002c 222E 000C 	move.l 12(%fp),%d1
  40 0030 2F01      	move.l %d1,-(%sp)
  41 0032 2F00      	move.l %d0,-(%sp)
  42 0034 F21F 5400 	fmove.d (%sp)+,%fp0
  43 0038 2F01      	move.l %d1,-(%sp)
  44 003a 2F00      	move.l %d0,-(%sp)
  45 003c F21F 5480 	fmove.d (%sp)+,%fp1
  46 0040 F200 0422 	fadd.x %fp1,%fp0
  47 0044 F227 7400 	fmove.d %fp0,-(%sp)
  48 0048 201F      	move.l (%sp)+,%d0
  49 004a 221F      	move.l (%sp)+,%d1
  50 004c 6000 0300 	jra .L3
  51               	.L2:
  52 0050 0CAE 3E2F 	cmp.l #1043333119,-16(%fp)
  52      FFFF FFF0 
  53 0058 6E66      	jgt .L4
  54 005a 2079 0000 	move.l huge,%a0
  54      0000 
  55 0060 2279 0000 	move.l huge+4,%a1
  55      0000 
  56 0066 202E 0008 	move.l 8(%fp),%d0
  57 006a 222E 000C 	move.l 12(%fp),%d1
  58 006e 2F09      	move.l %a1,-(%sp)
  59 0070 2F08      	move.l %a0,-(%sp)
  60 0072 F21F 5400 	fmove.d (%sp)+,%fp0
68K GAS   			page 2


  61 0076 2F01      	move.l %d1,-(%sp)
  62 0078 2F00      	move.l %d0,-(%sp)
  63 007a F21F 5480 	fmove.d (%sp)+,%fp1
  64 007e F200 0422 	fadd.x %fp1,%fp0
  65 0082 F227 7400 	fmove.d %fp0,-(%sp)
  66 0086 201F      	move.l (%sp)+,%d0
  67 0088 221F      	move.l (%sp)+,%d1
  68 008a 2079 0000 	move.l one,%a0
  68      0000 
  69 0090 2279 0000 	move.l one+4,%a1
  69      0000 
  70 0096 2F01      	move.l %d1,-(%sp)
  71 0098 2F00      	move.l %d0,-(%sp)
  72 009a F21F 5400 	fmove.d (%sp)+,%fp0
  73 009e 2F09      	move.l %a1,-(%sp)
  74 00a0 2F08      	move.l %a0,-(%sp)
  75 00a2 F21F 5480 	fmove.d (%sp)+,%fp1
  76 00a6 F200 0438 	fcmp.x %fp1,%fp0
  77 00aa F240 0012 	fsgt %d0
  78 00ae 4400      	neg.b %d0
  79 00b0 4A00      	tst.b %d0
  80 00b2 670C      	jeq .L4
  81 00b4 202E 0008 	move.l 8(%fp),%d0
  82 00b8 222E 000C 	move.l 12(%fp),%d1
  83 00bc 6000 0290 	jra .L3
  84               	.L4:
  85 00c0 0CAE 41B0 	cmp.l #1102053376,-16(%fp)
  85      0000 FFF0 
  86 00c8 6F5A      	jle .L5
  87 00ca 202E 0008 	move.l 8(%fp),%d0
  88 00ce 222E 000C 	move.l 12(%fp),%d1
  89 00d2 2F01      	move.l %d1,-(%sp)
  90 00d4 2F00      	move.l %d0,-(%sp)
  91 00d6 4EB9 0000 	jsr fabs
  91      0000 
  92 00dc 508F      	addq.l #8,%sp
  93 00de F227 7400 	fmove.d %fp0,-(%sp)
  94 00e2 201F      	move.l (%sp)+,%d0
  95 00e4 221F      	move.l (%sp)+,%d1
  96 00e6 2F01      	move.l %d1,-(%sp)
  97 00e8 2F00      	move.l %d0,-(%sp)
  98 00ea 4EB9 0000 	jsr __ieee754_log
  98      0000 
  99 00f0 508F      	addq.l #8,%sp
 100 00f2 F227 7400 	fmove.d %fp0,-(%sp)
 101 00f6 205F      	move.l (%sp)+,%a0
 102 00f8 225F      	move.l (%sp)+,%a1
 103 00fa 2039 0000 	move.l ln2,%d0
 103      0000 
 104 0100 2239 0000 	move.l ln2+4,%d1
 104      0000 
 105 0106 2F09      	move.l %a1,-(%sp)
 106 0108 2F08      	move.l %a0,-(%sp)
 107 010a F21F 5400 	fmove.d (%sp)+,%fp0
 108 010e 2F01      	move.l %d1,-(%sp)
 109 0110 2F00      	move.l %d0,-(%sp)
 110 0112 F21F 5480 	fmove.d (%sp)+,%fp1
68K GAS   			page 3


 111 0116 F200 0422 	fadd.x %fp1,%fp0
 112 011a F22E 7400 	fmove.d %fp0,-8(%fp)
 112      FFF8 
 113 0120 6000 0210 	jra .L6
 114               	.L5:
 115 0124 0CAE 4000 	cmp.l #1073741824,-16(%fp)
 115      0000 FFF0 
 116 012c 6F00 0118 	jle .L7
 117 0130 202E 0008 	move.l 8(%fp),%d0
 118 0134 222E 000C 	move.l 12(%fp),%d1
 119 0138 2F01      	move.l %d1,-(%sp)
 120 013a 2F00      	move.l %d0,-(%sp)
 121 013c 4EB9 0000 	jsr fabs
 121      0000 
 122 0142 508F      	addq.l #8,%sp
 123 0144 F22E 7400 	fmove.d %fp0,-24(%fp)
 123      FFE8 
 124 014a 202E FFE8 	move.l -24(%fp),%d0
 125 014e 222E FFEC 	move.l -20(%fp),%d1
 126 0152 2F01      	move.l %d1,-(%sp)
 127 0154 2F00      	move.l %d0,-(%sp)
 128 0156 F21F 5400 	fmove.d (%sp)+,%fp0
 129 015a 2F01      	move.l %d1,-(%sp)
 130 015c 2F00      	move.l %d0,-(%sp)
 131 015e F21F 5480 	fmove.d (%sp)+,%fp1
 132 0162 F200 0422 	fadd.x %fp1,%fp0
 133 0166 F227 7400 	fmove.d %fp0,-(%sp)
 134 016a 241F      	move.l (%sp)+,%d2
 135 016c 261F      	move.l (%sp)+,%d3
 136 016e 2839 0000 	move.l one,%d4
 136      0000 
 137 0174 2A39 0000 	move.l one+4,%d5
 137      0000 
 138 017a 206E 0008 	move.l 8(%fp),%a0
 139 017e 226E 000C 	move.l 12(%fp),%a1
 140 0182 202E 0008 	move.l 8(%fp),%d0
 141 0186 222E 000C 	move.l 12(%fp),%d1
 142 018a 2F09      	move.l %a1,-(%sp)
 143 018c 2F08      	move.l %a0,-(%sp)
 144 018e F21F 5400 	fmove.d (%sp)+,%fp0
 145 0192 2F01      	move.l %d1,-(%sp)
 146 0194 2F00      	move.l %d0,-(%sp)
 147 0196 F21F 5480 	fmove.d (%sp)+,%fp1
 148 019a F200 0423 	fmul.x %fp1,%fp0
 149 019e F227 7400 	fmove.d %fp0,-(%sp)
 150 01a2 201F      	move.l (%sp)+,%d0
 151 01a4 221F      	move.l (%sp)+,%d1
 152 01a6 2079 0000 	move.l one,%a0
 152      0000 
 153 01ac 2279 0000 	move.l one+4,%a1
 153      0000 
 154 01b2 2F01      	move.l %d1,-(%sp)
 155 01b4 2F00      	move.l %d0,-(%sp)
 156 01b6 F21F 5400 	fmove.d (%sp)+,%fp0
 157 01ba 2F09      	move.l %a1,-(%sp)
 158 01bc 2F08      	move.l %a0,-(%sp)
 159 01be F21F 5480 	fmove.d (%sp)+,%fp1
68K GAS   			page 4


 160 01c2 F200 0422 	fadd.x %fp1,%fp0
 161 01c6 F227 7400 	fmove.d %fp0,-(%sp)
 162 01ca 201F      	move.l (%sp)+,%d0
 163 01cc 221F      	move.l (%sp)+,%d1
 164 01ce 2F01      	move.l %d1,-(%sp)
 165 01d0 2F00      	move.l %d0,-(%sp)
 166 01d2 4EB9 0000 	jsr sqrt
 166      0000 
 167 01d8 508F      	addq.l #8,%sp
 168 01da F227 7400 	fmove.d %fp0,-(%sp)
 169 01de 201F      	move.l (%sp)+,%d0
 170 01e0 221F      	move.l (%sp)+,%d1
 171 01e2 2F01      	move.l %d1,-(%sp)
 172 01e4 2F00      	move.l %d0,-(%sp)
 173 01e6 F21F 5400 	fmove.d (%sp)+,%fp0
 174 01ea F22E 5422 	fadd.d -24(%fp),%fp0
 174      FFE8 
 175 01f0 F227 7400 	fmove.d %fp0,-(%sp)
 176 01f4 201F      	move.l (%sp)+,%d0
 177 01f6 221F      	move.l (%sp)+,%d1
 178 01f8 2F05      	move.l %d5,-(%sp)
 179 01fa 2F04      	move.l %d4,-(%sp)
 180 01fc F21F 5480 	fmove.d (%sp)+,%fp1
 181 0200 2F01      	move.l %d1,-(%sp)
 182 0202 2F00      	move.l %d0,-(%sp)
 183 0204 F21F 5400 	fmove.d (%sp)+,%fp0
 184 0208 F200 00A0 	fdiv.x %fp0,%fp1
 185 020c F227 7480 	fmove.d %fp1,-(%sp)
 186 0210 201F      	move.l (%sp)+,%d0
 187 0212 221F      	move.l (%sp)+,%d1
 188 0214 2F03      	move.l %d3,-(%sp)
 189 0216 2F02      	move.l %d2,-(%sp)
 190 0218 F21F 5480 	fmove.d (%sp)+,%fp1
 191 021c 2F01      	move.l %d1,-(%sp)
 192 021e 2F00      	move.l %d0,-(%sp)
 193 0220 F21F 5400 	fmove.d (%sp)+,%fp0
 194 0224 F200 00A2 	fadd.x %fp0,%fp1
 195 0228 F227 7480 	fmove.d %fp1,-(%sp)
 196 022c 201F      	move.l (%sp)+,%d0
 197 022e 221F      	move.l (%sp)+,%d1
 198 0230 2F01      	move.l %d1,-(%sp)
 199 0232 2F00      	move.l %d0,-(%sp)
 200 0234 4EB9 0000 	jsr __ieee754_log
 200      0000 
 201 023a 508F      	addq.l #8,%sp
 202 023c F22E 7400 	fmove.d %fp0,-8(%fp)
 202      FFF8 
 203 0242 6000 00EE 	jra .L6
 204               	.L7:
 205 0246 206E 0008 	move.l 8(%fp),%a0
 206 024a 226E 000C 	move.l 12(%fp),%a1
 207 024e 202E 0008 	move.l 8(%fp),%d0
 208 0252 222E 000C 	move.l 12(%fp),%d1
 209 0256 2F09      	move.l %a1,-(%sp)
 210 0258 2F08      	move.l %a0,-(%sp)
 211 025a F21F 5480 	fmove.d (%sp)+,%fp1
 212 025e 2F01      	move.l %d1,-(%sp)
68K GAS   			page 5


 213 0260 2F00      	move.l %d0,-(%sp)
 214 0262 F21F 5400 	fmove.d (%sp)+,%fp0
 215 0266 F200 00A3 	fmul.x %fp0,%fp1
 216 026a F22E 7480 	fmove.d %fp1,-24(%fp)
 216      FFE8 
 217 0270 202E 0008 	move.l 8(%fp),%d0
 218 0274 222E 000C 	move.l 12(%fp),%d1
 219 0278 2F01      	move.l %d1,-(%sp)
 220 027a 2F00      	move.l %d0,-(%sp)
 221 027c 4EB9 0000 	jsr fabs
 221      0000 
 222 0282 508F      	addq.l #8,%sp
 223 0284 F227 7400 	fmove.d %fp0,-(%sp)
 224 0288 241F      	move.l (%sp)+,%d2
 225 028a 261F      	move.l (%sp)+,%d3
 226 028c 2039 0000 	move.l one,%d0
 226      0000 
 227 0292 2239 0000 	move.l one+4,%d1
 227      0000 
 228 0298 2F01      	move.l %d1,-(%sp)
 229 029a 2F00      	move.l %d0,-(%sp)
 230 029c F21F 5480 	fmove.d (%sp)+,%fp1
 231 02a0 F22E 54A2 	fadd.d -24(%fp),%fp1
 231      FFE8 
 232 02a6 F227 7480 	fmove.d %fp1,-(%sp)
 233 02aa 201F      	move.l (%sp)+,%d0
 234 02ac 221F      	move.l (%sp)+,%d1
 235 02ae 2F01      	move.l %d1,-(%sp)
 236 02b0 2F00      	move.l %d0,-(%sp)
 237 02b2 4EB9 0000 	jsr sqrt
 237      0000 
 238 02b8 508F      	addq.l #8,%sp
 239 02ba F227 7400 	fmove.d %fp0,-(%sp)
 240 02be 205F      	move.l (%sp)+,%a0
 241 02c0 225F      	move.l (%sp)+,%a1
 242 02c2 2039 0000 	move.l one,%d0
 242      0000 
 243 02c8 2239 0000 	move.l one+4,%d1
 243      0000 
 244 02ce 2F09      	move.l %a1,-(%sp)
 245 02d0 2F08      	move.l %a0,-(%sp)
 246 02d2 F21F 5400 	fmove.d (%sp)+,%fp0
 247 02d6 2F01      	move.l %d1,-(%sp)
 248 02d8 2F00      	move.l %d0,-(%sp)
 249 02da F21F 5480 	fmove.d (%sp)+,%fp1
 250 02de F200 0422 	fadd.x %fp1,%fp0
 251 02e2 F227 7400 	fmove.d %fp0,-(%sp)
 252 02e6 201F      	move.l (%sp)+,%d0
 253 02e8 221F      	move.l (%sp)+,%d1
 254 02ea F22E 5400 	fmove.d -24(%fp),%fp0
 254      FFE8 
 255 02f0 2F01      	move.l %d1,-(%sp)
 256 02f2 2F00      	move.l %d0,-(%sp)
 257 02f4 F21F 5480 	fmove.d (%sp)+,%fp1
 258 02f8 F200 0420 	fdiv.x %fp1,%fp0
 259 02fc F227 7400 	fmove.d %fp0,-(%sp)
 260 0300 201F      	move.l (%sp)+,%d0
68K GAS   			page 6


 261 0302 221F      	move.l (%sp)+,%d1
 262 0304 2F03      	move.l %d3,-(%sp)
 263 0306 2F02      	move.l %d2,-(%sp)
 264 0308 F21F 5400 	fmove.d (%sp)+,%fp0
 265 030c 2F01      	move.l %d1,-(%sp)
 266 030e 2F00      	move.l %d0,-(%sp)
 267 0310 F21F 5480 	fmove.d (%sp)+,%fp1
 268 0314 F200 0422 	fadd.x %fp1,%fp0
 269 0318 F227 7400 	fmove.d %fp0,-(%sp)
 270 031c 201F      	move.l (%sp)+,%d0
 271 031e 221F      	move.l (%sp)+,%d1
 272 0320 2F01      	move.l %d1,-(%sp)
 273 0322 2F00      	move.l %d0,-(%sp)
 274 0324 4EB9 0000 	jsr log1p
 274      0000 
 275 032a 508F      	addq.l #8,%sp
 276 032c F22E 7400 	fmove.d %fp0,-8(%fp)
 276      FFF8 
 277               	.L6:
 278 0332 4AAE FFF4 	tst.l -12(%fp)
 279 0336 6F0A      	jle .L8
 280 0338 202E FFF8 	move.l -8(%fp),%d0
 281 033c 222E FFFC 	move.l -4(%fp),%d1
 282 0340 600C      	jra .L3
 283               	.L8:
 284 0342 202E FFF8 	move.l -8(%fp),%d0
 285 0346 222E FFFC 	move.l -4(%fp),%d1
 286 034a 0840 001F 	bchg #31,%d0
 287               	.L3:
 288 034e 2F01      	move.l %d1,-(%sp)
 289 0350 2F00      	move.l %d0,-(%sp)
 290 0352 F21F 5400 	fmove.d (%sp)+,%fp0
 291 0356 4CEE 003C 	movem.l -40(%fp),#60
 291      FFD8 
 292 035c 4E5E      	unlk %fp
 293 035e 4E75      	rts
 295               	.ident"GCC: (GNU) 4.5.1"
 296               	.section.note.GNU-stack,"",@progbits
68K GAS   			page 7


DEFINED SYMBOLS
                            *ABS*:00000000 s_asinh.c
    {standard input}:7      .rodata:00000000 one
    {standard input}:13     .rodata:00000008 ln2
    {standard input}:19     .rodata:00000010 huge
    {standard input}:26     .text:00000000 asinh

UNDEFINED SYMBOLS
fabs
__ieee754_log
sqrt
log1p
