68K GAS   			page 1


   1               	
   2               	.file"s_atan.c"
   3               	.section.rodata
   4               	.align2
   7               	atanhi:
   8 0000 3FDD AC67 	.long1071492199
   9 0004 0561 BB4F 	.long90291023
  10 0008 3FE9 21FB 	.long1072243195
  11 000c 5444 2D18 	.long1413754136
  12 0010 3FEF 730B 	.long1072657163
  13 0014 D281 F69B 	.long-763234661
  14 0018 3FF9 21FB 	.long1073291771
  15 001c 5444 2D18 	.long1413754136
  16               	.align2
  19               	atanlo:
  20 0020 3C7A 2B7F 	.long1014639487
  21 0024 222F 65E2 	.long573531618
  22 0028 3C81 A626 	.long1015129638
  23 002c 3314 5C07 	.long856972295
  24 0030 3C70 0788 	.long1013974920
  25 0034 7AF0 CBBD 	.long2062601149
  26 0038 3C91 A626 	.long1016178214
  27 003c 3314 5C07 	.long856972295
  28               	.align2
  31               	aT:
  32 0040 3FD5 5555 	.long1070945621
  33 0044 5555 550D 	.long1431655693
  34 0048 BFC9 9999 	.long-1077306983
  35 004c 9998 EBC4 	.long-1718031420
  36 0050 3FC2 4924 	.long1069697316
  37 0054 9200 83FF 	.long-1845459969
  38 0058 BFBC 71C6 	.long-1078169146
  39 005c FE23 1671 	.long-31254927
  40 0060 3FB7 45CD 	.long1068975565
  41 0064 C54C 206E 	.long-984866706
  42 0068 BFB3 B0F2 	.long-1078742798
  43 006c AF74 9A6D 	.long-1351312787
  44 0070 3FB1 0D66 	.long1068567910
  45 0074 A0D0 3D51 	.long-1596965551
  46 0078 BFAD DE2D 	.long-1079124435
  47 007c 52DE FD9A 	.long1390345626
  48 0080 3FA9 7B4B 	.long1068071755
  49 0084 2476 0DEB 	.long611716587
  50 0088 BFA2 B444 	.long-1079856060
  51 008c 2C6A 6C2F 	.long745172015
  52 0090 3F90 AD3A 	.long1066446138
  53 0094 E322 DA11 	.long-484255215
  54               	.align2
  57               	one:
  58 0098 3FF0 0000 	.long1072693248
  59 009c 0000 0000 	.long0
  60               	.align2
  63               	huge:
  64 00a0 7E37 E43C 	.long2117592124
  65 00a4 8800 759C 	.long-2013235812
  66               	.text
  67               	.align2
68K GAS   			page 2


  68               	.globlatan
  70               	atan:
  71 0000 4E56 FFD4 	link.w %fp,#-44
  72 0004 48E7 3F30 	movem.l #16176,-(%sp)
  73 0008 200E      	move.l %fp,%d0
  74 000a 5080      	addq.l #8,%d0
  75 000c 2040      	move.l %d0,%a0
  76 000e 2D50 FFF8 	move.l (%a0),-8(%fp)
  77 0012 202E FFF8 	move.l -8(%fp),%d0
  78 0016 0880 001F 	bclr #31,%d0
  79 001a 2D40 FFF4 	move.l %d0,-12(%fp)
  80 001e 0CAE 440F 	cmp.l #1141899263,-12(%fp)
  80      FFFF FFF4 
  81 0026 6F00 00C6 	jle .L2
  82 002a 0CAE 7FF0 	cmp.l #2146435072,-12(%fp)
  82      0000 FFF4 
  83 0032 6E18      	jgt .L3
  84 0034 0CAE 7FF0 	cmp.l #2146435072,-12(%fp)
  84      0000 FFF4 
  85 003c 6636      	jne .L4
  86 003e 200E      	move.l %fp,%d0
  87 0040 5080      	addq.l #8,%d0
  88 0042 5880      	addq.l #4,%d0
  89 0044 2040      	move.l %d0,%a0
  90 0046 2010      	move.l (%a0),%d0
  91 0048 4A80      	tst.l %d0
  92 004a 6728      	jeq .L4
  93               	.L3:
  94 004c 202E 0008 	move.l 8(%fp),%d0
  95 0050 222E 000C 	move.l 12(%fp),%d1
  96 0054 2F01      	move.l %d1,-(%sp)
  97 0056 2F00      	move.l %d0,-(%sp)
  98 0058 F21F 5400 	fmove.d (%sp)+,%fp0
  99 005c 2F01      	move.l %d1,-(%sp)
 100 005e 2F00      	move.l %d0,-(%sp)
 101 0060 F21F 5480 	fmove.d (%sp)+,%fp1
 102 0064 F200 0422 	fadd.x %fp1,%fp0
 103 0068 F227 7400 	fmove.d %fp0,-(%sp)
 104 006c 201F      	move.l (%sp)+,%d0
 105 006e 221F      	move.l (%sp)+,%d1
 106 0070 6000 072A 	jra .L5
 107               	.L4:
 108 0074 4AAE FFF8 	tst.l -8(%fp)
 109 0078 6F38      	jle .L6
 110 007a 2079 0000 	move.l atanhi+24,%a0
 110      0000 
 111 0080 2279 0000 	move.l atanhi+28,%a1
 111      0000 
 112 0086 2039 0000 	move.l atanlo+24,%d0
 112      0000 
 113 008c 2239 0000 	move.l atanlo+28,%d1
 113      0000 
 114 0092 2F09      	move.l %a1,-(%sp)
 115 0094 2F08      	move.l %a0,-(%sp)
 116 0096 F21F 5400 	fmove.d (%sp)+,%fp0
 117 009a 2F01      	move.l %d1,-(%sp)
 118 009c 2F00      	move.l %d0,-(%sp)
68K GAS   			page 3


 119 009e F21F 5480 	fmove.d (%sp)+,%fp1
 120 00a2 F200 0422 	fadd.x %fp1,%fp0
 121 00a6 F227 7400 	fmove.d %fp0,-(%sp)
 122 00aa 201F      	move.l (%sp)+,%d0
 123 00ac 221F      	move.l (%sp)+,%d1
 124 00ae 6000 06EC 	jra .L5
 125               	.L6:
 126 00b2 2039 0000 	move.l atanhi+24,%d0
 126      0000 
 127 00b8 2239 0000 	move.l atanhi+28,%d1
 127      0000 
 128 00be 0840 001F 	bchg #31,%d0
 129 00c2 2079 0000 	move.l atanlo+24,%a0
 129      0000 
 130 00c8 2279 0000 	move.l atanlo+28,%a1
 130      0000 
 131 00ce 2F01      	move.l %d1,-(%sp)
 132 00d0 2F00      	move.l %d0,-(%sp)
 133 00d2 F21F 5400 	fmove.d (%sp)+,%fp0
 134 00d6 2F09      	move.l %a1,-(%sp)
 135 00d8 2F08      	move.l %a0,-(%sp)
 136 00da F21F 5480 	fmove.d (%sp)+,%fp1
 137 00de F200 0428 	fsub.x %fp1,%fp0
 138 00e2 F227 7400 	fmove.d %fp0,-(%sp)
 139 00e6 201F      	move.l (%sp)+,%d0
 140 00e8 221F      	move.l (%sp)+,%d1
 141 00ea 6000 06B0 	jra .L5
 142               	.L2:
 143 00ee 0CAE 3FDB 	cmp.l #1071382527,-12(%fp)
 143      FFFF FFF4 
 144 00f6 6E7A      	jgt .L7
 145 00f8 0CAE 3E1F 	cmp.l #1042284543,-12(%fp)
 145      FFFF FFF4 
 146 0100 6E66      	jgt .L8
 147 0102 2079 0000 	move.l huge,%a0
 147      0000 
 148 0108 2279 0000 	move.l huge+4,%a1
 148      0000 
 149 010e 202E 0008 	move.l 8(%fp),%d0
 150 0112 222E 000C 	move.l 12(%fp),%d1
 151 0116 2F09      	move.l %a1,-(%sp)
 152 0118 2F08      	move.l %a0,-(%sp)
 153 011a F21F 5400 	fmove.d (%sp)+,%fp0
 154 011e 2F01      	move.l %d1,-(%sp)
 155 0120 2F00      	move.l %d0,-(%sp)
 156 0122 F21F 5480 	fmove.d (%sp)+,%fp1
 157 0126 F200 0422 	fadd.x %fp1,%fp0
 158 012a F227 7400 	fmove.d %fp0,-(%sp)
 159 012e 201F      	move.l (%sp)+,%d0
 160 0130 221F      	move.l (%sp)+,%d1
 161 0132 2079 0000 	move.l one,%a0
 161      0000 
 162 0138 2279 0000 	move.l one+4,%a1
 162      0000 
 163 013e 2F01      	move.l %d1,-(%sp)
 164 0140 2F00      	move.l %d0,-(%sp)
 165 0142 F21F 5400 	fmove.d (%sp)+,%fp0
68K GAS   			page 4


 166 0146 2F09      	move.l %a1,-(%sp)
 167 0148 2F08      	move.l %a0,-(%sp)
 168 014a F21F 5480 	fmove.d (%sp)+,%fp1
 169 014e F200 0438 	fcmp.x %fp1,%fp0
 170 0152 F240 0012 	fsgt %d0
 171 0156 4400      	neg.b %d0
 172 0158 4A00      	tst.b %d0
 173 015a 670C      	jeq .L8
 174 015c 202E 0008 	move.l 8(%fp),%d0
 175 0160 222E 000C 	move.l 12(%fp),%d1
 176 0164 6000 0636 	jra .L5
 177               	.L8:
 178 0168 70FF      	moveq #-1,%d0
 179 016a 2D40 FFFC 	move.l %d0,-4(%fp)
 180 016e 6000 0246 	jra .L9
 181               	.L7:
 182 0172 202E 0008 	move.l 8(%fp),%d0
 183 0176 222E 000C 	move.l 12(%fp),%d1
 184 017a 2F01      	move.l %d1,-(%sp)
 185 017c 2F00      	move.l %d0,-(%sp)
 186 017e 4EB9 0000 	jsr fabs
 186      0000 
 187 0184 508F      	addq.l #8,%sp
 188 0186 F227 7400 	fmove.d %fp0,-(%sp)
 189 018a 201F      	move.l (%sp)+,%d0
 190 018c 221F      	move.l (%sp)+,%d1
 191 018e 2D40 0008 	move.l %d0,8(%fp)
 192 0192 2D41 000C 	move.l %d1,12(%fp)
 193 0196 0CAE 3FF2 	cmp.l #1072889855,-12(%fp)
 193      FFFF FFF4 
 194 019e 6E00 0138 	jgt .L10
 195 01a2 0CAE 3FE5 	cmp.l #1072037887,-12(%fp)
 195      FFFF FFF4 
 196 01aa 6E00 009E 	jgt .L11
 197 01ae 42AE FFFC 	clr.l -4(%fp)
 198 01b2 202E 0008 	move.l 8(%fp),%d0
 199 01b6 222E 000C 	move.l 12(%fp),%d1
 200 01ba 2F01      	move.l %d1,-(%sp)
 201 01bc 2F00      	move.l %d0,-(%sp)
 202 01be F21F 5400 	fmove.d (%sp)+,%fp0
 203 01c2 2F01      	move.l %d1,-(%sp)
 204 01c4 2F00      	move.l %d0,-(%sp)
 205 01c6 F21F 5480 	fmove.d (%sp)+,%fp1
 206 01ca F200 0422 	fadd.x %fp1,%fp0
 207 01ce F227 7400 	fmove.d %fp0,-(%sp)
 208 01d2 201F      	move.l (%sp)+,%d0
 209 01d4 221F      	move.l (%sp)+,%d1
 210 01d6 2079 0000 	move.l one,%a0
 210      0000 
 211 01dc 2279 0000 	move.l one+4,%a1
 211      0000 
 212 01e2 2F01      	move.l %d1,-(%sp)
 213 01e4 2F00      	move.l %d0,-(%sp)
 214 01e6 F21F 5400 	fmove.d (%sp)+,%fp0
 215 01ea 2F09      	move.l %a1,-(%sp)
 216 01ec 2F08      	move.l %a0,-(%sp)
 217 01ee F21F 5480 	fmove.d (%sp)+,%fp1
68K GAS   			page 5


 218 01f2 F200 0428 	fsub.x %fp1,%fp0
 219 01f6 F227 7400 	fmove.d %fp0,-(%sp)
 220 01fa 201F      	move.l (%sp)+,%d0
 221 01fc 221F      	move.l (%sp)+,%d1
 222 01fe 206E 0008 	move.l 8(%fp),%a0
 223 0202 226E 000C 	move.l 12(%fp),%a1
 224 0206 2F09      	move.l %a1,-(%sp)
 225 0208 2F08      	move.l %a0,-(%sp)
 226 020a F21F 5400 	fmove.d (%sp)+,%fp0
 227 020e F23C 5422 	fadd.d #0x4000000000000000,%fp0
 227      4000 0000 
 227      0000 0000 
 228 021a F227 7400 	fmove.d %fp0,-(%sp)
 229 021e 205F      	move.l (%sp)+,%a0
 230 0220 225F      	move.l (%sp)+,%a1
 231 0222 2F01      	move.l %d1,-(%sp)
 232 0224 2F00      	move.l %d0,-(%sp)
 233 0226 F21F 5480 	fmove.d (%sp)+,%fp1
 234 022a 2F09      	move.l %a1,-(%sp)
 235 022c 2F08      	move.l %a0,-(%sp)
 236 022e F21F 5400 	fmove.d (%sp)+,%fp0
 237 0232 F200 00A0 	fdiv.x %fp0,%fp1
 238 0236 F227 7480 	fmove.d %fp1,-(%sp)
 239 023a 201F      	move.l (%sp)+,%d0
 240 023c 221F      	move.l (%sp)+,%d1
 241 023e 2D40 0008 	move.l %d0,8(%fp)
 242 0242 2D41 000C 	move.l %d1,12(%fp)
 243 0246 6000 016E 	jra .L9
 244               	.L11:
 245 024a 7001      	moveq #1,%d0
 246 024c 2D40 FFFC 	move.l %d0,-4(%fp)
 247 0250 202E 0008 	move.l 8(%fp),%d0
 248 0254 222E 000C 	move.l 12(%fp),%d1
 249 0258 2079 0000 	move.l one,%a0
 249      0000 
 250 025e 2279 0000 	move.l one+4,%a1
 250      0000 
 251 0264 2F01      	move.l %d1,-(%sp)
 252 0266 2F00      	move.l %d0,-(%sp)
 253 0268 F21F 5400 	fmove.d (%sp)+,%fp0
 254 026c 2F09      	move.l %a1,-(%sp)
 255 026e 2F08      	move.l %a0,-(%sp)
 256 0270 F21F 5480 	fmove.d (%sp)+,%fp1
 257 0274 F200 0428 	fsub.x %fp1,%fp0
 258 0278 F227 7400 	fmove.d %fp0,-(%sp)
 259 027c 201F      	move.l (%sp)+,%d0
 260 027e 221F      	move.l (%sp)+,%d1
 261 0280 242E 0008 	move.l 8(%fp),%d2
 262 0284 262E 000C 	move.l 12(%fp),%d3
 263 0288 2079 0000 	move.l one,%a0
 263      0000 
 264 028e 2279 0000 	move.l one+4,%a1
 264      0000 
 265 0294 2F03      	move.l %d3,-(%sp)
 266 0296 2F02      	move.l %d2,-(%sp)
 267 0298 F21F 5400 	fmove.d (%sp)+,%fp0
 268 029c 2F09      	move.l %a1,-(%sp)
68K GAS   			page 6


 269 029e 2F08      	move.l %a0,-(%sp)
 270 02a0 F21F 5480 	fmove.d (%sp)+,%fp1
 271 02a4 F200 0422 	fadd.x %fp1,%fp0
 272 02a8 F227 7400 	fmove.d %fp0,-(%sp)
 273 02ac 205F      	move.l (%sp)+,%a0
 274 02ae 225F      	move.l (%sp)+,%a1
 275 02b0 2F01      	move.l %d1,-(%sp)
 276 02b2 2F00      	move.l %d0,-(%sp)
 277 02b4 F21F 5400 	fmove.d (%sp)+,%fp0
 278 02b8 2F09      	move.l %a1,-(%sp)
 279 02ba 2F08      	move.l %a0,-(%sp)
 280 02bc F21F 5480 	fmove.d (%sp)+,%fp1
 281 02c0 F200 0420 	fdiv.x %fp1,%fp0
 282 02c4 F227 7400 	fmove.d %fp0,-(%sp)
 283 02c8 201F      	move.l (%sp)+,%d0
 284 02ca 221F      	move.l (%sp)+,%d1
 285 02cc 2D40 0008 	move.l %d0,8(%fp)
 286 02d0 2D41 000C 	move.l %d1,12(%fp)
 287 02d4 6000 00E0 	jra .L9
 288               	.L10:
 289 02d8 0CAE 4003 	cmp.l #1073971199,-12(%fp)
 289      7FFF FFF4 
 290 02e0 6E00 009E 	jgt .L12
 291 02e4 7002      	moveq #2,%d0
 292 02e6 2D40 FFFC 	move.l %d0,-4(%fp)
 293 02ea 202E 0008 	move.l 8(%fp),%d0
 294 02ee 222E 000C 	move.l 12(%fp),%d1
 295 02f2 2F01      	move.l %d1,-(%sp)
 296 02f4 2F00      	move.l %d0,-(%sp)
 297 02f6 F21F 5400 	fmove.d (%sp)+,%fp0
 298 02fa F23C 5428 	fsub.d #0x3ff8000000000000,%fp0
 298      3FF8 0000 
 298      0000 0000 
 299 0306 F227 7400 	fmove.d %fp0,-(%sp)
 300 030a 201F      	move.l (%sp)+,%d0
 301 030c 221F      	move.l (%sp)+,%d1
 302 030e 206E 0008 	move.l 8(%fp),%a0
 303 0312 226E 000C 	move.l 12(%fp),%a1
 304 0316 2F09      	move.l %a1,-(%sp)
 305 0318 2F08      	move.l %a0,-(%sp)
 306 031a F21F 5480 	fmove.d (%sp)+,%fp1
 307 031e F23C 54A3 	fmul.d #0x3ff8000000000000,%fp1
 307      3FF8 0000 
 307      0000 0000 
 308 032a F227 7480 	fmove.d %fp1,-(%sp)
 309 032e 205F      	move.l (%sp)+,%a0
 310 0330 225F      	move.l (%sp)+,%a1
 311 0332 2439 0000 	move.l one,%d2
 311      0000 
 312 0338 2639 0000 	move.l one+4,%d3
 312      0000 
 313 033e 2F09      	move.l %a1,-(%sp)
 314 0340 2F08      	move.l %a0,-(%sp)
 315 0342 F21F 5400 	fmove.d (%sp)+,%fp0
 316 0346 2F03      	move.l %d3,-(%sp)
 317 0348 2F02      	move.l %d2,-(%sp)
 318 034a F21F 5480 	fmove.d (%sp)+,%fp1
68K GAS   			page 7


 319 034e F200 0422 	fadd.x %fp1,%fp0
 320 0352 F227 7400 	fmove.d %fp0,-(%sp)
 321 0356 205F      	move.l (%sp)+,%a0
 322 0358 225F      	move.l (%sp)+,%a1
 323 035a 2F01      	move.l %d1,-(%sp)
 324 035c 2F00      	move.l %d0,-(%sp)
 325 035e F21F 5400 	fmove.d (%sp)+,%fp0
 326 0362 2F09      	move.l %a1,-(%sp)
 327 0364 2F08      	move.l %a0,-(%sp)
 328 0366 F21F 5480 	fmove.d (%sp)+,%fp1
 329 036a F200 0420 	fdiv.x %fp1,%fp0
 330 036e F227 7400 	fmove.d %fp0,-(%sp)
 331 0372 201F      	move.l (%sp)+,%d0
 332 0374 221F      	move.l (%sp)+,%d1
 333 0376 2D40 0008 	move.l %d0,8(%fp)
 334 037a 2D41 000C 	move.l %d1,12(%fp)
 335 037e 6036      	jra .L9
 336               	.L12:
 337 0380 7003      	moveq #3,%d0
 338 0382 2D40 FFFC 	move.l %d0,-4(%fp)
 339 0386 202E 0008 	move.l 8(%fp),%d0
 340 038a 222E 000C 	move.l 12(%fp),%d1
 341 038e F23C 5400 	fmove.d #0xbff0000000000000,%fp0
 341      BFF0 0000 
 341      0000 0000 
 342 039a 2F01      	move.l %d1,-(%sp)
 343 039c 2F00      	move.l %d0,-(%sp)
 344 039e F21F 5480 	fmove.d (%sp)+,%fp1
 345 03a2 F200 0420 	fdiv.x %fp1,%fp0
 346 03a6 F227 7400 	fmove.d %fp0,-(%sp)
 347 03aa 201F      	move.l (%sp)+,%d0
 348 03ac 221F      	move.l (%sp)+,%d1
 349 03ae 2D40 0008 	move.l %d0,8(%fp)
 350 03b2 2D41 000C 	move.l %d1,12(%fp)
 351               	.L9:
 352 03b6 206E 0008 	move.l 8(%fp),%a0
 353 03ba 226E 000C 	move.l 12(%fp),%a1
 354 03be 202E 0008 	move.l 8(%fp),%d0
 355 03c2 222E 000C 	move.l 12(%fp),%d1
 356 03c6 2F09      	move.l %a1,-(%sp)
 357 03c8 2F08      	move.l %a0,-(%sp)
 358 03ca F21F 5400 	fmove.d (%sp)+,%fp0
 359 03ce 2F01      	move.l %d1,-(%sp)
 360 03d0 2F00      	move.l %d0,-(%sp)
 361 03d2 F21F 5480 	fmove.d (%sp)+,%fp1
 362 03d6 F200 0423 	fmul.x %fp1,%fp0
 363 03da F22E 7400 	fmove.d %fp0,-20(%fp)
 363      FFEC 
 364 03e0 F22E 5400 	fmove.d -20(%fp),%fp0
 364      FFEC 
 365 03e6 F22E 5423 	fmul.d -20(%fp),%fp0
 365      FFEC 
 366 03ec F22E 7400 	fmove.d %fp0,-28(%fp)
 366      FFE4 
 367 03f2 2079 0000 	move.l aT,%a0
 367      0000 
 368 03f8 2279 0000 	move.l aT+4,%a1
68K GAS   			page 8


 368      0000 
 369 03fe 2439 0000 	move.l aT+16,%d2
 369      0000 
 370 0404 2639 0000 	move.l aT+20,%d3
 370      0000 
 371 040a 2839 0000 	move.l aT+32,%d4
 371      0000 
 372 0410 2A39 0000 	move.l aT+36,%d5
 372      0000 
 373 0416 2C39 0000 	move.l aT+48,%d6
 373      0000 
 374 041c 2E39 0000 	move.l aT+52,%d7
 374      0000 
 375 0422 2479 0000 	move.l aT+64,%a2
 375      0000 
 376 0428 2679 0000 	move.l aT+68,%a3
 376      0000 
 377 042e 2039 0000 	move.l aT+80,%d0
 377      0000 
 378 0434 2239 0000 	move.l aT+84,%d1
 378      0000 
 379 043a 2F01      	move.l %d1,-(%sp)
 380 043c 2F00      	move.l %d0,-(%sp)
 381 043e F21F 5480 	fmove.d (%sp)+,%fp1
 382 0442 F22E 54A3 	fmul.d -28(%fp),%fp1
 382      FFE4 
 383 0448 F227 7480 	fmove.d %fp1,-(%sp)
 384 044c 201F      	move.l (%sp)+,%d0
 385 044e 221F      	move.l (%sp)+,%d1
 386 0450 2F0B      	move.l %a3,-(%sp)
 387 0452 2F0A      	move.l %a2,-(%sp)
 388 0454 F21F 5400 	fmove.d (%sp)+,%fp0
 389 0458 2F01      	move.l %d1,-(%sp)
 390 045a 2F00      	move.l %d0,-(%sp)
 391 045c F21F 5480 	fmove.d (%sp)+,%fp1
 392 0460 F200 0422 	fadd.x %fp1,%fp0
 393 0464 F227 7400 	fmove.d %fp0,-(%sp)
 394 0468 201F      	move.l (%sp)+,%d0
 395 046a 221F      	move.l (%sp)+,%d1
 396 046c 2F01      	move.l %d1,-(%sp)
 397 046e 2F00      	move.l %d0,-(%sp)
 398 0470 F21F 5400 	fmove.d (%sp)+,%fp0
 399 0474 F22E 5423 	fmul.d -28(%fp),%fp0
 399      FFE4 
 400 047a F227 7400 	fmove.d %fp0,-(%sp)
 401 047e 201F      	move.l (%sp)+,%d0
 402 0480 221F      	move.l (%sp)+,%d1
 403 0482 2F07      	move.l %d7,-(%sp)
 404 0484 2F06      	move.l %d6,-(%sp)
 405 0486 F21F 5480 	fmove.d (%sp)+,%fp1
 406 048a 2F01      	move.l %d1,-(%sp)
 407 048c 2F00      	move.l %d0,-(%sp)
 408 048e F21F 5400 	fmove.d (%sp)+,%fp0
 409 0492 F200 00A2 	fadd.x %fp0,%fp1
 410 0496 F227 7480 	fmove.d %fp1,-(%sp)
 411 049a 201F      	move.l (%sp)+,%d0
 412 049c 221F      	move.l (%sp)+,%d1
68K GAS   			page 9


 413 049e 2F01      	move.l %d1,-(%sp)
 414 04a0 2F00      	move.l %d0,-(%sp)
 415 04a2 F21F 5480 	fmove.d (%sp)+,%fp1
 416 04a6 F22E 54A3 	fmul.d -28(%fp),%fp1
 416      FFE4 
 417 04ac F227 7480 	fmove.d %fp1,-(%sp)
 418 04b0 201F      	move.l (%sp)+,%d0
 419 04b2 221F      	move.l (%sp)+,%d1
 420 04b4 2F05      	move.l %d5,-(%sp)
 421 04b6 2F04      	move.l %d4,-(%sp)
 422 04b8 F21F 5400 	fmove.d (%sp)+,%fp0
 423 04bc 2F01      	move.l %d1,-(%sp)
 424 04be 2F00      	move.l %d0,-(%sp)
 425 04c0 F21F 5480 	fmove.d (%sp)+,%fp1
 426 04c4 F200 0422 	fadd.x %fp1,%fp0
 427 04c8 F227 7400 	fmove.d %fp0,-(%sp)
 428 04cc 201F      	move.l (%sp)+,%d0
 429 04ce 221F      	move.l (%sp)+,%d1
 430 04d0 2F01      	move.l %d1,-(%sp)
 431 04d2 2F00      	move.l %d0,-(%sp)
 432 04d4 F21F 5400 	fmove.d (%sp)+,%fp0
 433 04d8 F22E 5423 	fmul.d -28(%fp),%fp0
 433      FFE4 
 434 04de F227 7400 	fmove.d %fp0,-(%sp)
 435 04e2 201F      	move.l (%sp)+,%d0
 436 04e4 221F      	move.l (%sp)+,%d1
 437 04e6 2F03      	move.l %d3,-(%sp)
 438 04e8 2F02      	move.l %d2,-(%sp)
 439 04ea F21F 5480 	fmove.d (%sp)+,%fp1
 440 04ee 2F01      	move.l %d1,-(%sp)
 441 04f0 2F00      	move.l %d0,-(%sp)
 442 04f2 F21F 5400 	fmove.d (%sp)+,%fp0
 443 04f6 F200 00A2 	fadd.x %fp0,%fp1
 444 04fa F227 7480 	fmove.d %fp1,-(%sp)
 445 04fe 201F      	move.l (%sp)+,%d0
 446 0500 221F      	move.l (%sp)+,%d1
 447 0502 2F01      	move.l %d1,-(%sp)
 448 0504 2F00      	move.l %d0,-(%sp)
 449 0506 F21F 5480 	fmove.d (%sp)+,%fp1
 450 050a F22E 54A3 	fmul.d -28(%fp),%fp1
 450      FFE4 
 451 0510 F227 7480 	fmove.d %fp1,-(%sp)
 452 0514 201F      	move.l (%sp)+,%d0
 453 0516 221F      	move.l (%sp)+,%d1
 454 0518 2F09      	move.l %a1,-(%sp)
 455 051a 2F08      	move.l %a0,-(%sp)
 456 051c F21F 5400 	fmove.d (%sp)+,%fp0
 457 0520 2F01      	move.l %d1,-(%sp)
 458 0522 2F00      	move.l %d0,-(%sp)
 459 0524 F21F 5480 	fmove.d (%sp)+,%fp1
 460 0528 F200 0422 	fadd.x %fp1,%fp0
 461 052c F227 7400 	fmove.d %fp0,-(%sp)
 462 0530 201F      	move.l (%sp)+,%d0
 463 0532 221F      	move.l (%sp)+,%d1
 464 0534 2F01      	move.l %d1,-(%sp)
 465 0536 2F00      	move.l %d0,-(%sp)
 466 0538 F21F 5400 	fmove.d (%sp)+,%fp0
68K GAS   			page 10


 467 053c F22E 5423 	fmul.d -20(%fp),%fp0
 467      FFEC 
 468 0542 F22E 7400 	fmove.d %fp0,-36(%fp)
 468      FFDC 
 469 0548 2079 0000 	move.l aT+8,%a0
 469      0000 
 470 054e 2279 0000 	move.l aT+12,%a1
 470      0000 
 471 0554 2439 0000 	move.l aT+24,%d2
 471      0000 
 472 055a 2639 0000 	move.l aT+28,%d3
 472      0000 
 473 0560 2839 0000 	move.l aT+40,%d4
 473      0000 
 474 0566 2A39 0000 	move.l aT+44,%d5
 474      0000 
 475 056c 2C39 0000 	move.l aT+56,%d6
 475      0000 
 476 0572 2E39 0000 	move.l aT+60,%d7
 476      0000 
 477 0578 2039 0000 	move.l aT+72,%d0
 477      0000 
 478 057e 2239 0000 	move.l aT+76,%d1
 478      0000 
 479 0584 2F01      	move.l %d1,-(%sp)
 480 0586 2F00      	move.l %d0,-(%sp)
 481 0588 F21F 5480 	fmove.d (%sp)+,%fp1
 482 058c F22E 54A3 	fmul.d -28(%fp),%fp1
 482      FFE4 
 483 0592 F227 7480 	fmove.d %fp1,-(%sp)
 484 0596 201F      	move.l (%sp)+,%d0
 485 0598 221F      	move.l (%sp)+,%d1
 486 059a 2F07      	move.l %d7,-(%sp)
 487 059c 2F06      	move.l %d6,-(%sp)
 488 059e F21F 5400 	fmove.d (%sp)+,%fp0
 489 05a2 2F01      	move.l %d1,-(%sp)
 490 05a4 2F00      	move.l %d0,-(%sp)
 491 05a6 F21F 5480 	fmove.d (%sp)+,%fp1
 492 05aa F200 0422 	fadd.x %fp1,%fp0
 493 05ae F227 7400 	fmove.d %fp0,-(%sp)
 494 05b2 201F      	move.l (%sp)+,%d0
 495 05b4 221F      	move.l (%sp)+,%d1
 496 05b6 2F01      	move.l %d1,-(%sp)
 497 05b8 2F00      	move.l %d0,-(%sp)
 498 05ba F21F 5400 	fmove.d (%sp)+,%fp0
 499 05be F22E 5423 	fmul.d -28(%fp),%fp0
 499      FFE4 
 500 05c4 F227 7400 	fmove.d %fp0,-(%sp)
 501 05c8 201F      	move.l (%sp)+,%d0
 502 05ca 221F      	move.l (%sp)+,%d1
 503 05cc 2F05      	move.l %d5,-(%sp)
 504 05ce 2F04      	move.l %d4,-(%sp)
 505 05d0 F21F 5480 	fmove.d (%sp)+,%fp1
 506 05d4 2F01      	move.l %d1,-(%sp)
 507 05d6 2F00      	move.l %d0,-(%sp)
 508 05d8 F21F 5400 	fmove.d (%sp)+,%fp0
 509 05dc F200 00A2 	fadd.x %fp0,%fp1
68K GAS   			page 11


 510 05e0 F227 7480 	fmove.d %fp1,-(%sp)
 511 05e4 201F      	move.l (%sp)+,%d0
 512 05e6 221F      	move.l (%sp)+,%d1
 513 05e8 2F01      	move.l %d1,-(%sp)
 514 05ea 2F00      	move.l %d0,-(%sp)
 515 05ec F21F 5480 	fmove.d (%sp)+,%fp1
 516 05f0 F22E 54A3 	fmul.d -28(%fp),%fp1
 516      FFE4 
 517 05f6 F227 7480 	fmove.d %fp1,-(%sp)
 518 05fa 201F      	move.l (%sp)+,%d0
 519 05fc 221F      	move.l (%sp)+,%d1
 520 05fe 2F03      	move.l %d3,-(%sp)
 521 0600 2F02      	move.l %d2,-(%sp)
 522 0602 F21F 5400 	fmove.d (%sp)+,%fp0
 523 0606 2F01      	move.l %d1,-(%sp)
 524 0608 2F00      	move.l %d0,-(%sp)
 525 060a F21F 5480 	fmove.d (%sp)+,%fp1
 526 060e F200 0422 	fadd.x %fp1,%fp0
 527 0612 F227 7400 	fmove.d %fp0,-(%sp)
 528 0616 201F      	move.l (%sp)+,%d0
 529 0618 221F      	move.l (%sp)+,%d1
 530 061a 2F01      	move.l %d1,-(%sp)
 531 061c 2F00      	move.l %d0,-(%sp)
 532 061e F21F 5400 	fmove.d (%sp)+,%fp0
 533 0622 F22E 5423 	fmul.d -28(%fp),%fp0
 533      FFE4 
 534 0628 F227 7400 	fmove.d %fp0,-(%sp)
 535 062c 201F      	move.l (%sp)+,%d0
 536 062e 221F      	move.l (%sp)+,%d1
 537 0630 2F09      	move.l %a1,-(%sp)
 538 0632 2F08      	move.l %a0,-(%sp)
 539 0634 F21F 5480 	fmove.d (%sp)+,%fp1
 540 0638 2F01      	move.l %d1,-(%sp)
 541 063a 2F00      	move.l %d0,-(%sp)
 542 063c F21F 5400 	fmove.d (%sp)+,%fp0
 543 0640 F200 00A2 	fadd.x %fp0,%fp1
 544 0644 F227 7480 	fmove.d %fp1,-(%sp)
 545 0648 201F      	move.l (%sp)+,%d0
 546 064a 221F      	move.l (%sp)+,%d1
 547 064c 2F01      	move.l %d1,-(%sp)
 548 064e 2F00      	move.l %d0,-(%sp)
 549 0650 F21F 5480 	fmove.d (%sp)+,%fp1
 550 0654 F22E 54A3 	fmul.d -28(%fp),%fp1
 550      FFE4 
 551 065a F22E 7480 	fmove.d %fp1,-44(%fp)
 551      FFD4 
 552 0660 4AAE FFFC 	tst.l -4(%fp)
 553 0664 6C60      	jge .L13
 554 0666 206E 0008 	move.l 8(%fp),%a0
 555 066a 226E 000C 	move.l 12(%fp),%a1
 556 066e F22E 5400 	fmove.d -36(%fp),%fp0
 556      FFDC 
 557 0674 F22E 5422 	fadd.d -44(%fp),%fp0
 557      FFD4 
 558 067a F227 7400 	fmove.d %fp0,-(%sp)
 559 067e 201F      	move.l (%sp)+,%d0
 560 0680 221F      	move.l (%sp)+,%d1
68K GAS   			page 12


 561 0682 242E 0008 	move.l 8(%fp),%d2
 562 0686 262E 000C 	move.l 12(%fp),%d3
 563 068a 2F01      	move.l %d1,-(%sp)
 564 068c 2F00      	move.l %d0,-(%sp)
 565 068e F21F 5480 	fmove.d (%sp)+,%fp1
 566 0692 2F03      	move.l %d3,-(%sp)
 567 0694 2F02      	move.l %d2,-(%sp)
 568 0696 F21F 5400 	fmove.d (%sp)+,%fp0
 569 069a F200 00A3 	fmul.x %fp0,%fp1
 570 069e F227 7480 	fmove.d %fp1,-(%sp)
 571 06a2 201F      	move.l (%sp)+,%d0
 572 06a4 221F      	move.l (%sp)+,%d1
 573 06a6 2F09      	move.l %a1,-(%sp)
 574 06a8 2F08      	move.l %a0,-(%sp)
 575 06aa F21F 5480 	fmove.d (%sp)+,%fp1
 576 06ae 2F01      	move.l %d1,-(%sp)
 577 06b0 2F00      	move.l %d0,-(%sp)
 578 06b2 F21F 5400 	fmove.d (%sp)+,%fp0
 579 06b6 F200 00A8 	fsub.x %fp0,%fp1
 580 06ba F227 7480 	fmove.d %fp1,-(%sp)
 581 06be 201F      	move.l (%sp)+,%d0
 582 06c0 221F      	move.l (%sp)+,%d1
 583 06c2 6000 00D8 	jra .L5
 584               	.L13:
 585 06c6 202E FFFC 	move.l -4(%fp),%d0
 586 06ca 2070 0FB0 	move.l atanhi(%d0.l*8),%a0
 586      0000 0000 
 587 06d2 2270 0FB0 	move.l atanhi+4(%d0.l*8),%a1
 587      0000 0000 
 588 06da F22E 5480 	fmove.d -36(%fp),%fp1
 588      FFDC 
 589 06e0 F22E 54A2 	fadd.d -44(%fp),%fp1
 589      FFD4 
 590 06e6 F227 7480 	fmove.d %fp1,-(%sp)
 591 06ea 201F      	move.l (%sp)+,%d0
 592 06ec 221F      	move.l (%sp)+,%d1
 593 06ee 242E 0008 	move.l 8(%fp),%d2
 594 06f2 262E 000C 	move.l 12(%fp),%d3
 595 06f6 2F01      	move.l %d1,-(%sp)
 596 06f8 2F00      	move.l %d0,-(%sp)
 597 06fa F21F 5400 	fmove.d (%sp)+,%fp0
 598 06fe 2F03      	move.l %d3,-(%sp)
 599 0700 2F02      	move.l %d2,-(%sp)
 600 0702 F21F 5480 	fmove.d (%sp)+,%fp1
 601 0706 F200 0423 	fmul.x %fp1,%fp0
 602 070a F227 7400 	fmove.d %fp0,-(%sp)
 603 070e 201F      	move.l (%sp)+,%d0
 604 0710 221F      	move.l (%sp)+,%d1
 605 0712 242E FFFC 	move.l -4(%fp),%d2
 606 0716 2630 2FB0 	move.l atanlo+4(%d2.l*8),%d3
 606      0000 0000 
 607 071e 2430 2FB0 	move.l atanlo(%d2.l*8),%d2
 607      0000 0000 
 608 0726 2F01      	move.l %d1,-(%sp)
 609 0728 2F00      	move.l %d0,-(%sp)
 610 072a F21F 5400 	fmove.d (%sp)+,%fp0
 611 072e 2F03      	move.l %d3,-(%sp)
68K GAS   			page 13


 612 0730 2F02      	move.l %d2,-(%sp)
 613 0732 F21F 5480 	fmove.d (%sp)+,%fp1
 614 0736 F200 0428 	fsub.x %fp1,%fp0
 615 073a F227 7400 	fmove.d %fp0,-(%sp)
 616 073e 201F      	move.l (%sp)+,%d0
 617 0740 221F      	move.l (%sp)+,%d1
 618 0742 242E 0008 	move.l 8(%fp),%d2
 619 0746 262E 000C 	move.l 12(%fp),%d3
 620 074a 2F01      	move.l %d1,-(%sp)
 621 074c 2F00      	move.l %d0,-(%sp)
 622 074e F21F 5400 	fmove.d (%sp)+,%fp0
 623 0752 2F03      	move.l %d3,-(%sp)
 624 0754 2F02      	move.l %d2,-(%sp)
 625 0756 F21F 5480 	fmove.d (%sp)+,%fp1
 626 075a F200 0428 	fsub.x %fp1,%fp0
 627 075e F227 7400 	fmove.d %fp0,-(%sp)
 628 0762 201F      	move.l (%sp)+,%d0
 629 0764 221F      	move.l (%sp)+,%d1
 630 0766 2F09      	move.l %a1,-(%sp)
 631 0768 2F08      	move.l %a0,-(%sp)
 632 076a F21F 5400 	fmove.d (%sp)+,%fp0
 633 076e 2F01      	move.l %d1,-(%sp)
 634 0770 2F00      	move.l %d0,-(%sp)
 635 0772 F21F 5480 	fmove.d (%sp)+,%fp1
 636 0776 F200 0428 	fsub.x %fp1,%fp0
 637 077a F22E 7400 	fmove.d %fp0,-20(%fp)
 637      FFEC 
 638 0780 4AAE FFF8 	tst.l -8(%fp)
 639 0784 6C0E      	jge .L14
 640 0786 202E FFEC 	move.l -20(%fp),%d0
 641 078a 222E FFF0 	move.l -16(%fp),%d1
 642 078e 0840 001F 	bchg #31,%d0
 643 0792 6008      	jra .L15
 644               	.L14:
 645 0794 202E FFEC 	move.l -20(%fp),%d0
 646 0798 222E FFF0 	move.l -16(%fp),%d1
 647               	.L15:
 648               	.L5:
 649 079c 2F01      	move.l %d1,-(%sp)
 650 079e 2F00      	move.l %d0,-(%sp)
 651 07a0 F21F 5400 	fmove.d (%sp)+,%fp0
 652 07a4 4CEE 0CFC 	movem.l -76(%fp),#3324
 652      FFB4 
 653 07aa 4E5E      	unlk %fp
 654 07ac 4E75      	rts
 656               	.ident"GCC: (GNU) 4.5.1"
 657               	.section.note.GNU-stack,"",@progbits
68K GAS   			page 14


DEFINED SYMBOLS
                            *ABS*:00000000 s_atan.c
    {standard input}:7      .rodata:00000000 atanhi
    {standard input}:19     .rodata:00000020 atanlo
    {standard input}:31     .rodata:00000040 aT
    {standard input}:57     .rodata:00000098 one
    {standard input}:63     .rodata:000000a0 huge
    {standard input}:70     .text:00000000 atan

UNDEFINED SYMBOLS
fabs
