68K GAS   			page 1


   1               	
   2               	.file"s_erf.c"
   3               	.section.rodata
   4               	.align2
   7               	tiny:
   8 0000 01A5 6E1F 	.long27618847
   9 0004 C2F8 F359 	.long-1023872167
  10               	.align2
  13               	half:
  14 0008 3FE0 0000 	.long1071644672
  15 000c 0000 0000 	.long0
  16               	.align2
  19               	one:
  20 0010 3FF0 0000 	.long1072693248
  21 0014 0000 0000 	.long0
  22               	.align2
  25               	two:
  26 0018 4000 0000 	.long1073741824
  27 001c 0000 0000 	.long0
  28               	.align2
  31               	erx:
  32 0020 3FEB 0AC1 	.long1072368321
  33 0024 6000 0000 	.long1610612736
  34               	.align2
  37               	efx:
  38 0028 3FC0 6EBA 	.long1069575866
  39 002c 8214 DB69 	.long-2112562327
  40               	.align2
  43               	efx8:
  44 0030 3FF0 6EBA 	.long1072721594
  45 0034 8214 DB69 	.long-2112562327
  46               	.align2
  49               	pp0:
  50 0038 3FC0 6EBA 	.long1069575866
  51 003c 8214 DB68 	.long-2112562328
  52               	.align2
  55               	pp1:
  56 0040 BFD4 CD7D 	.long-1076572803
  57 0044 691C B913 	.long1763490067
  58               	.align2
  61               	pp2:
  62 0048 BF9D 2A51 	.long-1080219055
  63 004c DBD7 194F 	.long-606660273
  64               	.align2
  67               	pp3:
  68 0050 BF77 A291 	.long-1082678639
  69 0054 2366 68E4 	.long593914084
  70               	.align2
  73               	pp4:
  74 0058 BEF8 EAD6 	.long-1090983210
  75 005c 1200 16AC 	.long301995692
  76               	.align2
  79               	qq1:
  80 0060 3FD9 7779 	.long1071216505
  81 0064 CDDA DC09 	.long-841294839
  82               	.align2
  85               	qq2:
68K GAS   			page 2


  86 0068 3FB0 A54C 	.long1068541260
  87 006c 5536 CEBA 	.long1429655226
  88               	.align2
  91               	qq3:
  92 0070 3F74 D022 	.long1064620066
  93 0074 C4D3 6B0F 	.long-992777457
  94               	.align2
  97               	qq4:
  98 0078 3F21 5DC9 	.long1059151305
  99 007c 221C 1A10 	.long572267024
 100               	.align2
 103               	qq5:
 104 0080 BED0 9C43 	.long-1093624765
 105 0084 42A2 6120 	.long1117937952
 106               	.align2
 109               	pa0:
 110 0088 BF63 59B8 	.long-1084008008
 111 008c BEF7 7538 	.long-1091078856
 112               	.align2
 115               	pa1:
 116 0090 3FDA 8D00 	.long1071287552
 117 0094 AD92 B34D 	.long-1382894771
 118               	.align2
 121               	pa2:
 122 0098 BFD7 D240 	.long-1076374976
 123 009c FBB8 C3F1 	.long-71777295
 124               	.align2
 127               	pa3:
 128 00a0 3FD4 5FCA 	.long1070882762
 129 00a4 8051 20E4 	.long-2142166812
 130               	.align2
 133               	pa4:
 134 00a8 BFBC 6398 	.long-1078172776
 135 00ac 3D3E 28EC 	.long1027483884
 136               	.align2
 139               	pa5:
 140 00b0 3FA2 2A36 	.long1067592246
 141 00b4 5997 95EB 	.long1503106539
 142               	.align2
 145               	pa6:
 146 00b8 BF61 BF38 	.long-1084113096
 147 00bc 0A96 073F 	.long177604415
 148               	.align2
 151               	qa1:
 152 00c0 3FBB 3E66 	.long1069235814
 153 00c4 18EE E323 	.long418308899
 154               	.align2
 157               	qa2:
 158 00c8 3FE1 4AF0 	.long1071729392
 159 00cc 92EB 6F33 	.long-1830064333
 160               	.align2
 163               	qa3:
 164 00d0 3FB2 635C 	.long1068655452
 165 00d4 D99F E9A7 	.long-643831385
 166               	.align2
 169               	qa4:
 170 00d8 3FC0 2660 	.long1069557344
68K GAS   			page 3


 171 00dc E763 351F 	.long-412928737
 172               	.align2
 175               	qa5:
 176 00e0 3F8B EDC2 	.long1066134978
 177 00e4 6B51 DD1C 	.long1800527132
 178               	.align2
 181               	qa6:
 182 00e8 3F88 8B54 	.long1065913172
 183 00ec 5735 151D 	.long1463096605
 184               	.align2
 187               	ra0:
 188 00f0 BF84 3412 	.long-1081854958
 189 00f4 600D 6435 	.long1611490357
 190               	.align2
 193               	ra1:
 194 00f8 BFE6 3416 	.long-1075432426
 195 00fc E4BA 7360 	.long-457542816
 196               	.align2
 199               	ra2:
 200 0100 C025 1E04 	.long-1071309308
 201 0104 41B0 E726 	.long1102112550
 202               	.align2
 205               	ra3:
 206 0108 C04F 300A 	.long-1068552182
 207 010c E4CB A38D 	.long-456416371
 208               	.align2
 211               	ra4:
 212 0110 C064 4CB1 	.long-1067168591
 213 0114 8428 2266 	.long-2077744538
 214               	.align2
 217               	ra5:
 218 0118 C067 135C 	.long-1066986660
 219 011c EBCC ABB2 	.long-338908238
 220               	.align2
 223               	ra6:
 224 0120 C054 5265 	.long-1068215707
 225 0124 57E4 D2F2 	.long1474614002
 226               	.align2
 229               	ra7:
 230 0128 C023 A0EF 	.long-1071406865
 231 012c C69A C25C 	.long-962936228
 232               	.align2
 235               	sa1:
 236 0130 4033 A6B9 	.long1077126841
 237 0134 BD70 7687 	.long-1116703097
 238               	.align2
 241               	sa2:
 242 0138 4061 350C 	.long1080112396
 243 013c 526A E721 	.long1382737697
 244               	.align2
 247               	sa3:
 248 0140 407B 290D 	.long1081813261
 249 0144 D58A 1A71 	.long-712369551
 250               	.align2
 253               	sa4:
 254 0148 4084 2B19 	.long1082403609
 255 014c 21EC 2868 	.long569124968
68K GAS   			page 4


 256               	.align2
 259               	sa5:
 260 0150 407A D021 	.long1081790497
 261 0154 5770 0314 	.long1466958612
 262               	.align2
 265               	sa6:
 266 0158 405B 28A3 	.long1079716003
 267 015c EE48 AE2C 	.long-297226708
 268               	.align2
 271               	sa7:
 272 0160 401A 47EF 	.long1075464175
 273 0164 8E48 4A93 	.long-1907864941
 274               	.align2
 277               	sa8:
 278 0168 BFAE EFF2 	.long-1079054350
 279 016c EE74 9A62 	.long-294348190
 280               	.align2
 283               	rb0:
 284 0170 BF84 3412 	.long-1081854958
 285 0174 39E8 6F4A 	.long971534154
 286               	.align2
 289               	rb1:
 290 0178 BFE9 93BA 	.long-1075211334
 291 017c 70C2 85DE 	.long1891796446
 292               	.align2
 295               	rb2:
 296 0180 C031 C209 	.long-1070480887
 297 0184 555F 995A 	.long1432328538
 298               	.align2
 301               	rb3:
 302 0188 C064 145D 	.long-1067183011
 303 018c 43C5 ED98 	.long1137044888
 304               	.align2
 307               	rb4:
 308 0190 C083 EC88 	.long-1065096056
 309 0194 1375 F228 	.long326496808
 310               	.align2
 313               	rb5:
 314 0198 C090 0461 	.long-1064303519
 315 019c 6A2E 5992 	.long1781422482
 316               	.align2
 319               	rb6:
 320 01a0 C07E 384E 	.long-1065469874
 321 01a4 9BDC 383F 	.long-1680066497
 322               	.align2
 325               	sb1:
 326 01a8 403E 568B 	.long1077827211
 327 01ac 261D 5190 	.long639455632
 328               	.align2
 331               	sb2:
 332 01b0 4074 5CAE 	.long1081367726
 333 01b4 221B 9F0A 	.long572235530
 334               	.align2
 337               	sb3:
 338 01b8 4098 02EB 	.long1083704043
 339 01bc 189D 5118 	.long412963096
 340               	.align2
68K GAS   			page 5


 343               	sb4:
 344 01c0 40A8 FFB7 	.long1084817335
 345 01c4 688C 246A 	.long1754014826
 346               	.align2
 349               	sb5:
 350 01c8 40A3 F219 	.long1084486169
 351 01cc CEDF 3BE6 	.long-824230938
 352               	.align2
 355               	sb6:
 356 01d0 407D A874 	.long1081976948
 357 01d4 E79F E763 	.long-408950941
 358               	.align2
 361               	sb7:
 362 01d8 C036 70E2 	.long-1070173982
 363 01dc 4271 2D62 	.long1114713442
 364               	.text
 365               	.align2
 366               	.globlerf
 368               	erf:
 369 0000 4E56 FFB4 	link.w %fp,#-76
 370 0004 48E7 3C00 	movem.l #15360,-(%sp)
 371 0008 200E      	move.l %fp,%d0
 372 000a 5080      	addq.l #8,%d0
 373 000c 2040      	move.l %d0,%a0
 374 000e 2D50 FFEC 	move.l (%a0),-20(%fp)
 375 0012 202E FFEC 	move.l -20(%fp),%d0
 376 0016 0880 001F 	bclr #31,%d0
 377 001a 2D40 FFE8 	move.l %d0,-24(%fp)
 378 001e 0CAE 7FEF 	cmp.l #2146435071,-24(%fp)
 378      FFFF FFE8 
 379 0026 6F72      	jle .L2
 380 0028 202E FFEC 	move.l -20(%fp),%d0
 381 002c D080      	add.l %d0,%d0
 382 002e 9180      	subx.l %d0,%d0
 383 0030 4480      	neg.l %d0
 384 0032 D080      	add.l %d0,%d0
 385 0034 2D40 FFE4 	move.l %d0,-28(%fp)
 386 0038 7001      	moveq #1,%d0
 387 003a 90AE FFE4 	sub.l -28(%fp),%d0
 388 003e F200 4000 	fmove.l %d0,%fp0
 389 0042 F227 7400 	fmove.d %fp0,-(%sp)
 390 0046 205F      	move.l (%sp)+,%a0
 391 0048 225F      	move.l (%sp)+,%a1
 392 004a 2039 0000 	move.l one,%d0
 392      0000 
 393 0050 2239 0000 	move.l one+4,%d1
 393      0000 
 394 0056 242E 0008 	move.l 8(%fp),%d2
 395 005a 262E 000C 	move.l 12(%fp),%d3
 396 005e 2F01      	move.l %d1,-(%sp)
 397 0060 2F00      	move.l %d0,-(%sp)
 398 0062 F21F 5480 	fmove.d (%sp)+,%fp1
 399 0066 2F03      	move.l %d3,-(%sp)
 400 0068 2F02      	move.l %d2,-(%sp)
 401 006a F21F 5400 	fmove.d (%sp)+,%fp0
 402 006e F200 00A0 	fdiv.x %fp0,%fp1
 403 0072 F227 7480 	fmove.d %fp1,-(%sp)
68K GAS   			page 6


 404 0076 201F      	move.l (%sp)+,%d0
 405 0078 221F      	move.l (%sp)+,%d1
 406 007a 2F09      	move.l %a1,-(%sp)
 407 007c 2F08      	move.l %a0,-(%sp)
 408 007e F21F 5480 	fmove.d (%sp)+,%fp1
 409 0082 2F01      	move.l %d1,-(%sp)
 410 0084 2F00      	move.l %d0,-(%sp)
 411 0086 F21F 5400 	fmove.d (%sp)+,%fp0
 412 008a F200 00A2 	fadd.x %fp0,%fp1
 413 008e F227 7480 	fmove.d %fp1,-(%sp)
 414 0092 201F      	move.l (%sp)+,%d0
 415 0094 221F      	move.l (%sp)+,%d1
 416 0096 6000 120C 	jra .L3
 417               	.L2:
 418 009a 0CAE 3FEA 	cmp.l #1072365567,-24(%fp)
 418      FFFF FFE8 
 419 00a2 6E00 044E 	jgt .L4
 420 00a6 0CAE 3E2F 	cmp.l #1043333119,-24(%fp)
 420      FFFF FFE8 
 421 00ae 6E00 00F6 	jgt .L5
 422 00b2 0CAE 007F 	cmp.l #8388607,-24(%fp)
 422      FFFF FFE8 
 423 00ba 6E00 0092 	jgt .L6
 424 00be 202E 0008 	move.l 8(%fp),%d0
 425 00c2 222E 000C 	move.l 12(%fp),%d1
 426 00c6 2F01      	move.l %d1,-(%sp)
 427 00c8 2F00      	move.l %d0,-(%sp)
 428 00ca F21F 5480 	fmove.d (%sp)+,%fp1
 429 00ce F23C 54A3 	fmul.d #0x4020000000000000,%fp1
 429      4020 0000 
 429      0000 0000 
 430 00da F227 7480 	fmove.d %fp1,-(%sp)
 431 00de 205F      	move.l (%sp)+,%a0
 432 00e0 225F      	move.l (%sp)+,%a1
 433 00e2 2439 0000 	move.l efx8,%d2
 433      0000 
 434 00e8 2639 0000 	move.l efx8+4,%d3
 434      0000 
 435 00ee 202E 0008 	move.l 8(%fp),%d0
 436 00f2 222E 000C 	move.l 12(%fp),%d1
 437 00f6 2F03      	move.l %d3,-(%sp)
 438 00f8 2F02      	move.l %d2,-(%sp)
 439 00fa F21F 5400 	fmove.d (%sp)+,%fp0
 440 00fe 2F01      	move.l %d1,-(%sp)
 441 0100 2F00      	move.l %d0,-(%sp)
 442 0102 F21F 5480 	fmove.d (%sp)+,%fp1
 443 0106 F200 0423 	fmul.x %fp1,%fp0
 444 010a F227 7400 	fmove.d %fp0,-(%sp)
 445 010e 201F      	move.l (%sp)+,%d0
 446 0110 221F      	move.l (%sp)+,%d1
 447 0112 2F09      	move.l %a1,-(%sp)
 448 0114 2F08      	move.l %a0,-(%sp)
 449 0116 F21F 5400 	fmove.d (%sp)+,%fp0
 450 011a 2F01      	move.l %d1,-(%sp)
 451 011c 2F00      	move.l %d0,-(%sp)
 452 011e F21F 5480 	fmove.d (%sp)+,%fp1
 453 0122 F200 0422 	fadd.x %fp1,%fp0
68K GAS   			page 7


 454 0126 F227 7400 	fmove.d %fp0,-(%sp)
 455 012a 201F      	move.l (%sp)+,%d0
 456 012c 221F      	move.l (%sp)+,%d1
 457 012e 2F01      	move.l %d1,-(%sp)
 458 0130 2F00      	move.l %d0,-(%sp)
 459 0132 F21F 5400 	fmove.d (%sp)+,%fp0
 460 0136 F23C 5423 	fmul.d #0x3fc0000000000000,%fp0
 460      3FC0 0000 
 460      0000 0000 
 461 0142 F227 7400 	fmove.d %fp0,-(%sp)
 462 0146 201F      	move.l (%sp)+,%d0
 463 0148 221F      	move.l (%sp)+,%d1
 464 014a 6000 1158 	jra .L3
 465               	.L6:
 466 014e 2079 0000 	move.l efx,%a0
 466      0000 
 467 0154 2279 0000 	move.l efx+4,%a1
 467      0000 
 468 015a 202E 0008 	move.l 8(%fp),%d0
 469 015e 222E 000C 	move.l 12(%fp),%d1
 470 0162 2F09      	move.l %a1,-(%sp)
 471 0164 2F08      	move.l %a0,-(%sp)
 472 0166 F21F 5480 	fmove.d (%sp)+,%fp1
 473 016a 2F01      	move.l %d1,-(%sp)
 474 016c 2F00      	move.l %d0,-(%sp)
 475 016e F21F 5400 	fmove.d (%sp)+,%fp0
 476 0172 F200 00A3 	fmul.x %fp0,%fp1
 477 0176 F227 7480 	fmove.d %fp1,-(%sp)
 478 017a 201F      	move.l (%sp)+,%d0
 479 017c 221F      	move.l (%sp)+,%d1
 480 017e 206E 0008 	move.l 8(%fp),%a0
 481 0182 226E 000C 	move.l 12(%fp),%a1
 482 0186 2F01      	move.l %d1,-(%sp)
 483 0188 2F00      	move.l %d0,-(%sp)
 484 018a F21F 5480 	fmove.d (%sp)+,%fp1
 485 018e 2F09      	move.l %a1,-(%sp)
 486 0190 2F08      	move.l %a0,-(%sp)
 487 0192 F21F 5400 	fmove.d (%sp)+,%fp0
 488 0196 F200 00A2 	fadd.x %fp0,%fp1
 489 019a F227 7480 	fmove.d %fp1,-(%sp)
 490 019e 201F      	move.l (%sp)+,%d0
 491 01a0 221F      	move.l (%sp)+,%d1
 492 01a2 6000 1100 	jra .L3
 493               	.L5:
 494 01a6 206E 0008 	move.l 8(%fp),%a0
 495 01aa 226E 000C 	move.l 12(%fp),%a1
 496 01ae 202E 0008 	move.l 8(%fp),%d0
 497 01b2 222E 000C 	move.l 12(%fp),%d1
 498 01b6 2F09      	move.l %a1,-(%sp)
 499 01b8 2F08      	move.l %a0,-(%sp)
 500 01ba F21F 5480 	fmove.d (%sp)+,%fp1
 501 01be 2F01      	move.l %d1,-(%sp)
 502 01c0 2F00      	move.l %d0,-(%sp)
 503 01c2 F21F 5400 	fmove.d (%sp)+,%fp0
 504 01c6 F200 00A3 	fmul.x %fp0,%fp1
 505 01ca F227 7480 	fmove.d %fp1,-(%sp)
 506 01ce 201F      	move.l (%sp)+,%d0
68K GAS   			page 8


 507 01d0 221F      	move.l (%sp)+,%d1
 508 01d2 2D40 FFB4 	move.l %d0,-76(%fp)
 509 01d6 2D41 FFB8 	move.l %d1,-72(%fp)
 510 01da 206E FFB4 	move.l -76(%fp),%a0
 511 01de 226E FFB8 	move.l -72(%fp),%a1
 512 01e2 2039 0000 	move.l pp4,%d0
 512      0000 
 513 01e8 2239 0000 	move.l pp4+4,%d1
 513      0000 
 514 01ee 2F09      	move.l %a1,-(%sp)
 515 01f0 2F08      	move.l %a0,-(%sp)
 516 01f2 F21F 5480 	fmove.d (%sp)+,%fp1
 517 01f6 2F01      	move.l %d1,-(%sp)
 518 01f8 2F00      	move.l %d0,-(%sp)
 519 01fa F21F 5400 	fmove.d (%sp)+,%fp0
 520 01fe F200 00A3 	fmul.x %fp0,%fp1
 521 0202 F227 7480 	fmove.d %fp1,-(%sp)
 522 0206 201F      	move.l (%sp)+,%d0
 523 0208 221F      	move.l (%sp)+,%d1
 524 020a 2079 0000 	move.l pp3,%a0
 524      0000 
 525 0210 2279 0000 	move.l pp3+4,%a1
 525      0000 
 526 0216 2F01      	move.l %d1,-(%sp)
 527 0218 2F00      	move.l %d0,-(%sp)
 528 021a F21F 5480 	fmove.d (%sp)+,%fp1
 529 021e 2F09      	move.l %a1,-(%sp)
 530 0220 2F08      	move.l %a0,-(%sp)
 531 0222 F21F 5400 	fmove.d (%sp)+,%fp0
 532 0226 F200 00A2 	fadd.x %fp0,%fp1
 533 022a F227 7480 	fmove.d %fp1,-(%sp)
 534 022e 201F      	move.l (%sp)+,%d0
 535 0230 221F      	move.l (%sp)+,%d1
 536 0232 206E FFB4 	move.l -76(%fp),%a0
 537 0236 226E FFB8 	move.l -72(%fp),%a1
 538 023a 2F01      	move.l %d1,-(%sp)
 539 023c 2F00      	move.l %d0,-(%sp)
 540 023e F21F 5480 	fmove.d (%sp)+,%fp1
 541 0242 2F09      	move.l %a1,-(%sp)
 542 0244 2F08      	move.l %a0,-(%sp)
 543 0246 F21F 5400 	fmove.d (%sp)+,%fp0
 544 024a F200 00A3 	fmul.x %fp0,%fp1
 545 024e F227 7480 	fmove.d %fp1,-(%sp)
 546 0252 201F      	move.l (%sp)+,%d0
 547 0254 221F      	move.l (%sp)+,%d1
 548 0256 2079 0000 	move.l pp2,%a0
 548      0000 
 549 025c 2279 0000 	move.l pp2+4,%a1
 549      0000 
 550 0262 2F01      	move.l %d1,-(%sp)
 551 0264 2F00      	move.l %d0,-(%sp)
 552 0266 F21F 5480 	fmove.d (%sp)+,%fp1
 553 026a 2F09      	move.l %a1,-(%sp)
 554 026c 2F08      	move.l %a0,-(%sp)
 555 026e F21F 5400 	fmove.d (%sp)+,%fp0
 556 0272 F200 00A2 	fadd.x %fp0,%fp1
 557 0276 F227 7480 	fmove.d %fp1,-(%sp)
68K GAS   			page 9


 558 027a 201F      	move.l (%sp)+,%d0
 559 027c 221F      	move.l (%sp)+,%d1
 560 027e 206E FFB4 	move.l -76(%fp),%a0
 561 0282 226E FFB8 	move.l -72(%fp),%a1
 562 0286 2F01      	move.l %d1,-(%sp)
 563 0288 2F00      	move.l %d0,-(%sp)
 564 028a F21F 5480 	fmove.d (%sp)+,%fp1
 565 028e 2F09      	move.l %a1,-(%sp)
 566 0290 2F08      	move.l %a0,-(%sp)
 567 0292 F21F 5400 	fmove.d (%sp)+,%fp0
 568 0296 F200 00A3 	fmul.x %fp0,%fp1
 569 029a F227 7480 	fmove.d %fp1,-(%sp)
 570 029e 201F      	move.l (%sp)+,%d0
 571 02a0 221F      	move.l (%sp)+,%d1
 572 02a2 2079 0000 	move.l pp1,%a0
 572      0000 
 573 02a8 2279 0000 	move.l pp1+4,%a1
 573      0000 
 574 02ae 2F01      	move.l %d1,-(%sp)
 575 02b0 2F00      	move.l %d0,-(%sp)
 576 02b2 F21F 5480 	fmove.d (%sp)+,%fp1
 577 02b6 2F09      	move.l %a1,-(%sp)
 578 02b8 2F08      	move.l %a0,-(%sp)
 579 02ba F21F 5400 	fmove.d (%sp)+,%fp0
 580 02be F200 00A2 	fadd.x %fp0,%fp1
 581 02c2 F227 7480 	fmove.d %fp1,-(%sp)
 582 02c6 201F      	move.l (%sp)+,%d0
 583 02c8 221F      	move.l (%sp)+,%d1
 584 02ca 206E FFB4 	move.l -76(%fp),%a0
 585 02ce 226E FFB8 	move.l -72(%fp),%a1
 586 02d2 2F01      	move.l %d1,-(%sp)
 587 02d4 2F00      	move.l %d0,-(%sp)
 588 02d6 F21F 5480 	fmove.d (%sp)+,%fp1
 589 02da 2F09      	move.l %a1,-(%sp)
 590 02dc 2F08      	move.l %a0,-(%sp)
 591 02de F21F 5400 	fmove.d (%sp)+,%fp0
 592 02e2 F200 00A3 	fmul.x %fp0,%fp1
 593 02e6 F227 7480 	fmove.d %fp1,-(%sp)
 594 02ea 201F      	move.l (%sp)+,%d0
 595 02ec 221F      	move.l (%sp)+,%d1
 596 02ee 2079 0000 	move.l pp0,%a0
 596      0000 
 597 02f4 2279 0000 	move.l pp0+4,%a1
 597      0000 
 598 02fa 2F01      	move.l %d1,-(%sp)
 599 02fc 2F00      	move.l %d0,-(%sp)
 600 02fe F21F 5480 	fmove.d (%sp)+,%fp1
 601 0302 2F09      	move.l %a1,-(%sp)
 602 0304 2F08      	move.l %a0,-(%sp)
 603 0306 F21F 5400 	fmove.d (%sp)+,%fp0
 604 030a F200 00A2 	fadd.x %fp0,%fp1
 605 030e F22E 7480 	fmove.d %fp1,-36(%fp)
 605      FFDC 
 606 0314 206E FFB4 	move.l -76(%fp),%a0
 607 0318 226E FFB8 	move.l -72(%fp),%a1
 608 031c 2039 0000 	move.l qq5,%d0
 608      0000 
68K GAS   			page 10


 609 0322 2239 0000 	move.l qq5+4,%d1
 609      0000 
 610 0328 2F09      	move.l %a1,-(%sp)
 611 032a 2F08      	move.l %a0,-(%sp)
 612 032c F21F 5480 	fmove.d (%sp)+,%fp1
 613 0330 2F01      	move.l %d1,-(%sp)
 614 0332 2F00      	move.l %d0,-(%sp)
 615 0334 F21F 5400 	fmove.d (%sp)+,%fp0
 616 0338 F200 00A3 	fmul.x %fp0,%fp1
 617 033c F227 7480 	fmove.d %fp1,-(%sp)
 618 0340 201F      	move.l (%sp)+,%d0
 619 0342 221F      	move.l (%sp)+,%d1
 620 0344 2079 0000 	move.l qq4,%a0
 620      0000 
 621 034a 2279 0000 	move.l qq4+4,%a1
 621      0000 
 622 0350 2F01      	move.l %d1,-(%sp)
 623 0352 2F00      	move.l %d0,-(%sp)
 624 0354 F21F 5480 	fmove.d (%sp)+,%fp1
 625 0358 2F09      	move.l %a1,-(%sp)
 626 035a 2F08      	move.l %a0,-(%sp)
 627 035c F21F 5400 	fmove.d (%sp)+,%fp0
 628 0360 F200 00A2 	fadd.x %fp0,%fp1
 629 0364 F227 7480 	fmove.d %fp1,-(%sp)
 630 0368 201F      	move.l (%sp)+,%d0
 631 036a 221F      	move.l (%sp)+,%d1
 632 036c 206E FFB4 	move.l -76(%fp),%a0
 633 0370 226E FFB8 	move.l -72(%fp),%a1
 634 0374 2F01      	move.l %d1,-(%sp)
 635 0376 2F00      	move.l %d0,-(%sp)
 636 0378 F21F 5480 	fmove.d (%sp)+,%fp1
 637 037c 2F09      	move.l %a1,-(%sp)
 638 037e 2F08      	move.l %a0,-(%sp)
 639 0380 F21F 5400 	fmove.d (%sp)+,%fp0
 640 0384 F200 00A3 	fmul.x %fp0,%fp1
 641 0388 F227 7480 	fmove.d %fp1,-(%sp)
 642 038c 201F      	move.l (%sp)+,%d0
 643 038e 221F      	move.l (%sp)+,%d1
 644 0390 2079 0000 	move.l qq3,%a0
 644      0000 
 645 0396 2279 0000 	move.l qq3+4,%a1
 645      0000 
 646 039c 2F01      	move.l %d1,-(%sp)
 647 039e 2F00      	move.l %d0,-(%sp)
 648 03a0 F21F 5480 	fmove.d (%sp)+,%fp1
 649 03a4 2F09      	move.l %a1,-(%sp)
 650 03a6 2F08      	move.l %a0,-(%sp)
 651 03a8 F21F 5400 	fmove.d (%sp)+,%fp0
 652 03ac F200 00A2 	fadd.x %fp0,%fp1
 653 03b0 F227 7480 	fmove.d %fp1,-(%sp)
 654 03b4 201F      	move.l (%sp)+,%d0
 655 03b6 221F      	move.l (%sp)+,%d1
 656 03b8 206E FFB4 	move.l -76(%fp),%a0
 657 03bc 226E FFB8 	move.l -72(%fp),%a1
 658 03c0 2F01      	move.l %d1,-(%sp)
 659 03c2 2F00      	move.l %d0,-(%sp)
 660 03c4 F21F 5480 	fmove.d (%sp)+,%fp1
68K GAS   			page 11


 661 03c8 2F09      	move.l %a1,-(%sp)
 662 03ca 2F08      	move.l %a0,-(%sp)
 663 03cc F21F 5400 	fmove.d (%sp)+,%fp0
 664 03d0 F200 00A3 	fmul.x %fp0,%fp1
 665 03d4 F227 7480 	fmove.d %fp1,-(%sp)
 666 03d8 201F      	move.l (%sp)+,%d0
 667 03da 221F      	move.l (%sp)+,%d1
 668 03dc 2079 0000 	move.l qq2,%a0
 668      0000 
 669 03e2 2279 0000 	move.l qq2+4,%a1
 669      0000 
 670 03e8 2F01      	move.l %d1,-(%sp)
 671 03ea 2F00      	move.l %d0,-(%sp)
 672 03ec F21F 5480 	fmove.d (%sp)+,%fp1
 673 03f0 2F09      	move.l %a1,-(%sp)
 674 03f2 2F08      	move.l %a0,-(%sp)
 675 03f4 F21F 5400 	fmove.d (%sp)+,%fp0
 676 03f8 F200 00A2 	fadd.x %fp0,%fp1
 677 03fc F227 7480 	fmove.d %fp1,-(%sp)
 678 0400 201F      	move.l (%sp)+,%d0
 679 0402 221F      	move.l (%sp)+,%d1
 680 0404 206E FFB4 	move.l -76(%fp),%a0
 681 0408 226E FFB8 	move.l -72(%fp),%a1
 682 040c 2F01      	move.l %d1,-(%sp)
 683 040e 2F00      	move.l %d0,-(%sp)
 684 0410 F21F 5480 	fmove.d (%sp)+,%fp1
 685 0414 2F09      	move.l %a1,-(%sp)
 686 0416 2F08      	move.l %a0,-(%sp)
 687 0418 F21F 5400 	fmove.d (%sp)+,%fp0
 688 041c F200 00A3 	fmul.x %fp0,%fp1
 689 0420 F227 7480 	fmove.d %fp1,-(%sp)
 690 0424 201F      	move.l (%sp)+,%d0
 691 0426 221F      	move.l (%sp)+,%d1
 692 0428 2079 0000 	move.l qq1,%a0
 692      0000 
 693 042e 2279 0000 	move.l qq1+4,%a1
 693      0000 
 694 0434 2F01      	move.l %d1,-(%sp)
 695 0436 2F00      	move.l %d0,-(%sp)
 696 0438 F21F 5480 	fmove.d (%sp)+,%fp1
 697 043c 2F09      	move.l %a1,-(%sp)
 698 043e 2F08      	move.l %a0,-(%sp)
 699 0440 F21F 5400 	fmove.d (%sp)+,%fp0
 700 0444 F200 00A2 	fadd.x %fp0,%fp1
 701 0448 F227 7480 	fmove.d %fp1,-(%sp)
 702 044c 201F      	move.l (%sp)+,%d0
 703 044e 221F      	move.l (%sp)+,%d1
 704 0450 206E FFB4 	move.l -76(%fp),%a0
 705 0454 226E FFB8 	move.l -72(%fp),%a1
 706 0458 2F01      	move.l %d1,-(%sp)
 707 045a 2F00      	move.l %d0,-(%sp)
 708 045c F21F 5480 	fmove.d (%sp)+,%fp1
 709 0460 2F09      	move.l %a1,-(%sp)
 710 0462 2F08      	move.l %a0,-(%sp)
 711 0464 F21F 5400 	fmove.d (%sp)+,%fp0
 712 0468 F200 00A3 	fmul.x %fp0,%fp1
 713 046c F227 7480 	fmove.d %fp1,-(%sp)
68K GAS   			page 12


 714 0470 201F      	move.l (%sp)+,%d0
 715 0472 221F      	move.l (%sp)+,%d1
 716 0474 2079 0000 	move.l one,%a0
 716      0000 
 717 047a 2279 0000 	move.l one+4,%a1
 717      0000 
 718 0480 2F01      	move.l %d1,-(%sp)
 719 0482 2F00      	move.l %d0,-(%sp)
 720 0484 F21F 5480 	fmove.d (%sp)+,%fp1
 721 0488 2F09      	move.l %a1,-(%sp)
 722 048a 2F08      	move.l %a0,-(%sp)
 723 048c F21F 5400 	fmove.d (%sp)+,%fp0
 724 0490 F200 00A2 	fadd.x %fp0,%fp1
 725 0494 F22E 7480 	fmove.d %fp1,-44(%fp)
 725      FFD4 
 726 049a F22E 5480 	fmove.d -36(%fp),%fp1
 726      FFDC 
 727 04a0 F22E 54A0 	fdiv.d -44(%fp),%fp1
 727      FFD4 
 728 04a6 F22E 7480 	fmove.d %fp1,-52(%fp)
 728      FFCC 
 729 04ac 202E 0008 	move.l 8(%fp),%d0
 730 04b0 222E 000C 	move.l 12(%fp),%d1
 731 04b4 2F01      	move.l %d1,-(%sp)
 732 04b6 2F00      	move.l %d0,-(%sp)
 733 04b8 F21F 5400 	fmove.d (%sp)+,%fp0
 734 04bc F22E 5423 	fmul.d -52(%fp),%fp0
 734      FFCC 
 735 04c2 F227 7400 	fmove.d %fp0,-(%sp)
 736 04c6 201F      	move.l (%sp)+,%d0
 737 04c8 221F      	move.l (%sp)+,%d1
 738 04ca 206E 0008 	move.l 8(%fp),%a0
 739 04ce 226E 000C 	move.l 12(%fp),%a1
 740 04d2 2F01      	move.l %d1,-(%sp)
 741 04d4 2F00      	move.l %d0,-(%sp)
 742 04d6 F21F 5480 	fmove.d (%sp)+,%fp1
 743 04da 2F09      	move.l %a1,-(%sp)
 744 04dc 2F08      	move.l %a0,-(%sp)
 745 04de F21F 5400 	fmove.d (%sp)+,%fp0
 746 04e2 F200 00A2 	fadd.x %fp0,%fp1
 747 04e6 F227 7480 	fmove.d %fp1,-(%sp)
 748 04ea 201F      	move.l (%sp)+,%d0
 749 04ec 221F      	move.l (%sp)+,%d1
 750 04ee 6000 0DB4 	jra .L3
 751               	.L4:
 752 04f2 0CAE 3FF3 	cmp.l #1072955391,-24(%fp)
 752      FFFF FFE8 
 753 04fa 6E00 03CA 	jgt .L7
 754 04fe 202E 0008 	move.l 8(%fp),%d0
 755 0502 222E 000C 	move.l 12(%fp),%d1
 756 0506 2F01      	move.l %d1,-(%sp)
 757 0508 2F00      	move.l %d0,-(%sp)
 758 050a 4EB9 0000 	jsr fabs
 758      0000 
 759 0510 508F      	addq.l #8,%sp
 760 0512 F227 7400 	fmove.d %fp0,-(%sp)
 761 0516 201F      	move.l (%sp)+,%d0
68K GAS   			page 13


 762 0518 221F      	move.l (%sp)+,%d1
 763 051a 2079 0000 	move.l one,%a0
 763      0000 
 764 0520 2279 0000 	move.l one+4,%a1
 764      0000 
 765 0526 2F01      	move.l %d1,-(%sp)
 766 0528 2F00      	move.l %d0,-(%sp)
 767 052a F21F 5480 	fmove.d (%sp)+,%fp1
 768 052e 2F09      	move.l %a1,-(%sp)
 769 0530 2F08      	move.l %a0,-(%sp)
 770 0532 F21F 5400 	fmove.d (%sp)+,%fp0
 771 0536 F200 00A8 	fsub.x %fp0,%fp1
 772 053a F22E 7480 	fmove.d %fp1,-44(%fp)
 772      FFD4 
 773 0540 2039 0000 	move.l pa6,%d0
 773      0000 
 774 0546 2239 0000 	move.l pa6+4,%d1
 774      0000 
 775 054c 2F01      	move.l %d1,-(%sp)
 776 054e 2F00      	move.l %d0,-(%sp)
 777 0550 F21F 5480 	fmove.d (%sp)+,%fp1
 778 0554 F22E 54A3 	fmul.d -44(%fp),%fp1
 778      FFD4 
 779 055a F227 7480 	fmove.d %fp1,-(%sp)
 780 055e 201F      	move.l (%sp)+,%d0
 781 0560 221F      	move.l (%sp)+,%d1
 782 0562 2079 0000 	move.l pa5,%a0
 782      0000 
 783 0568 2279 0000 	move.l pa5+4,%a1
 783      0000 
 784 056e 2F01      	move.l %d1,-(%sp)
 785 0570 2F00      	move.l %d0,-(%sp)
 786 0572 F21F 5400 	fmove.d (%sp)+,%fp0
 787 0576 2F09      	move.l %a1,-(%sp)
 788 0578 2F08      	move.l %a0,-(%sp)
 789 057a F21F 5480 	fmove.d (%sp)+,%fp1
 790 057e F200 0422 	fadd.x %fp1,%fp0
 791 0582 F227 7400 	fmove.d %fp0,-(%sp)
 792 0586 201F      	move.l (%sp)+,%d0
 793 0588 221F      	move.l (%sp)+,%d1
 794 058a 2F01      	move.l %d1,-(%sp)
 795 058c 2F00      	move.l %d0,-(%sp)
 796 058e F21F 5400 	fmove.d (%sp)+,%fp0
 797 0592 F22E 5423 	fmul.d -44(%fp),%fp0
 797      FFD4 
 798 0598 F227 7400 	fmove.d %fp0,-(%sp)
 799 059c 201F      	move.l (%sp)+,%d0
 800 059e 221F      	move.l (%sp)+,%d1
 801 05a0 2079 0000 	move.l pa4,%a0
 801      0000 
 802 05a6 2279 0000 	move.l pa4+4,%a1
 802      0000 
 803 05ac 2F01      	move.l %d1,-(%sp)
 804 05ae 2F00      	move.l %d0,-(%sp)
 805 05b0 F21F 5480 	fmove.d (%sp)+,%fp1
 806 05b4 2F09      	move.l %a1,-(%sp)
 807 05b6 2F08      	move.l %a0,-(%sp)
68K GAS   			page 14


 808 05b8 F21F 5400 	fmove.d (%sp)+,%fp0
 809 05bc F200 00A2 	fadd.x %fp0,%fp1
 810 05c0 F227 7480 	fmove.d %fp1,-(%sp)
 811 05c4 201F      	move.l (%sp)+,%d0
 812 05c6 221F      	move.l (%sp)+,%d1
 813 05c8 2F01      	move.l %d1,-(%sp)
 814 05ca 2F00      	move.l %d0,-(%sp)
 815 05cc F21F 5480 	fmove.d (%sp)+,%fp1
 816 05d0 F22E 54A3 	fmul.d -44(%fp),%fp1
 816      FFD4 
 817 05d6 F227 7480 	fmove.d %fp1,-(%sp)
 818 05da 201F      	move.l (%sp)+,%d0
 819 05dc 221F      	move.l (%sp)+,%d1
 820 05de 2079 0000 	move.l pa3,%a0
 820      0000 
 821 05e4 2279 0000 	move.l pa3+4,%a1
 821      0000 
 822 05ea 2F01      	move.l %d1,-(%sp)
 823 05ec 2F00      	move.l %d0,-(%sp)
 824 05ee F21F 5400 	fmove.d (%sp)+,%fp0
 825 05f2 2F09      	move.l %a1,-(%sp)
 826 05f4 2F08      	move.l %a0,-(%sp)
 827 05f6 F21F 5480 	fmove.d (%sp)+,%fp1
 828 05fa F200 0422 	fadd.x %fp1,%fp0
 829 05fe F227 7400 	fmove.d %fp0,-(%sp)
 830 0602 201F      	move.l (%sp)+,%d0
 831 0604 221F      	move.l (%sp)+,%d1
 832 0606 2F01      	move.l %d1,-(%sp)
 833 0608 2F00      	move.l %d0,-(%sp)
 834 060a F21F 5400 	fmove.d (%sp)+,%fp0
 835 060e F22E 5423 	fmul.d -44(%fp),%fp0
 835      FFD4 
 836 0614 F227 7400 	fmove.d %fp0,-(%sp)
 837 0618 201F      	move.l (%sp)+,%d0
 838 061a 221F      	move.l (%sp)+,%d1
 839 061c 2079 0000 	move.l pa2,%a0
 839      0000 
 840 0622 2279 0000 	move.l pa2+4,%a1
 840      0000 
 841 0628 2F01      	move.l %d1,-(%sp)
 842 062a 2F00      	move.l %d0,-(%sp)
 843 062c F21F 5480 	fmove.d (%sp)+,%fp1
 844 0630 2F09      	move.l %a1,-(%sp)
 845 0632 2F08      	move.l %a0,-(%sp)
 846 0634 F21F 5400 	fmove.d (%sp)+,%fp0
 847 0638 F200 00A2 	fadd.x %fp0,%fp1
 848 063c F227 7480 	fmove.d %fp1,-(%sp)
 849 0640 201F      	move.l (%sp)+,%d0
 850 0642 221F      	move.l (%sp)+,%d1
 851 0644 2F01      	move.l %d1,-(%sp)
 852 0646 2F00      	move.l %d0,-(%sp)
 853 0648 F21F 5480 	fmove.d (%sp)+,%fp1
 854 064c F22E 54A3 	fmul.d -44(%fp),%fp1
 854      FFD4 
 855 0652 F227 7480 	fmove.d %fp1,-(%sp)
 856 0656 201F      	move.l (%sp)+,%d0
 857 0658 221F      	move.l (%sp)+,%d1
68K GAS   			page 15


 858 065a 2079 0000 	move.l pa1,%a0
 858      0000 
 859 0660 2279 0000 	move.l pa1+4,%a1
 859      0000 
 860 0666 2F01      	move.l %d1,-(%sp)
 861 0668 2F00      	move.l %d0,-(%sp)
 862 066a F21F 5400 	fmove.d (%sp)+,%fp0
 863 066e 2F09      	move.l %a1,-(%sp)
 864 0670 2F08      	move.l %a0,-(%sp)
 865 0672 F21F 5480 	fmove.d (%sp)+,%fp1
 866 0676 F200 0422 	fadd.x %fp1,%fp0
 867 067a F227 7400 	fmove.d %fp0,-(%sp)
 868 067e 201F      	move.l (%sp)+,%d0
 869 0680 221F      	move.l (%sp)+,%d1
 870 0682 2F01      	move.l %d1,-(%sp)
 871 0684 2F00      	move.l %d0,-(%sp)
 872 0686 F21F 5400 	fmove.d (%sp)+,%fp0
 873 068a F22E 5423 	fmul.d -44(%fp),%fp0
 873      FFD4 
 874 0690 F227 7400 	fmove.d %fp0,-(%sp)
 875 0694 201F      	move.l (%sp)+,%d0
 876 0696 221F      	move.l (%sp)+,%d1
 877 0698 2079 0000 	move.l pa0,%a0
 877      0000 
 878 069e 2279 0000 	move.l pa0+4,%a1
 878      0000 
 879 06a4 2F01      	move.l %d1,-(%sp)
 880 06a6 2F00      	move.l %d0,-(%sp)
 881 06a8 F21F 5480 	fmove.d (%sp)+,%fp1
 882 06ac 2F09      	move.l %a1,-(%sp)
 883 06ae 2F08      	move.l %a0,-(%sp)
 884 06b0 F21F 5400 	fmove.d (%sp)+,%fp0
 885 06b4 F200 00A2 	fadd.x %fp0,%fp1
 886 06b8 F22E 7480 	fmove.d %fp1,-60(%fp)
 886      FFC4 
 887 06be 2039 0000 	move.l qa6,%d0
 887      0000 
 888 06c4 2239 0000 	move.l qa6+4,%d1
 888      0000 
 889 06ca 2F01      	move.l %d1,-(%sp)
 890 06cc 2F00      	move.l %d0,-(%sp)
 891 06ce F21F 5480 	fmove.d (%sp)+,%fp1
 892 06d2 F22E 54A3 	fmul.d -44(%fp),%fp1
 892      FFD4 
 893 06d8 F227 7480 	fmove.d %fp1,-(%sp)
 894 06dc 201F      	move.l (%sp)+,%d0
 895 06de 221F      	move.l (%sp)+,%d1
 896 06e0 2079 0000 	move.l qa5,%a0
 896      0000 
 897 06e6 2279 0000 	move.l qa5+4,%a1
 897      0000 
 898 06ec 2F01      	move.l %d1,-(%sp)
 899 06ee 2F00      	move.l %d0,-(%sp)
 900 06f0 F21F 5400 	fmove.d (%sp)+,%fp0
 901 06f4 2F09      	move.l %a1,-(%sp)
 902 06f6 2F08      	move.l %a0,-(%sp)
 903 06f8 F21F 5480 	fmove.d (%sp)+,%fp1
68K GAS   			page 16


 904 06fc F200 0422 	fadd.x %fp1,%fp0
 905 0700 F227 7400 	fmove.d %fp0,-(%sp)
 906 0704 201F      	move.l (%sp)+,%d0
 907 0706 221F      	move.l (%sp)+,%d1
 908 0708 2F01      	move.l %d1,-(%sp)
 909 070a 2F00      	move.l %d0,-(%sp)
 910 070c F21F 5400 	fmove.d (%sp)+,%fp0
 911 0710 F22E 5423 	fmul.d -44(%fp),%fp0
 911      FFD4 
 912 0716 F227 7400 	fmove.d %fp0,-(%sp)
 913 071a 201F      	move.l (%sp)+,%d0
 914 071c 221F      	move.l (%sp)+,%d1
 915 071e 2079 0000 	move.l qa4,%a0
 915      0000 
 916 0724 2279 0000 	move.l qa4+4,%a1
 916      0000 
 917 072a 2F01      	move.l %d1,-(%sp)
 918 072c 2F00      	move.l %d0,-(%sp)
 919 072e F21F 5480 	fmove.d (%sp)+,%fp1
 920 0732 2F09      	move.l %a1,-(%sp)
 921 0734 2F08      	move.l %a0,-(%sp)
 922 0736 F21F 5400 	fmove.d (%sp)+,%fp0
 923 073a F200 00A2 	fadd.x %fp0,%fp1
 924 073e F227 7480 	fmove.d %fp1,-(%sp)
 925 0742 201F      	move.l (%sp)+,%d0
 926 0744 221F      	move.l (%sp)+,%d1
 927 0746 2F01      	move.l %d1,-(%sp)
 928 0748 2F00      	move.l %d0,-(%sp)
 929 074a F21F 5480 	fmove.d (%sp)+,%fp1
 930 074e F22E 54A3 	fmul.d -44(%fp),%fp1
 930      FFD4 
 931 0754 F227 7480 	fmove.d %fp1,-(%sp)
 932 0758 201F      	move.l (%sp)+,%d0
 933 075a 221F      	move.l (%sp)+,%d1
 934 075c 2079 0000 	move.l qa3,%a0
 934      0000 
 935 0762 2279 0000 	move.l qa3+4,%a1
 935      0000 
 936 0768 2F01      	move.l %d1,-(%sp)
 937 076a 2F00      	move.l %d0,-(%sp)
 938 076c F21F 5400 	fmove.d (%sp)+,%fp0
 939 0770 2F09      	move.l %a1,-(%sp)
 940 0772 2F08      	move.l %a0,-(%sp)
 941 0774 F21F 5480 	fmove.d (%sp)+,%fp1
 942 0778 F200 0422 	fadd.x %fp1,%fp0
 943 077c F227 7400 	fmove.d %fp0,-(%sp)
 944 0780 201F      	move.l (%sp)+,%d0
 945 0782 221F      	move.l (%sp)+,%d1
 946 0784 2F01      	move.l %d1,-(%sp)
 947 0786 2F00      	move.l %d0,-(%sp)
 948 0788 F21F 5400 	fmove.d (%sp)+,%fp0
 949 078c F22E 5423 	fmul.d -44(%fp),%fp0
 949      FFD4 
 950 0792 F227 7400 	fmove.d %fp0,-(%sp)
 951 0796 201F      	move.l (%sp)+,%d0
 952 0798 221F      	move.l (%sp)+,%d1
 953 079a 2079 0000 	move.l qa2,%a0
68K GAS   			page 17


 953      0000 
 954 07a0 2279 0000 	move.l qa2+4,%a1
 954      0000 
 955 07a6 2F01      	move.l %d1,-(%sp)
 956 07a8 2F00      	move.l %d0,-(%sp)
 957 07aa F21F 5480 	fmove.d (%sp)+,%fp1
 958 07ae 2F09      	move.l %a1,-(%sp)
 959 07b0 2F08      	move.l %a0,-(%sp)
 960 07b2 F21F 5400 	fmove.d (%sp)+,%fp0
 961 07b6 F200 00A2 	fadd.x %fp0,%fp1
 962 07ba F227 7480 	fmove.d %fp1,-(%sp)
 963 07be 201F      	move.l (%sp)+,%d0
 964 07c0 221F      	move.l (%sp)+,%d1
 965 07c2 2F01      	move.l %d1,-(%sp)
 966 07c4 2F00      	move.l %d0,-(%sp)
 967 07c6 F21F 5480 	fmove.d (%sp)+,%fp1
 968 07ca F22E 54A3 	fmul.d -44(%fp),%fp1
 968      FFD4 
 969 07d0 F227 7480 	fmove.d %fp1,-(%sp)
 970 07d4 201F      	move.l (%sp)+,%d0
 971 07d6 221F      	move.l (%sp)+,%d1
 972 07d8 2079 0000 	move.l qa1,%a0
 972      0000 
 973 07de 2279 0000 	move.l qa1+4,%a1
 973      0000 
 974 07e4 2F01      	move.l %d1,-(%sp)
 975 07e6 2F00      	move.l %d0,-(%sp)
 976 07e8 F21F 5400 	fmove.d (%sp)+,%fp0
 977 07ec 2F09      	move.l %a1,-(%sp)
 978 07ee 2F08      	move.l %a0,-(%sp)
 979 07f0 F21F 5480 	fmove.d (%sp)+,%fp1
 980 07f4 F200 0422 	fadd.x %fp1,%fp0
 981 07f8 F227 7400 	fmove.d %fp0,-(%sp)
 982 07fc 201F      	move.l (%sp)+,%d0
 983 07fe 221F      	move.l (%sp)+,%d1
 984 0800 2F01      	move.l %d1,-(%sp)
 985 0802 2F00      	move.l %d0,-(%sp)
 986 0804 F21F 5400 	fmove.d (%sp)+,%fp0
 987 0808 F22E 5423 	fmul.d -44(%fp),%fp0
 987      FFD4 
 988 080e F227 7400 	fmove.d %fp0,-(%sp)
 989 0812 201F      	move.l (%sp)+,%d0
 990 0814 221F      	move.l (%sp)+,%d1
 991 0816 2079 0000 	move.l one,%a0
 991      0000 
 992 081c 2279 0000 	move.l one+4,%a1
 992      0000 
 993 0822 2F01      	move.l %d1,-(%sp)
 994 0824 2F00      	move.l %d0,-(%sp)
 995 0826 F21F 5480 	fmove.d (%sp)+,%fp1
 996 082a 2F09      	move.l %a1,-(%sp)
 997 082c 2F08      	move.l %a0,-(%sp)
 998 082e F21F 5400 	fmove.d (%sp)+,%fp0
 999 0832 F200 00A2 	fadd.x %fp0,%fp1
 1000 0836 F22E 7480 	fmove.d %fp1,-68(%fp)
 1000      FFBC 
 1001 083c 4AAE FFEC 	tst.l -20(%fp)
68K GAS   			page 18


 1002 0840 6D40      	jlt .L8
 1003 0842 F22E 5480 	fmove.d -60(%fp),%fp1
 1003      FFC4 
 1004 0848 F22E 54A0 	fdiv.d -68(%fp),%fp1
 1004      FFBC 
 1005 084e F227 7480 	fmove.d %fp1,-(%sp)
 1006 0852 201F      	move.l (%sp)+,%d0
 1007 0854 221F      	move.l (%sp)+,%d1
 1008 0856 2079 0000 	move.l erx,%a0
 1008      0000 
 1009 085c 2279 0000 	move.l erx+4,%a1
 1009      0000 
 1010 0862 2F01      	move.l %d1,-(%sp)
 1011 0864 2F00      	move.l %d0,-(%sp)
 1012 0866 F21F 5400 	fmove.d (%sp)+,%fp0
 1013 086a 2F09      	move.l %a1,-(%sp)
 1014 086c 2F08      	move.l %a0,-(%sp)
 1015 086e F21F 5480 	fmove.d (%sp)+,%fp1
 1016 0872 F200 0422 	fadd.x %fp1,%fp0
 1017 0876 F227 7400 	fmove.d %fp0,-(%sp)
 1018 087a 201F      	move.l (%sp)+,%d0
 1019 087c 221F      	move.l (%sp)+,%d1
 1020 087e 6000 0A24 	jra .L3
 1021               	.L8:
 1022 0882 2039 0000 	move.l erx,%d0
 1022      0000 
 1023 0888 2239 0000 	move.l erx+4,%d1
 1023      0000 
 1024 088e 0840 001F 	bchg #31,%d0
 1025 0892 F22E 5400 	fmove.d -60(%fp),%fp0
 1025      FFC4 
 1026 0898 F22E 5420 	fdiv.d -68(%fp),%fp0
 1026      FFBC 
 1027 089e F227 7400 	fmove.d %fp0,-(%sp)
 1028 08a2 205F      	move.l (%sp)+,%a0
 1029 08a4 225F      	move.l (%sp)+,%a1
 1030 08a6 2F01      	move.l %d1,-(%sp)
 1031 08a8 2F00      	move.l %d0,-(%sp)
 1032 08aa F21F 5480 	fmove.d (%sp)+,%fp1
 1033 08ae 2F09      	move.l %a1,-(%sp)
 1034 08b0 2F08      	move.l %a0,-(%sp)
 1035 08b2 F21F 5400 	fmove.d (%sp)+,%fp0
 1036 08b6 F200 00A8 	fsub.x %fp0,%fp1
 1037 08ba F227 7480 	fmove.d %fp1,-(%sp)
 1038 08be 201F      	move.l (%sp)+,%d0
 1039 08c0 221F      	move.l (%sp)+,%d1
 1040 08c2 6000 09E0 	jra .L3
 1041               	.L7:
 1042 08c6 0CAE 4017 	cmp.l #1075314687,-24(%fp)
 1042      FFFF FFE8 
 1043 08ce 6F76      	jle .L9
 1044 08d0 4AAE FFEC 	tst.l -20(%fp)
 1045 08d4 6D38      	jlt .L10
 1046 08d6 2039 0000 	move.l one,%d0
 1046      0000 
 1047 08dc 2239 0000 	move.l one+4,%d1
 1047      0000 
68K GAS   			page 19


 1048 08e2 2079 0000 	move.l tiny,%a0
 1048      0000 
 1049 08e8 2279 0000 	move.l tiny+4,%a1
 1049      0000 
 1050 08ee 2F01      	move.l %d1,-(%sp)
 1051 08f0 2F00      	move.l %d0,-(%sp)
 1052 08f2 F21F 5480 	fmove.d (%sp)+,%fp1
 1053 08f6 2F09      	move.l %a1,-(%sp)
 1054 08f8 2F08      	move.l %a0,-(%sp)
 1055 08fa F21F 5400 	fmove.d (%sp)+,%fp0
 1056 08fe F200 00A8 	fsub.x %fp0,%fp1
 1057 0902 F227 7480 	fmove.d %fp1,-(%sp)
 1058 0906 201F      	move.l (%sp)+,%d0
 1059 0908 221F      	move.l (%sp)+,%d1
 1060 090a 6000 0998 	jra .L3
 1061               	.L10:
 1062 090e 2039 0000 	move.l tiny,%d0
 1062      0000 
 1063 0914 2239 0000 	move.l tiny+4,%d1
 1063      0000 
 1064 091a 2079 0000 	move.l one,%a0
 1064      0000 
 1065 0920 2279 0000 	move.l one+4,%a1
 1065      0000 
 1066 0926 2F01      	move.l %d1,-(%sp)
 1067 0928 2F00      	move.l %d0,-(%sp)
 1068 092a F21F 5480 	fmove.d (%sp)+,%fp1
 1069 092e 2F09      	move.l %a1,-(%sp)
 1070 0930 2F08      	move.l %a0,-(%sp)
 1071 0932 F21F 5400 	fmove.d (%sp)+,%fp0
 1072 0936 F200 00A8 	fsub.x %fp0,%fp1
 1073 093a F227 7480 	fmove.d %fp1,-(%sp)
 1074 093e 201F      	move.l (%sp)+,%d0
 1075 0940 221F      	move.l (%sp)+,%d1
 1076 0942 6000 0960 	jra .L3
 1077               	.L9:
 1078 0946 202E 0008 	move.l 8(%fp),%d0
 1079 094a 222E 000C 	move.l 12(%fp),%d1
 1080 094e 2F01      	move.l %d1,-(%sp)
 1081 0950 2F00      	move.l %d0,-(%sp)
 1082 0952 4EB9 0000 	jsr fabs
 1082      0000 
 1083 0958 508F      	addq.l #8,%sp
 1084 095a F227 7400 	fmove.d %fp0,-(%sp)
 1085 095e 201F      	move.l (%sp)+,%d0
 1086 0960 221F      	move.l (%sp)+,%d1
 1087 0962 2D40 0008 	move.l %d0,8(%fp)
 1088 0966 2D41 000C 	move.l %d1,12(%fp)
 1089 096a 2079 0000 	move.l one,%a0
 1089      0000 
 1090 0970 2279 0000 	move.l one+4,%a1
 1090      0000 
 1091 0976 242E 0008 	move.l 8(%fp),%d2
 1092 097a 262E 000C 	move.l 12(%fp),%d3
 1093 097e 202E 0008 	move.l 8(%fp),%d0
 1094 0982 222E 000C 	move.l 12(%fp),%d1
 1095 0986 2F03      	move.l %d3,-(%sp)
68K GAS   			page 20


 1096 0988 2F02      	move.l %d2,-(%sp)
 1097 098a F21F 5480 	fmove.d (%sp)+,%fp1
 1098 098e 2F01      	move.l %d1,-(%sp)
 1099 0990 2F00      	move.l %d0,-(%sp)
 1100 0992 F21F 5400 	fmove.d (%sp)+,%fp0
 1101 0996 F200 00A3 	fmul.x %fp0,%fp1
 1102 099a F227 7480 	fmove.d %fp1,-(%sp)
 1103 099e 201F      	move.l (%sp)+,%d0
 1104 09a0 221F      	move.l (%sp)+,%d1
 1105 09a2 2F09      	move.l %a1,-(%sp)
 1106 09a4 2F08      	move.l %a0,-(%sp)
 1107 09a6 F21F 5480 	fmove.d (%sp)+,%fp1
 1108 09aa 2F01      	move.l %d1,-(%sp)
 1109 09ac 2F00      	move.l %d0,-(%sp)
 1110 09ae F21F 5400 	fmove.d (%sp)+,%fp0
 1111 09b2 F200 00A0 	fdiv.x %fp0,%fp1
 1112 09b6 F22E 7480 	fmove.d %fp1,-44(%fp)
 1112      FFD4 
 1113 09bc 0CAE 4006 	cmp.l #1074191213,-24(%fp)
 1113      DB6D FFE8 
 1114 09c4 6E00 03BC 	jgt .L11
 1115 09c8 2039 0000 	move.l ra7,%d0
 1115      0000 
 1116 09ce 2239 0000 	move.l ra7+4,%d1
 1116      0000 
 1117 09d4 2F01      	move.l %d1,-(%sp)
 1118 09d6 2F00      	move.l %d0,-(%sp)
 1119 09d8 F21F 5480 	fmove.d (%sp)+,%fp1
 1120 09dc F22E 54A3 	fmul.d -44(%fp),%fp1
 1120      FFD4 
 1121 09e2 F227 7480 	fmove.d %fp1,-(%sp)
 1122 09e6 201F      	move.l (%sp)+,%d0
 1123 09e8 221F      	move.l (%sp)+,%d1
 1124 09ea 2079 0000 	move.l ra6,%a0
 1124      0000 
 1125 09f0 2279 0000 	move.l ra6+4,%a1
 1125      0000 
 1126 09f6 2F01      	move.l %d1,-(%sp)
 1127 09f8 2F00      	move.l %d0,-(%sp)
 1128 09fa F21F 5400 	fmove.d (%sp)+,%fp0
 1129 09fe 2F09      	move.l %a1,-(%sp)
 1130 0a00 2F08      	move.l %a0,-(%sp)
 1131 0a02 F21F 5480 	fmove.d (%sp)+,%fp1
 1132 0a06 F200 0422 	fadd.x %fp1,%fp0
 1133 0a0a F227 7400 	fmove.d %fp0,-(%sp)
 1134 0a0e 201F      	move.l (%sp)+,%d0
 1135 0a10 221F      	move.l (%sp)+,%d1
 1136 0a12 2F01      	move.l %d1,-(%sp)
 1137 0a14 2F00      	move.l %d0,-(%sp)
 1138 0a16 F21F 5400 	fmove.d (%sp)+,%fp0
 1139 0a1a F22E 5423 	fmul.d -44(%fp),%fp0
 1139      FFD4 
 1140 0a20 F227 7400 	fmove.d %fp0,-(%sp)
 1141 0a24 201F      	move.l (%sp)+,%d0
 1142 0a26 221F      	move.l (%sp)+,%d1
 1143 0a28 2079 0000 	move.l ra5,%a0
 1143      0000 
68K GAS   			page 21


 1144 0a2e 2279 0000 	move.l ra5+4,%a1
 1144      0000 
 1145 0a34 2F01      	move.l %d1,-(%sp)
 1146 0a36 2F00      	move.l %d0,-(%sp)
 1147 0a38 F21F 5480 	fmove.d (%sp)+,%fp1
 1148 0a3c 2F09      	move.l %a1,-(%sp)
 1149 0a3e 2F08      	move.l %a0,-(%sp)
 1150 0a40 F21F 5400 	fmove.d (%sp)+,%fp0
 1151 0a44 F200 00A2 	fadd.x %fp0,%fp1
 1152 0a48 F227 7480 	fmove.d %fp1,-(%sp)
 1153 0a4c 201F      	move.l (%sp)+,%d0
 1154 0a4e 221F      	move.l (%sp)+,%d1
 1155 0a50 2F01      	move.l %d1,-(%sp)
 1156 0a52 2F00      	move.l %d0,-(%sp)
 1157 0a54 F21F 5480 	fmove.d (%sp)+,%fp1
 1158 0a58 F22E 54A3 	fmul.d -44(%fp),%fp1
 1158      FFD4 
 1159 0a5e F227 7480 	fmove.d %fp1,-(%sp)
 1160 0a62 201F      	move.l (%sp)+,%d0
 1161 0a64 221F      	move.l (%sp)+,%d1
 1162 0a66 2079 0000 	move.l ra4,%a0
 1162      0000 
 1163 0a6c 2279 0000 	move.l ra4+4,%a1
 1163      0000 
 1164 0a72 2F01      	move.l %d1,-(%sp)
 1165 0a74 2F00      	move.l %d0,-(%sp)
 1166 0a76 F21F 5400 	fmove.d (%sp)+,%fp0
 1167 0a7a 2F09      	move.l %a1,-(%sp)
 1168 0a7c 2F08      	move.l %a0,-(%sp)
 1169 0a7e F21F 5480 	fmove.d (%sp)+,%fp1
 1170 0a82 F200 0422 	fadd.x %fp1,%fp0
 1171 0a86 F227 7400 	fmove.d %fp0,-(%sp)
 1172 0a8a 201F      	move.l (%sp)+,%d0
 1173 0a8c 221F      	move.l (%sp)+,%d1
 1174 0a8e 2F01      	move.l %d1,-(%sp)
 1175 0a90 2F00      	move.l %d0,-(%sp)
 1176 0a92 F21F 5400 	fmove.d (%sp)+,%fp0
 1177 0a96 F22E 5423 	fmul.d -44(%fp),%fp0
 1177      FFD4 
 1178 0a9c F227 7400 	fmove.d %fp0,-(%sp)
 1179 0aa0 201F      	move.l (%sp)+,%d0
 1180 0aa2 221F      	move.l (%sp)+,%d1
 1181 0aa4 2079 0000 	move.l ra3,%a0
 1181      0000 
 1182 0aaa 2279 0000 	move.l ra3+4,%a1
 1182      0000 
 1183 0ab0 2F01      	move.l %d1,-(%sp)
 1184 0ab2 2F00      	move.l %d0,-(%sp)
 1185 0ab4 F21F 5480 	fmove.d (%sp)+,%fp1
 1186 0ab8 2F09      	move.l %a1,-(%sp)
 1187 0aba 2F08      	move.l %a0,-(%sp)
 1188 0abc F21F 5400 	fmove.d (%sp)+,%fp0
 1189 0ac0 F200 00A2 	fadd.x %fp0,%fp1
 1190 0ac4 F227 7480 	fmove.d %fp1,-(%sp)
 1191 0ac8 201F      	move.l (%sp)+,%d0
 1192 0aca 221F      	move.l (%sp)+,%d1
 1193 0acc 2F01      	move.l %d1,-(%sp)
68K GAS   			page 22


 1194 0ace 2F00      	move.l %d0,-(%sp)
 1195 0ad0 F21F 5480 	fmove.d (%sp)+,%fp1
 1196 0ad4 F22E 54A3 	fmul.d -44(%fp),%fp1
 1196      FFD4 
 1197 0ada F227 7480 	fmove.d %fp1,-(%sp)
 1198 0ade 201F      	move.l (%sp)+,%d0
 1199 0ae0 221F      	move.l (%sp)+,%d1
 1200 0ae2 2079 0000 	move.l ra2,%a0
 1200      0000 
 1201 0ae8 2279 0000 	move.l ra2+4,%a1
 1201      0000 
 1202 0aee 2F01      	move.l %d1,-(%sp)
 1203 0af0 2F00      	move.l %d0,-(%sp)
 1204 0af2 F21F 5400 	fmove.d (%sp)+,%fp0
 1205 0af6 2F09      	move.l %a1,-(%sp)
 1206 0af8 2F08      	move.l %a0,-(%sp)
 1207 0afa F21F 5480 	fmove.d (%sp)+,%fp1
 1208 0afe F200 0422 	fadd.x %fp1,%fp0
 1209 0b02 F227 7400 	fmove.d %fp0,-(%sp)
 1210 0b06 201F      	move.l (%sp)+,%d0
 1211 0b08 221F      	move.l (%sp)+,%d1
 1212 0b0a 2F01      	move.l %d1,-(%sp)
 1213 0b0c 2F00      	move.l %d0,-(%sp)
 1214 0b0e F21F 5400 	fmove.d (%sp)+,%fp0
 1215 0b12 F22E 5423 	fmul.d -44(%fp),%fp0
 1215      FFD4 
 1216 0b18 F227 7400 	fmove.d %fp0,-(%sp)
 1217 0b1c 201F      	move.l (%sp)+,%d0
 1218 0b1e 221F      	move.l (%sp)+,%d1
 1219 0b20 2079 0000 	move.l ra1,%a0
 1219      0000 
 1220 0b26 2279 0000 	move.l ra1+4,%a1
 1220      0000 
 1221 0b2c 2F01      	move.l %d1,-(%sp)
 1222 0b2e 2F00      	move.l %d0,-(%sp)
 1223 0b30 F21F 5480 	fmove.d (%sp)+,%fp1
 1224 0b34 2F09      	move.l %a1,-(%sp)
 1225 0b36 2F08      	move.l %a0,-(%sp)
 1226 0b38 F21F 5400 	fmove.d (%sp)+,%fp0
 1227 0b3c F200 00A2 	fadd.x %fp0,%fp1
 1228 0b40 F227 7480 	fmove.d %fp1,-(%sp)
 1229 0b44 201F      	move.l (%sp)+,%d0
 1230 0b46 221F      	move.l (%sp)+,%d1
 1231 0b48 2F01      	move.l %d1,-(%sp)
 1232 0b4a 2F00      	move.l %d0,-(%sp)
 1233 0b4c F21F 5480 	fmove.d (%sp)+,%fp1
 1234 0b50 F22E 54A3 	fmul.d -44(%fp),%fp1
 1234      FFD4 
 1235 0b56 F227 7480 	fmove.d %fp1,-(%sp)
 1236 0b5a 201F      	move.l (%sp)+,%d0
 1237 0b5c 221F      	move.l (%sp)+,%d1
 1238 0b5e 2079 0000 	move.l ra0,%a0
 1238      0000 
 1239 0b64 2279 0000 	move.l ra0+4,%a1
 1239      0000 
 1240 0b6a 2F01      	move.l %d1,-(%sp)
 1241 0b6c 2F00      	move.l %d0,-(%sp)
68K GAS   			page 23


 1242 0b6e F21F 5400 	fmove.d (%sp)+,%fp0
 1243 0b72 2F09      	move.l %a1,-(%sp)
 1244 0b74 2F08      	move.l %a0,-(%sp)
 1245 0b76 F21F 5480 	fmove.d (%sp)+,%fp1
 1246 0b7a F200 0422 	fadd.x %fp1,%fp0
 1247 0b7e F22E 7400 	fmove.d %fp0,-8(%fp)
 1247      FFF8 
 1248 0b84 2039 0000 	move.l sa8,%d0
 1248      0000 
 1249 0b8a 2239 0000 	move.l sa8+4,%d1
 1249      0000 
 1250 0b90 2F01      	move.l %d1,-(%sp)
 1251 0b92 2F00      	move.l %d0,-(%sp)
 1252 0b94 F21F 5400 	fmove.d (%sp)+,%fp0
 1253 0b98 F22E 5423 	fmul.d -44(%fp),%fp0
 1253      FFD4 
 1254 0b9e F227 7400 	fmove.d %fp0,-(%sp)
 1255 0ba2 201F      	move.l (%sp)+,%d0
 1256 0ba4 221F      	move.l (%sp)+,%d1
 1257 0ba6 2079 0000 	move.l sa7,%a0
 1257      0000 
 1258 0bac 2279 0000 	move.l sa7+4,%a1
 1258      0000 
 1259 0bb2 2F01      	move.l %d1,-(%sp)
 1260 0bb4 2F00      	move.l %d0,-(%sp)
 1261 0bb6 F21F 5480 	fmove.d (%sp)+,%fp1
 1262 0bba 2F09      	move.l %a1,-(%sp)
 1263 0bbc 2F08      	move.l %a0,-(%sp)
 1264 0bbe F21F 5400 	fmove.d (%sp)+,%fp0
 1265 0bc2 F200 00A2 	fadd.x %fp0,%fp1
 1266 0bc6 F227 7480 	fmove.d %fp1,-(%sp)
 1267 0bca 201F      	move.l (%sp)+,%d0
 1268 0bcc 221F      	move.l (%sp)+,%d1
 1269 0bce 2F01      	move.l %d1,-(%sp)
 1270 0bd0 2F00      	move.l %d0,-(%sp)
 1271 0bd2 F21F 5480 	fmove.d (%sp)+,%fp1
 1272 0bd6 F22E 54A3 	fmul.d -44(%fp),%fp1
 1272      FFD4 
 1273 0bdc F227 7480 	fmove.d %fp1,-(%sp)
 1274 0be0 201F      	move.l (%sp)+,%d0
 1275 0be2 221F      	move.l (%sp)+,%d1
 1276 0be4 2079 0000 	move.l sa6,%a0
 1276      0000 
 1277 0bea 2279 0000 	move.l sa6+4,%a1
 1277      0000 
 1278 0bf0 2F01      	move.l %d1,-(%sp)
 1279 0bf2 2F00      	move.l %d0,-(%sp)
 1280 0bf4 F21F 5400 	fmove.d (%sp)+,%fp0
 1281 0bf8 2F09      	move.l %a1,-(%sp)
 1282 0bfa 2F08      	move.l %a0,-(%sp)
 1283 0bfc F21F 5480 	fmove.d (%sp)+,%fp1
 1284 0c00 F200 0422 	fadd.x %fp1,%fp0
 1285 0c04 F227 7400 	fmove.d %fp0,-(%sp)
 1286 0c08 201F      	move.l (%sp)+,%d0
 1287 0c0a 221F      	move.l (%sp)+,%d1
 1288 0c0c 2F01      	move.l %d1,-(%sp)
 1289 0c0e 2F00      	move.l %d0,-(%sp)
68K GAS   			page 24


 1290 0c10 F21F 5400 	fmove.d (%sp)+,%fp0
 1291 0c14 F22E 5423 	fmul.d -44(%fp),%fp0
 1291      FFD4 
 1292 0c1a F227 7400 	fmove.d %fp0,-(%sp)
 1293 0c1e 201F      	move.l (%sp)+,%d0
 1294 0c20 221F      	move.l (%sp)+,%d1
 1295 0c22 2079 0000 	move.l sa5,%a0
 1295      0000 
 1296 0c28 2279 0000 	move.l sa5+4,%a1
 1296      0000 
 1297 0c2e 2F01      	move.l %d1,-(%sp)
 1298 0c30 2F00      	move.l %d0,-(%sp)
 1299 0c32 F21F 5480 	fmove.d (%sp)+,%fp1
 1300 0c36 2F09      	move.l %a1,-(%sp)
 1301 0c38 2F08      	move.l %a0,-(%sp)
 1302 0c3a F21F 5400 	fmove.d (%sp)+,%fp0
 1303 0c3e F200 00A2 	fadd.x %fp0,%fp1
 1304 0c42 F227 7480 	fmove.d %fp1,-(%sp)
 1305 0c46 201F      	move.l (%sp)+,%d0
 1306 0c48 221F      	move.l (%sp)+,%d1
 1307 0c4a 2F01      	move.l %d1,-(%sp)
 1308 0c4c 2F00      	move.l %d0,-(%sp)
 1309 0c4e F21F 5480 	fmove.d (%sp)+,%fp1
 1310 0c52 F22E 54A3 	fmul.d -44(%fp),%fp1
 1310      FFD4 
 1311 0c58 F227 7480 	fmove.d %fp1,-(%sp)
 1312 0c5c 201F      	move.l (%sp)+,%d0
 1313 0c5e 221F      	move.l (%sp)+,%d1
 1314 0c60 2079 0000 	move.l sa4,%a0
 1314      0000 
 1315 0c66 2279 0000 	move.l sa4+4,%a1
 1315      0000 
 1316 0c6c 2F01      	move.l %d1,-(%sp)
 1317 0c6e 2F00      	move.l %d0,-(%sp)
 1318 0c70 F21F 5400 	fmove.d (%sp)+,%fp0
 1319 0c74 2F09      	move.l %a1,-(%sp)
 1320 0c76 2F08      	move.l %a0,-(%sp)
 1321 0c78 F21F 5480 	fmove.d (%sp)+,%fp1
 1322 0c7c F200 0422 	fadd.x %fp1,%fp0
 1323 0c80 F227 7400 	fmove.d %fp0,-(%sp)
 1324 0c84 201F      	move.l (%sp)+,%d0
 1325 0c86 221F      	move.l (%sp)+,%d1
 1326 0c88 2F01      	move.l %d1,-(%sp)
 1327 0c8a 2F00      	move.l %d0,-(%sp)
 1328 0c8c F21F 5400 	fmove.d (%sp)+,%fp0
 1329 0c90 F22E 5423 	fmul.d -44(%fp),%fp0
 1329      FFD4 
 1330 0c96 F227 7400 	fmove.d %fp0,-(%sp)
 1331 0c9a 201F      	move.l (%sp)+,%d0
 1332 0c9c 221F      	move.l (%sp)+,%d1
 1333 0c9e 2079 0000 	move.l sa3,%a0
 1333      0000 
 1334 0ca4 2279 0000 	move.l sa3+4,%a1
 1334      0000 
 1335 0caa 2F01      	move.l %d1,-(%sp)
 1336 0cac 2F00      	move.l %d0,-(%sp)
 1337 0cae F21F 5480 	fmove.d (%sp)+,%fp1
68K GAS   			page 25


 1338 0cb2 2F09      	move.l %a1,-(%sp)
 1339 0cb4 2F08      	move.l %a0,-(%sp)
 1340 0cb6 F21F 5400 	fmove.d (%sp)+,%fp0
 1341 0cba F200 00A2 	fadd.x %fp0,%fp1
 1342 0cbe F227 7480 	fmove.d %fp1,-(%sp)
 1343 0cc2 201F      	move.l (%sp)+,%d0
 1344 0cc4 221F      	move.l (%sp)+,%d1
 1345 0cc6 2F01      	move.l %d1,-(%sp)
 1346 0cc8 2F00      	move.l %d0,-(%sp)
 1347 0cca F21F 5480 	fmove.d (%sp)+,%fp1
 1348 0cce F22E 54A3 	fmul.d -44(%fp),%fp1
 1348      FFD4 
 1349 0cd4 F227 7480 	fmove.d %fp1,-(%sp)
 1350 0cd8 201F      	move.l (%sp)+,%d0
 1351 0cda 221F      	move.l (%sp)+,%d1
 1352 0cdc 2079 0000 	move.l sa2,%a0
 1352      0000 
 1353 0ce2 2279 0000 	move.l sa2+4,%a1
 1353      0000 
 1354 0ce8 2F01      	move.l %d1,-(%sp)
 1355 0cea 2F00      	move.l %d0,-(%sp)
 1356 0cec F21F 5400 	fmove.d (%sp)+,%fp0
 1357 0cf0 2F09      	move.l %a1,-(%sp)
 1358 0cf2 2F08      	move.l %a0,-(%sp)
 1359 0cf4 F21F 5480 	fmove.d (%sp)+,%fp1
 1360 0cf8 F200 0422 	fadd.x %fp1,%fp0
 1361 0cfc F227 7400 	fmove.d %fp0,-(%sp)
 1362 0d00 201F      	move.l (%sp)+,%d0
 1363 0d02 221F      	move.l (%sp)+,%d1
 1364 0d04 2F01      	move.l %d1,-(%sp)
 1365 0d06 2F00      	move.l %d0,-(%sp)
 1366 0d08 F21F 5400 	fmove.d (%sp)+,%fp0
 1367 0d0c F22E 5423 	fmul.d -44(%fp),%fp0
 1367      FFD4 
 1368 0d12 F227 7400 	fmove.d %fp0,-(%sp)
 1369 0d16 201F      	move.l (%sp)+,%d0
 1370 0d18 221F      	move.l (%sp)+,%d1
 1371 0d1a 2079 0000 	move.l sa1,%a0
 1371      0000 
 1372 0d20 2279 0000 	move.l sa1+4,%a1
 1372      0000 
 1373 0d26 2F01      	move.l %d1,-(%sp)
 1374 0d28 2F00      	move.l %d0,-(%sp)
 1375 0d2a F21F 5480 	fmove.d (%sp)+,%fp1
 1376 0d2e 2F09      	move.l %a1,-(%sp)
 1377 0d30 2F08      	move.l %a0,-(%sp)
 1378 0d32 F21F 5400 	fmove.d (%sp)+,%fp0
 1379 0d36 F200 00A2 	fadd.x %fp0,%fp1
 1380 0d3a F227 7480 	fmove.d %fp1,-(%sp)
 1381 0d3e 201F      	move.l (%sp)+,%d0
 1382 0d40 221F      	move.l (%sp)+,%d1
 1383 0d42 2F01      	move.l %d1,-(%sp)
 1384 0d44 2F00      	move.l %d0,-(%sp)
 1385 0d46 F21F 5480 	fmove.d (%sp)+,%fp1
 1386 0d4a F22E 54A3 	fmul.d -44(%fp),%fp1
 1386      FFD4 
 1387 0d50 F227 7480 	fmove.d %fp1,-(%sp)
68K GAS   			page 26


 1388 0d54 201F      	move.l (%sp)+,%d0
 1389 0d56 221F      	move.l (%sp)+,%d1
 1390 0d58 2079 0000 	move.l one,%a0
 1390      0000 
 1391 0d5e 2279 0000 	move.l one+4,%a1
 1391      0000 
 1392 0d64 2F01      	move.l %d1,-(%sp)
 1393 0d66 2F00      	move.l %d0,-(%sp)
 1394 0d68 F21F 5400 	fmove.d (%sp)+,%fp0
 1395 0d6c 2F09      	move.l %a1,-(%sp)
 1396 0d6e 2F08      	move.l %a0,-(%sp)
 1397 0d70 F21F 5480 	fmove.d (%sp)+,%fp1
 1398 0d74 F200 0422 	fadd.x %fp1,%fp0
 1399 0d78 F22E 7400 	fmove.d %fp0,-16(%fp)
 1399      FFF0 
 1400 0d7e 6000 033C 	jra .L12
 1401               	.L11:
 1402 0d82 2039 0000 	move.l rb6,%d0
 1402      0000 
 1403 0d88 2239 0000 	move.l rb6+4,%d1
 1403      0000 
 1404 0d8e 2F01      	move.l %d1,-(%sp)
 1405 0d90 2F00      	move.l %d0,-(%sp)
 1406 0d92 F21F 5400 	fmove.d (%sp)+,%fp0
 1407 0d96 F22E 5423 	fmul.d -44(%fp),%fp0
 1407      FFD4 
 1408 0d9c F227 7400 	fmove.d %fp0,-(%sp)
 1409 0da0 201F      	move.l (%sp)+,%d0
 1410 0da2 221F      	move.l (%sp)+,%d1
 1411 0da4 2079 0000 	move.l rb5,%a0
 1411      0000 
 1412 0daa 2279 0000 	move.l rb5+4,%a1
 1412      0000 
 1413 0db0 2F01      	move.l %d1,-(%sp)
 1414 0db2 2F00      	move.l %d0,-(%sp)
 1415 0db4 F21F 5480 	fmove.d (%sp)+,%fp1
 1416 0db8 2F09      	move.l %a1,-(%sp)
 1417 0dba 2F08      	move.l %a0,-(%sp)
 1418 0dbc F21F 5400 	fmove.d (%sp)+,%fp0
 1419 0dc0 F200 00A2 	fadd.x %fp0,%fp1
 1420 0dc4 F227 7480 	fmove.d %fp1,-(%sp)
 1421 0dc8 201F      	move.l (%sp)+,%d0
 1422 0dca 221F      	move.l (%sp)+,%d1
 1423 0dcc 2F01      	move.l %d1,-(%sp)
 1424 0dce 2F00      	move.l %d0,-(%sp)
 1425 0dd0 F21F 5480 	fmove.d (%sp)+,%fp1
 1426 0dd4 F22E 54A3 	fmul.d -44(%fp),%fp1
 1426      FFD4 
 1427 0dda F227 7480 	fmove.d %fp1,-(%sp)
 1428 0dde 201F      	move.l (%sp)+,%d0
 1429 0de0 221F      	move.l (%sp)+,%d1
 1430 0de2 2079 0000 	move.l rb4,%a0
 1430      0000 
 1431 0de8 2279 0000 	move.l rb4+4,%a1
 1431      0000 
 1432 0dee 2F01      	move.l %d1,-(%sp)
 1433 0df0 2F00      	move.l %d0,-(%sp)
68K GAS   			page 27


 1434 0df2 F21F 5400 	fmove.d (%sp)+,%fp0
 1435 0df6 2F09      	move.l %a1,-(%sp)
 1436 0df8 2F08      	move.l %a0,-(%sp)
 1437 0dfa F21F 5480 	fmove.d (%sp)+,%fp1
 1438 0dfe F200 0422 	fadd.x %fp1,%fp0
 1439 0e02 F227 7400 	fmove.d %fp0,-(%sp)
 1440 0e06 201F      	move.l (%sp)+,%d0
 1441 0e08 221F      	move.l (%sp)+,%d1
 1442 0e0a 2F01      	move.l %d1,-(%sp)
 1443 0e0c 2F00      	move.l %d0,-(%sp)
 1444 0e0e F21F 5400 	fmove.d (%sp)+,%fp0
 1445 0e12 F22E 5423 	fmul.d -44(%fp),%fp0
 1445      FFD4 
 1446 0e18 F227 7400 	fmove.d %fp0,-(%sp)
 1447 0e1c 201F      	move.l (%sp)+,%d0
 1448 0e1e 221F      	move.l (%sp)+,%d1
 1449 0e20 2079 0000 	move.l rb3,%a0
 1449      0000 
 1450 0e26 2279 0000 	move.l rb3+4,%a1
 1450      0000 
 1451 0e2c 2F01      	move.l %d1,-(%sp)
 1452 0e2e 2F00      	move.l %d0,-(%sp)
 1453 0e30 F21F 5480 	fmove.d (%sp)+,%fp1
 1454 0e34 2F09      	move.l %a1,-(%sp)
 1455 0e36 2F08      	move.l %a0,-(%sp)
 1456 0e38 F21F 5400 	fmove.d (%sp)+,%fp0
 1457 0e3c F200 00A2 	fadd.x %fp0,%fp1
 1458 0e40 F227 7480 	fmove.d %fp1,-(%sp)
 1459 0e44 201F      	move.l (%sp)+,%d0
 1460 0e46 221F      	move.l (%sp)+,%d1
 1461 0e48 2F01      	move.l %d1,-(%sp)
 1462 0e4a 2F00      	move.l %d0,-(%sp)
 1463 0e4c F21F 5480 	fmove.d (%sp)+,%fp1
 1464 0e50 F22E 54A3 	fmul.d -44(%fp),%fp1
 1464      FFD4 
 1465 0e56 F227 7480 	fmove.d %fp1,-(%sp)
 1466 0e5a 201F      	move.l (%sp)+,%d0
 1467 0e5c 221F      	move.l (%sp)+,%d1
 1468 0e5e 2079 0000 	move.l rb2,%a0
 1468      0000 
 1469 0e64 2279 0000 	move.l rb2+4,%a1
 1469      0000 
 1470 0e6a 2F01      	move.l %d1,-(%sp)
 1471 0e6c 2F00      	move.l %d0,-(%sp)
 1472 0e6e F21F 5400 	fmove.d (%sp)+,%fp0
 1473 0e72 2F09      	move.l %a1,-(%sp)
 1474 0e74 2F08      	move.l %a0,-(%sp)
 1475 0e76 F21F 5480 	fmove.d (%sp)+,%fp1
 1476 0e7a F200 0422 	fadd.x %fp1,%fp0
 1477 0e7e F227 7400 	fmove.d %fp0,-(%sp)
 1478 0e82 201F      	move.l (%sp)+,%d0
 1479 0e84 221F      	move.l (%sp)+,%d1
 1480 0e86 2F01      	move.l %d1,-(%sp)
 1481 0e88 2F00      	move.l %d0,-(%sp)
 1482 0e8a F21F 5400 	fmove.d (%sp)+,%fp0
 1483 0e8e F22E 5423 	fmul.d -44(%fp),%fp0
 1483      FFD4 
68K GAS   			page 28


 1484 0e94 F227 7400 	fmove.d %fp0,-(%sp)
 1485 0e98 201F      	move.l (%sp)+,%d0
 1486 0e9a 221F      	move.l (%sp)+,%d1
 1487 0e9c 2079 0000 	move.l rb1,%a0
 1487      0000 
 1488 0ea2 2279 0000 	move.l rb1+4,%a1
 1488      0000 
 1489 0ea8 2F01      	move.l %d1,-(%sp)
 1490 0eaa 2F00      	move.l %d0,-(%sp)
 1491 0eac F21F 5480 	fmove.d (%sp)+,%fp1
 1492 0eb0 2F09      	move.l %a1,-(%sp)
 1493 0eb2 2F08      	move.l %a0,-(%sp)
 1494 0eb4 F21F 5400 	fmove.d (%sp)+,%fp0
 1495 0eb8 F200 00A2 	fadd.x %fp0,%fp1
 1496 0ebc F227 7480 	fmove.d %fp1,-(%sp)
 1497 0ec0 201F      	move.l (%sp)+,%d0
 1498 0ec2 221F      	move.l (%sp)+,%d1
 1499 0ec4 2F01      	move.l %d1,-(%sp)
 1500 0ec6 2F00      	move.l %d0,-(%sp)
 1501 0ec8 F21F 5480 	fmove.d (%sp)+,%fp1
 1502 0ecc F22E 54A3 	fmul.d -44(%fp),%fp1
 1502      FFD4 
 1503 0ed2 F227 7480 	fmove.d %fp1,-(%sp)
 1504 0ed6 201F      	move.l (%sp)+,%d0
 1505 0ed8 221F      	move.l (%sp)+,%d1
 1506 0eda 2079 0000 	move.l rb0,%a0
 1506      0000 
 1507 0ee0 2279 0000 	move.l rb0+4,%a1
 1507      0000 
 1508 0ee6 2F01      	move.l %d1,-(%sp)
 1509 0ee8 2F00      	move.l %d0,-(%sp)
 1510 0eea F21F 5400 	fmove.d (%sp)+,%fp0
 1511 0eee 2F09      	move.l %a1,-(%sp)
 1512 0ef0 2F08      	move.l %a0,-(%sp)
 1513 0ef2 F21F 5480 	fmove.d (%sp)+,%fp1
 1514 0ef6 F200 0422 	fadd.x %fp1,%fp0
 1515 0efa F22E 7400 	fmove.d %fp0,-8(%fp)
 1515      FFF8 
 1516 0f00 2039 0000 	move.l sb7,%d0
 1516      0000 
 1517 0f06 2239 0000 	move.l sb7+4,%d1
 1517      0000 
 1518 0f0c 2F01      	move.l %d1,-(%sp)
 1519 0f0e 2F00      	move.l %d0,-(%sp)
 1520 0f10 F21F 5400 	fmove.d (%sp)+,%fp0
 1521 0f14 F22E 5423 	fmul.d -44(%fp),%fp0
 1521      FFD4 
 1522 0f1a F227 7400 	fmove.d %fp0,-(%sp)
 1523 0f1e 201F      	move.l (%sp)+,%d0
 1524 0f20 221F      	move.l (%sp)+,%d1
 1525 0f22 2079 0000 	move.l sb6,%a0
 1525      0000 
 1526 0f28 2279 0000 	move.l sb6+4,%a1
 1526      0000 
 1527 0f2e 2F01      	move.l %d1,-(%sp)
 1528 0f30 2F00      	move.l %d0,-(%sp)
 1529 0f32 F21F 5480 	fmove.d (%sp)+,%fp1
68K GAS   			page 29


 1530 0f36 2F09      	move.l %a1,-(%sp)
 1531 0f38 2F08      	move.l %a0,-(%sp)
 1532 0f3a F21F 5400 	fmove.d (%sp)+,%fp0
 1533 0f3e F200 00A2 	fadd.x %fp0,%fp1
 1534 0f42 F227 7480 	fmove.d %fp1,-(%sp)
 1535 0f46 201F      	move.l (%sp)+,%d0
 1536 0f48 221F      	move.l (%sp)+,%d1
 1537 0f4a 2F01      	move.l %d1,-(%sp)
 1538 0f4c 2F00      	move.l %d0,-(%sp)
 1539 0f4e F21F 5480 	fmove.d (%sp)+,%fp1
 1540 0f52 F22E 54A3 	fmul.d -44(%fp),%fp1
 1540      FFD4 
 1541 0f58 F227 7480 	fmove.d %fp1,-(%sp)
 1542 0f5c 201F      	move.l (%sp)+,%d0
 1543 0f5e 221F      	move.l (%sp)+,%d1
 1544 0f60 2079 0000 	move.l sb5,%a0
 1544      0000 
 1545 0f66 2279 0000 	move.l sb5+4,%a1
 1545      0000 
 1546 0f6c 2F01      	move.l %d1,-(%sp)
 1547 0f6e 2F00      	move.l %d0,-(%sp)
 1548 0f70 F21F 5400 	fmove.d (%sp)+,%fp0
 1549 0f74 2F09      	move.l %a1,-(%sp)
 1550 0f76 2F08      	move.l %a0,-(%sp)
 1551 0f78 F21F 5480 	fmove.d (%sp)+,%fp1
 1552 0f7c F200 0422 	fadd.x %fp1,%fp0
 1553 0f80 F227 7400 	fmove.d %fp0,-(%sp)
 1554 0f84 201F      	move.l (%sp)+,%d0
 1555 0f86 221F      	move.l (%sp)+,%d1
 1556 0f88 2F01      	move.l %d1,-(%sp)
 1557 0f8a 2F00      	move.l %d0,-(%sp)
 1558 0f8c F21F 5400 	fmove.d (%sp)+,%fp0
 1559 0f90 F22E 5423 	fmul.d -44(%fp),%fp0
 1559      FFD4 
 1560 0f96 F227 7400 	fmove.d %fp0,-(%sp)
 1561 0f9a 201F      	move.l (%sp)+,%d0
 1562 0f9c 221F      	move.l (%sp)+,%d1
 1563 0f9e 2079 0000 	move.l sb4,%a0
 1563      0000 
 1564 0fa4 2279 0000 	move.l sb4+4,%a1
 1564      0000 
 1565 0faa 2F01      	move.l %d1,-(%sp)
 1566 0fac 2F00      	move.l %d0,-(%sp)
 1567 0fae F21F 5480 	fmove.d (%sp)+,%fp1
 1568 0fb2 2F09      	move.l %a1,-(%sp)
 1569 0fb4 2F08      	move.l %a0,-(%sp)
 1570 0fb6 F21F 5400 	fmove.d (%sp)+,%fp0
 1571 0fba F200 00A2 	fadd.x %fp0,%fp1
 1572 0fbe F227 7480 	fmove.d %fp1,-(%sp)
 1573 0fc2 201F      	move.l (%sp)+,%d0
 1574 0fc4 221F      	move.l (%sp)+,%d1
 1575 0fc6 2F01      	move.l %d1,-(%sp)
 1576 0fc8 2F00      	move.l %d0,-(%sp)
 1577 0fca F21F 5480 	fmove.d (%sp)+,%fp1
 1578 0fce F22E 54A3 	fmul.d -44(%fp),%fp1
 1578      FFD4 
 1579 0fd4 F227 7480 	fmove.d %fp1,-(%sp)
68K GAS   			page 30


 1580 0fd8 201F      	move.l (%sp)+,%d0
 1581 0fda 221F      	move.l (%sp)+,%d1
 1582 0fdc 2079 0000 	move.l sb3,%a0
 1582      0000 
 1583 0fe2 2279 0000 	move.l sb3+4,%a1
 1583      0000 
 1584 0fe8 2F01      	move.l %d1,-(%sp)
 1585 0fea 2F00      	move.l %d0,-(%sp)
 1586 0fec F21F 5400 	fmove.d (%sp)+,%fp0
 1587 0ff0 2F09      	move.l %a1,-(%sp)
 1588 0ff2 2F08      	move.l %a0,-(%sp)
 1589 0ff4 F21F 5480 	fmove.d (%sp)+,%fp1
 1590 0ff8 F200 0422 	fadd.x %fp1,%fp0
 1591 0ffc F227 7400 	fmove.d %fp0,-(%sp)
 1592 1000 201F      	move.l (%sp)+,%d0
 1593 1002 221F      	move.l (%sp)+,%d1
 1594 1004 2F01      	move.l %d1,-(%sp)
 1595 1006 2F00      	move.l %d0,-(%sp)
 1596 1008 F21F 5400 	fmove.d (%sp)+,%fp0
 1597 100c F22E 5423 	fmul.d -44(%fp),%fp0
 1597      FFD4 
 1598 1012 F227 7400 	fmove.d %fp0,-(%sp)
 1599 1016 201F      	move.l (%sp)+,%d0
 1600 1018 221F      	move.l (%sp)+,%d1
 1601 101a 2079 0000 	move.l sb2,%a0
 1601      0000 
 1602 1020 2279 0000 	move.l sb2+4,%a1
 1602      0000 
 1603 1026 2F01      	move.l %d1,-(%sp)
 1604 1028 2F00      	move.l %d0,-(%sp)
 1605 102a F21F 5480 	fmove.d (%sp)+,%fp1
 1606 102e 2F09      	move.l %a1,-(%sp)
 1607 1030 2F08      	move.l %a0,-(%sp)
 1608 1032 F21F 5400 	fmove.d (%sp)+,%fp0
 1609 1036 F200 00A2 	fadd.x %fp0,%fp1
 1610 103a F227 7480 	fmove.d %fp1,-(%sp)
 1611 103e 201F      	move.l (%sp)+,%d0
 1612 1040 221F      	move.l (%sp)+,%d1
 1613 1042 2F01      	move.l %d1,-(%sp)
 1614 1044 2F00      	move.l %d0,-(%sp)
 1615 1046 F21F 5480 	fmove.d (%sp)+,%fp1
 1616 104a F22E 54A3 	fmul.d -44(%fp),%fp1
 1616      FFD4 
 1617 1050 F227 7480 	fmove.d %fp1,-(%sp)
 1618 1054 201F      	move.l (%sp)+,%d0
 1619 1056 221F      	move.l (%sp)+,%d1
 1620 1058 2079 0000 	move.l sb1,%a0
 1620      0000 
 1621 105e 2279 0000 	move.l sb1+4,%a1
 1621      0000 
 1622 1064 2F01      	move.l %d1,-(%sp)
 1623 1066 2F00      	move.l %d0,-(%sp)
 1624 1068 F21F 5400 	fmove.d (%sp)+,%fp0
 1625 106c 2F09      	move.l %a1,-(%sp)
 1626 106e 2F08      	move.l %a0,-(%sp)
 1627 1070 F21F 5480 	fmove.d (%sp)+,%fp1
 1628 1074 F200 0422 	fadd.x %fp1,%fp0
68K GAS   			page 31


 1629 1078 F227 7400 	fmove.d %fp0,-(%sp)
 1630 107c 201F      	move.l (%sp)+,%d0
 1631 107e 221F      	move.l (%sp)+,%d1
 1632 1080 2F01      	move.l %d1,-(%sp)
 1633 1082 2F00      	move.l %d0,-(%sp)
 1634 1084 F21F 5400 	fmove.d (%sp)+,%fp0
 1635 1088 F22E 5423 	fmul.d -44(%fp),%fp0
 1635      FFD4 
 1636 108e F227 7400 	fmove.d %fp0,-(%sp)
 1637 1092 201F      	move.l (%sp)+,%d0
 1638 1094 221F      	move.l (%sp)+,%d1
 1639 1096 2079 0000 	move.l one,%a0
 1639      0000 
 1640 109c 2279 0000 	move.l one+4,%a1
 1640      0000 
 1641 10a2 2F01      	move.l %d1,-(%sp)
 1642 10a4 2F00      	move.l %d0,-(%sp)
 1643 10a6 F21F 5480 	fmove.d (%sp)+,%fp1
 1644 10aa 2F09      	move.l %a1,-(%sp)
 1645 10ac 2F08      	move.l %a0,-(%sp)
 1646 10ae F21F 5400 	fmove.d (%sp)+,%fp0
 1647 10b2 F200 00A2 	fadd.x %fp0,%fp1
 1648 10b6 F22E 7480 	fmove.d %fp1,-16(%fp)
 1648      FFF0 
 1649               	.L12:
 1650 10bc 202E 0008 	move.l 8(%fp),%d0
 1651 10c0 222E 000C 	move.l 12(%fp),%d1
 1652 10c4 2D40 FFB4 	move.l %d0,-76(%fp)
 1653 10c8 2D41 FFB8 	move.l %d1,-72(%fp)
 1654 10cc 70B4      	moveq #-76,%d0
 1655 10ce D08E      	add.l %fp,%d0
 1656 10d0 5880      	addq.l #4,%d0
 1657 10d2 2040      	move.l %d0,%a0
 1658 10d4 4290      	clr.l (%a0)
 1659 10d6 202E FFB4 	move.l -76(%fp),%d0
 1660 10da 222E FFB8 	move.l -72(%fp),%d1
 1661 10de 0840 001F 	bchg #31,%d0
 1662 10e2 206E FFB4 	move.l -76(%fp),%a0
 1663 10e6 226E FFB8 	move.l -72(%fp),%a1
 1664 10ea 2F01      	move.l %d1,-(%sp)
 1665 10ec 2F00      	move.l %d0,-(%sp)
 1666 10ee F21F 5400 	fmove.d (%sp)+,%fp0
 1667 10f2 2F09      	move.l %a1,-(%sp)
 1668 10f4 2F08      	move.l %a0,-(%sp)
 1669 10f6 F21F 5480 	fmove.d (%sp)+,%fp1
 1670 10fa F200 0423 	fmul.x %fp1,%fp0
 1671 10fe F227 7400 	fmove.d %fp0,-(%sp)
 1672 1102 201F      	move.l (%sp)+,%d0
 1673 1104 221F      	move.l (%sp)+,%d1
 1674 1106 2F01      	move.l %d1,-(%sp)
 1675 1108 2F00      	move.l %d0,-(%sp)
 1676 110a F21F 5400 	fmove.d (%sp)+,%fp0
 1677 110e F23C 5428 	fsub.d #0x3fe2000000000000,%fp0
 1677      3FE2 0000 
 1677      0000 0000 
 1678 111a F227 7400 	fmove.d %fp0,-(%sp)
 1679 111e 201F      	move.l (%sp)+,%d0
68K GAS   			page 32


 1680 1120 221F      	move.l (%sp)+,%d1
 1681 1122 2F01      	move.l %d1,-(%sp)
 1682 1124 2F00      	move.l %d0,-(%sp)
 1683 1126 4EB9 0000 	jsr __ieee754_exp
 1683      0000 
 1684 112c 508F      	addq.l #8,%sp
 1685 112e F227 7400 	fmove.d %fp0,-(%sp)
 1686 1132 241F      	move.l (%sp)+,%d2
 1687 1134 261F      	move.l (%sp)+,%d3
 1688 1136 202E FFB4 	move.l -76(%fp),%d0
 1689 113a 222E FFB8 	move.l -72(%fp),%d1
 1690 113e 206E 0008 	move.l 8(%fp),%a0
 1691 1142 226E 000C 	move.l 12(%fp),%a1
 1692 1146 2F01      	move.l %d1,-(%sp)
 1693 1148 2F00      	move.l %d0,-(%sp)
 1694 114a F21F 5480 	fmove.d (%sp)+,%fp1
 1695 114e 2F09      	move.l %a1,-(%sp)
 1696 1150 2F08      	move.l %a0,-(%sp)
 1697 1152 F21F 5400 	fmove.d (%sp)+,%fp0
 1698 1156 F200 00A8 	fsub.x %fp0,%fp1
 1699 115a F227 7480 	fmove.d %fp1,-(%sp)
 1700 115e 205F      	move.l (%sp)+,%a0
 1701 1160 225F      	move.l (%sp)+,%a1
 1702 1162 282E FFB4 	move.l -76(%fp),%d4
 1703 1166 2A2E FFB8 	move.l -72(%fp),%d5
 1704 116a 202E 0008 	move.l 8(%fp),%d0
 1705 116e 222E 000C 	move.l 12(%fp),%d1
 1706 1172 2F05      	move.l %d5,-(%sp)
 1707 1174 2F04      	move.l %d4,-(%sp)
 1708 1176 F21F 5480 	fmove.d (%sp)+,%fp1
 1709 117a 2F01      	move.l %d1,-(%sp)
 1710 117c 2F00      	move.l %d0,-(%sp)
 1711 117e F21F 5400 	fmove.d (%sp)+,%fp0
 1712 1182 F200 00A2 	fadd.x %fp0,%fp1
 1713 1186 F227 7480 	fmove.d %fp1,-(%sp)
 1714 118a 201F      	move.l (%sp)+,%d0
 1715 118c 221F      	move.l (%sp)+,%d1
 1716 118e 2F09      	move.l %a1,-(%sp)
 1717 1190 2F08      	move.l %a0,-(%sp)
 1718 1192 F21F 5480 	fmove.d (%sp)+,%fp1
 1719 1196 2F01      	move.l %d1,-(%sp)
 1720 1198 2F00      	move.l %d0,-(%sp)
 1721 119a F21F 5400 	fmove.d (%sp)+,%fp0
 1722 119e F200 00A3 	fmul.x %fp0,%fp1
 1723 11a2 F227 7480 	fmove.d %fp1,-(%sp)
 1724 11a6 205F      	move.l (%sp)+,%a0
 1725 11a8 225F      	move.l (%sp)+,%a1
 1726 11aa F22E 5480 	fmove.d -8(%fp),%fp1
 1726      FFF8 
 1727 11b0 F22E 54A0 	fdiv.d -16(%fp),%fp1
 1727      FFF0 
 1728 11b6 F227 7480 	fmove.d %fp1,-(%sp)
 1729 11ba 201F      	move.l (%sp)+,%d0
 1730 11bc 221F      	move.l (%sp)+,%d1
 1731 11be 2F09      	move.l %a1,-(%sp)
 1732 11c0 2F08      	move.l %a0,-(%sp)
 1733 11c2 F21F 5400 	fmove.d (%sp)+,%fp0
68K GAS   			page 33


 1734 11c6 2F01      	move.l %d1,-(%sp)
 1735 11c8 2F00      	move.l %d0,-(%sp)
 1736 11ca F21F 5480 	fmove.d (%sp)+,%fp1
 1737 11ce F200 0422 	fadd.x %fp1,%fp0
 1738 11d2 F227 7400 	fmove.d %fp0,-(%sp)
 1739 11d6 201F      	move.l (%sp)+,%d0
 1740 11d8 221F      	move.l (%sp)+,%d1
 1741 11da 2F01      	move.l %d1,-(%sp)
 1742 11dc 2F00      	move.l %d0,-(%sp)
 1743 11de 4EB9 0000 	jsr __ieee754_exp
 1743      0000 
 1744 11e4 508F      	addq.l #8,%sp
 1745 11e6 F227 7400 	fmove.d %fp0,-(%sp)
 1746 11ea 201F      	move.l (%sp)+,%d0
 1747 11ec 221F      	move.l (%sp)+,%d1
 1748 11ee 2F03      	move.l %d3,-(%sp)
 1749 11f0 2F02      	move.l %d2,-(%sp)
 1750 11f2 F21F 5400 	fmove.d (%sp)+,%fp0
 1751 11f6 2F01      	move.l %d1,-(%sp)
 1752 11f8 2F00      	move.l %d0,-(%sp)
 1753 11fa F21F 5480 	fmove.d (%sp)+,%fp1
 1754 11fe F200 0423 	fmul.x %fp1,%fp0
 1755 1202 F22E 7400 	fmove.d %fp0,-36(%fp)
 1755      FFDC 
 1756 1208 4AAE FFEC 	tst.l -20(%fp)
 1757 120c 6D4C      	jlt .L13
 1758 120e 2079 0000 	move.l one,%a0
 1758      0000 
 1759 1214 2279 0000 	move.l one+4,%a1
 1759      0000 
 1760 121a 202E 0008 	move.l 8(%fp),%d0
 1761 121e 222E 000C 	move.l 12(%fp),%d1
 1762 1222 F22E 5400 	fmove.d -36(%fp),%fp0
 1762      FFDC 
 1763 1228 2F01      	move.l %d1,-(%sp)
 1764 122a 2F00      	move.l %d0,-(%sp)
 1765 122c F21F 5480 	fmove.d (%sp)+,%fp1
 1766 1230 F200 0420 	fdiv.x %fp1,%fp0
 1767 1234 F227 7400 	fmove.d %fp0,-(%sp)
 1768 1238 201F      	move.l (%sp)+,%d0
 1769 123a 221F      	move.l (%sp)+,%d1
 1770 123c 2F09      	move.l %a1,-(%sp)
 1771 123e 2F08      	move.l %a0,-(%sp)
 1772 1240 F21F 5400 	fmove.d (%sp)+,%fp0
 1773 1244 2F01      	move.l %d1,-(%sp)
 1774 1246 2F00      	move.l %d0,-(%sp)
 1775 1248 F21F 5480 	fmove.d (%sp)+,%fp1
 1776 124c F200 0428 	fsub.x %fp1,%fp0
 1777 1250 F227 7400 	fmove.d %fp0,-(%sp)
 1778 1254 201F      	move.l (%sp)+,%d0
 1779 1256 221F      	move.l (%sp)+,%d1
 1780 1258 604A      	jra .L3
 1781               	.L13:
 1782 125a 202E 0008 	move.l 8(%fp),%d0
 1783 125e 222E 000C 	move.l 12(%fp),%d1
 1784 1262 F22E 5400 	fmove.d -36(%fp),%fp0
 1784      FFDC 
68K GAS   			page 34


 1785 1268 2F01      	move.l %d1,-(%sp)
 1786 126a 2F00      	move.l %d0,-(%sp)
 1787 126c F21F 5480 	fmove.d (%sp)+,%fp1
 1788 1270 F200 0420 	fdiv.x %fp1,%fp0
 1789 1274 F227 7400 	fmove.d %fp0,-(%sp)
 1790 1278 201F      	move.l (%sp)+,%d0
 1791 127a 221F      	move.l (%sp)+,%d1
 1792 127c 2079 0000 	move.l one,%a0
 1792      0000 
 1793 1282 2279 0000 	move.l one+4,%a1
 1793      0000 
 1794 1288 2F01      	move.l %d1,-(%sp)
 1795 128a 2F00      	move.l %d0,-(%sp)
 1796 128c F21F 5400 	fmove.d (%sp)+,%fp0
 1797 1290 2F09      	move.l %a1,-(%sp)
 1798 1292 2F08      	move.l %a0,-(%sp)
 1799 1294 F21F 5480 	fmove.d (%sp)+,%fp1
 1800 1298 F200 0428 	fsub.x %fp1,%fp0
 1801 129c F227 7400 	fmove.d %fp0,-(%sp)
 1802 12a0 201F      	move.l (%sp)+,%d0
 1803 12a2 221F      	move.l (%sp)+,%d1
 1804               	.L3:
 1805 12a4 2F01      	move.l %d1,-(%sp)
 1806 12a6 2F00      	move.l %d0,-(%sp)
 1807 12a8 F21F 5400 	fmove.d (%sp)+,%fp0
 1808 12ac 4CEE 003C 	movem.l -92(%fp),#60
 1808      FFA4 
 1809 12b2 4E5E      	unlk %fp
 1810 12b4 4E75      	rts
 1812               	.align2
 1813               	.globlerfc
 1815               	erfc:
 1816 12b6 4E56 FFB8 	link.w %fp,#-72
 1817 12ba 48E7 3C00 	movem.l #15360,-(%sp)
 1818 12be 200E      	move.l %fp,%d0
 1819 12c0 5080      	addq.l #8,%d0
 1820 12c2 2040      	move.l %d0,%a0
 1821 12c4 2D50 FFEC 	move.l (%a0),-20(%fp)
 1822 12c8 202E FFEC 	move.l -20(%fp),%d0
 1823 12cc 0880 001F 	bclr #31,%d0
 1824 12d0 2D40 FFE8 	move.l %d0,-24(%fp)
 1825 12d4 0CAE 7FEF 	cmp.l #2146435071,-24(%fp)
 1825      FFFF FFE8 
 1826 12dc 6F00 0090 	jle .L15
 1827 12e0 202E FFEC 	move.l -20(%fp),%d0
 1828 12e4 D080      	add.l %d0,%d0
 1829 12e6 9180      	subx.l %d0,%d0
 1830 12e8 4480      	neg.l %d0
 1831 12ea 2200      	move.l %d0,%d1
 1832 12ec D281      	add.l %d1,%d1
 1833 12ee 2041      	move.l %d1,%a0
 1834 12f0 2408      	move.l %a0,%d2
 1835 12f2 F202 4000 	fmove.l %d2,%fp0
 1836 12f6 F227 7400 	fmove.d %fp0,-(%sp)
 1837 12fa 201F      	move.l (%sp)+,%d0
 1838 12fc 221F      	move.l (%sp)+,%d1
 1839 12fe 4A88      	tst.l %a0
68K GAS   			page 35


 1840 1300 6C1C      	jge .L16
 1841 1302 2F01      	move.l %d1,-(%sp)
 1842 1304 2F00      	move.l %d0,-(%sp)
 1843 1306 F21F 5480 	fmove.d (%sp)+,%fp1
 1844 130a F23C 54A2 	fadd.d #0x41f0000000000000,%fp1
 1844      41F0 0000 
 1844      0000 0000 
 1845 1316 F227 7480 	fmove.d %fp1,-(%sp)
 1846 131a 201F      	move.l (%sp)+,%d0
 1847 131c 221F      	move.l (%sp)+,%d1
 1848               	.L16:
 1849 131e 2079 0000 	move.l one,%a0
 1849      0000 
 1850 1324 2279 0000 	move.l one+4,%a1
 1850      0000 
 1851 132a 242E 0008 	move.l 8(%fp),%d2
 1852 132e 262E 000C 	move.l 12(%fp),%d3
 1853 1332 2F09      	move.l %a1,-(%sp)
 1854 1334 2F08      	move.l %a0,-(%sp)
 1855 1336 F21F 5400 	fmove.d (%sp)+,%fp0
 1856 133a 2F03      	move.l %d3,-(%sp)
 1857 133c 2F02      	move.l %d2,-(%sp)
 1858 133e F21F 5480 	fmove.d (%sp)+,%fp1
 1859 1342 F200 0420 	fdiv.x %fp1,%fp0
 1860 1346 F227 7400 	fmove.d %fp0,-(%sp)
 1861 134a 205F      	move.l (%sp)+,%a0
 1862 134c 225F      	move.l (%sp)+,%a1
 1863 134e 2F01      	move.l %d1,-(%sp)
 1864 1350 2F00      	move.l %d0,-(%sp)
 1865 1352 F21F 5400 	fmove.d (%sp)+,%fp0
 1866 1356 2F09      	move.l %a1,-(%sp)
 1867 1358 2F08      	move.l %a0,-(%sp)
 1868 135a F21F 5480 	fmove.d (%sp)+,%fp1
 1869 135e F200 0422 	fadd.x %fp1,%fp0
 1870 1362 F227 7400 	fmove.d %fp0,-(%sp)
 1871 1366 201F      	move.l (%sp)+,%d0
 1872 1368 221F      	move.l (%sp)+,%d1
 1873 136a 6000 128E 	jra .L17
 1874               	.L15:
 1875 136e 0CAE 3FEA 	cmp.l #1072365567,-24(%fp)
 1875      FFFF FFE8 
 1876 1376 6E00 0444 	jgt .L18
 1877 137a 0CAE 3C6F 	cmp.l #1013972991,-24(%fp)
 1877      FFFF FFE8 
 1878 1382 6E34      	jgt .L19
 1879 1384 2039 0000 	move.l one,%d0
 1879      0000 
 1880 138a 2239 0000 	move.l one+4,%d1
 1880      0000 
 1881 1390 206E 0008 	move.l 8(%fp),%a0
 1882 1394 226E 000C 	move.l 12(%fp),%a1
 1883 1398 2F01      	move.l %d1,-(%sp)
 1884 139a 2F00      	move.l %d0,-(%sp)
 1885 139c F21F 5400 	fmove.d (%sp)+,%fp0
 1886 13a0 2F09      	move.l %a1,-(%sp)
 1887 13a2 2F08      	move.l %a0,-(%sp)
 1888 13a4 F21F 5480 	fmove.d (%sp)+,%fp1
68K GAS   			page 36


 1889 13a8 F200 0428 	fsub.x %fp1,%fp0
 1890 13ac F227 7400 	fmove.d %fp0,-(%sp)
 1891 13b0 201F      	move.l (%sp)+,%d0
 1892 13b2 221F      	move.l (%sp)+,%d1
 1893 13b4 6000 1244 	jra .L17
 1894               	.L19:
 1895 13b8 206E 0008 	move.l 8(%fp),%a0
 1896 13bc 226E 000C 	move.l 12(%fp),%a1
 1897 13c0 202E 0008 	move.l 8(%fp),%d0
 1898 13c4 222E 000C 	move.l 12(%fp),%d1
 1899 13c8 2F09      	move.l %a1,-(%sp)
 1900 13ca 2F08      	move.l %a0,-(%sp)
 1901 13cc F21F 5400 	fmove.d (%sp)+,%fp0
 1902 13d0 2F01      	move.l %d1,-(%sp)
 1903 13d2 2F00      	move.l %d0,-(%sp)
 1904 13d4 F21F 5480 	fmove.d (%sp)+,%fp1
 1905 13d8 F200 0423 	fmul.x %fp1,%fp0
 1906 13dc F227 7400 	fmove.d %fp0,-(%sp)
 1907 13e0 201F      	move.l (%sp)+,%d0
 1908 13e2 221F      	move.l (%sp)+,%d1
 1909 13e4 2D40 FFB8 	move.l %d0,-72(%fp)
 1910 13e8 2D41 FFBC 	move.l %d1,-68(%fp)
 1911 13ec 206E FFB8 	move.l -72(%fp),%a0
 1912 13f0 226E FFBC 	move.l -68(%fp),%a1
 1913 13f4 2039 0000 	move.l pp4,%d0
 1913      0000 
 1914 13fa 2239 0000 	move.l pp4+4,%d1
 1914      0000 
 1915 1400 2F09      	move.l %a1,-(%sp)
 1916 1402 2F08      	move.l %a0,-(%sp)
 1917 1404 F21F 5400 	fmove.d (%sp)+,%fp0
 1918 1408 2F01      	move.l %d1,-(%sp)
 1919 140a 2F00      	move.l %d0,-(%sp)
 1920 140c F21F 5480 	fmove.d (%sp)+,%fp1
 1921 1410 F200 0423 	fmul.x %fp1,%fp0
 1922 1414 F227 7400 	fmove.d %fp0,-(%sp)
 1923 1418 201F      	move.l (%sp)+,%d0
 1924 141a 221F      	move.l (%sp)+,%d1
 1925 141c 2079 0000 	move.l pp3,%a0
 1925      0000 
 1926 1422 2279 0000 	move.l pp3+4,%a1
 1926      0000 
 1927 1428 2F01      	move.l %d1,-(%sp)
 1928 142a 2F00      	move.l %d0,-(%sp)
 1929 142c F21F 5400 	fmove.d (%sp)+,%fp0
 1930 1430 2F09      	move.l %a1,-(%sp)
 1931 1432 2F08      	move.l %a0,-(%sp)
 1932 1434 F21F 5480 	fmove.d (%sp)+,%fp1
 1933 1438 F200 0422 	fadd.x %fp1,%fp0
 1934 143c F227 7400 	fmove.d %fp0,-(%sp)
 1935 1440 201F      	move.l (%sp)+,%d0
 1936 1442 221F      	move.l (%sp)+,%d1
 1937 1444 206E FFB8 	move.l -72(%fp),%a0
 1938 1448 226E FFBC 	move.l -68(%fp),%a1
 1939 144c 2F01      	move.l %d1,-(%sp)
 1940 144e 2F00      	move.l %d0,-(%sp)
 1941 1450 F21F 5400 	fmove.d (%sp)+,%fp0
68K GAS   			page 37


 1942 1454 2F09      	move.l %a1,-(%sp)
 1943 1456 2F08      	move.l %a0,-(%sp)
 1944 1458 F21F 5480 	fmove.d (%sp)+,%fp1
 1945 145c F200 0423 	fmul.x %fp1,%fp0
 1946 1460 F227 7400 	fmove.d %fp0,-(%sp)
 1947 1464 201F      	move.l (%sp)+,%d0
 1948 1466 221F      	move.l (%sp)+,%d1
 1949 1468 2079 0000 	move.l pp2,%a0
 1949      0000 
 1950 146e 2279 0000 	move.l pp2+4,%a1
 1950      0000 
 1951 1474 2F01      	move.l %d1,-(%sp)
 1952 1476 2F00      	move.l %d0,-(%sp)
 1953 1478 F21F 5400 	fmove.d (%sp)+,%fp0
 1954 147c 2F09      	move.l %a1,-(%sp)
 1955 147e 2F08      	move.l %a0,-(%sp)
 1956 1480 F21F 5480 	fmove.d (%sp)+,%fp1
 1957 1484 F200 0422 	fadd.x %fp1,%fp0
 1958 1488 F227 7400 	fmove.d %fp0,-(%sp)
 1959 148c 201F      	move.l (%sp)+,%d0
 1960 148e 221F      	move.l (%sp)+,%d1
 1961 1490 206E FFB8 	move.l -72(%fp),%a0
 1962 1494 226E FFBC 	move.l -68(%fp),%a1
 1963 1498 2F01      	move.l %d1,-(%sp)
 1964 149a 2F00      	move.l %d0,-(%sp)
 1965 149c F21F 5400 	fmove.d (%sp)+,%fp0
 1966 14a0 2F09      	move.l %a1,-(%sp)
 1967 14a2 2F08      	move.l %a0,-(%sp)
 1968 14a4 F21F 5480 	fmove.d (%sp)+,%fp1
 1969 14a8 F200 0423 	fmul.x %fp1,%fp0
 1970 14ac F227 7400 	fmove.d %fp0,-(%sp)
 1971 14b0 201F      	move.l (%sp)+,%d0
 1972 14b2 221F      	move.l (%sp)+,%d1
 1973 14b4 2079 0000 	move.l pp1,%a0
 1973      0000 
 1974 14ba 2279 0000 	move.l pp1+4,%a1
 1974      0000 
 1975 14c0 2F01      	move.l %d1,-(%sp)
 1976 14c2 2F00      	move.l %d0,-(%sp)
 1977 14c4 F21F 5400 	fmove.d (%sp)+,%fp0
 1978 14c8 2F09      	move.l %a1,-(%sp)
 1979 14ca 2F08      	move.l %a0,-(%sp)
 1980 14cc F21F 5480 	fmove.d (%sp)+,%fp1
 1981 14d0 F200 0422 	fadd.x %fp1,%fp0
 1982 14d4 F227 7400 	fmove.d %fp0,-(%sp)
 1983 14d8 201F      	move.l (%sp)+,%d0
 1984 14da 221F      	move.l (%sp)+,%d1
 1985 14dc 206E FFB8 	move.l -72(%fp),%a0
 1986 14e0 226E FFBC 	move.l -68(%fp),%a1
 1987 14e4 2F01      	move.l %d1,-(%sp)
 1988 14e6 2F00      	move.l %d0,-(%sp)
 1989 14e8 F21F 5400 	fmove.d (%sp)+,%fp0
 1990 14ec 2F09      	move.l %a1,-(%sp)
 1991 14ee 2F08      	move.l %a0,-(%sp)
 1992 14f0 F21F 5480 	fmove.d (%sp)+,%fp1
 1993 14f4 F200 0423 	fmul.x %fp1,%fp0
 1994 14f8 F227 7400 	fmove.d %fp0,-(%sp)
68K GAS   			page 38


 1995 14fc 201F      	move.l (%sp)+,%d0
 1996 14fe 221F      	move.l (%sp)+,%d1
 1997 1500 2079 0000 	move.l pp0,%a0
 1997      0000 
 1998 1506 2279 0000 	move.l pp0+4,%a1
 1998      0000 
 1999 150c 2F01      	move.l %d1,-(%sp)
 2000 150e 2F00      	move.l %d0,-(%sp)
 2001 1510 F21F 5400 	fmove.d (%sp)+,%fp0
 2002 1514 2F09      	move.l %a1,-(%sp)
 2003 1516 2F08      	move.l %a0,-(%sp)
 2004 1518 F21F 5480 	fmove.d (%sp)+,%fp1
 2005 151c F200 0422 	fadd.x %fp1,%fp0
 2006 1520 F22E 7400 	fmove.d %fp0,-32(%fp)
 2006      FFE0 
 2007 1526 206E FFB8 	move.l -72(%fp),%a0
 2008 152a 226E FFBC 	move.l -68(%fp),%a1
 2009 152e 2039 0000 	move.l qq5,%d0
 2009      0000 
 2010 1534 2239 0000 	move.l qq5+4,%d1
 2010      0000 
 2011 153a 2F09      	move.l %a1,-(%sp)
 2012 153c 2F08      	move.l %a0,-(%sp)
 2013 153e F21F 5400 	fmove.d (%sp)+,%fp0
 2014 1542 2F01      	move.l %d1,-(%sp)
 2015 1544 2F00      	move.l %d0,-(%sp)
 2016 1546 F21F 5480 	fmove.d (%sp)+,%fp1
 2017 154a F200 0423 	fmul.x %fp1,%fp0
 2018 154e F227 7400 	fmove.d %fp0,-(%sp)
 2019 1552 201F      	move.l (%sp)+,%d0
 2020 1554 221F      	move.l (%sp)+,%d1
 2021 1556 2079 0000 	move.l qq4,%a0
 2021      0000 
 2022 155c 2279 0000 	move.l qq4+4,%a1
 2022      0000 
 2023 1562 2F01      	move.l %d1,-(%sp)
 2024 1564 2F00      	move.l %d0,-(%sp)
 2025 1566 F21F 5400 	fmove.d (%sp)+,%fp0
 2026 156a 2F09      	move.l %a1,-(%sp)
 2027 156c 2F08      	move.l %a0,-(%sp)
 2028 156e F21F 5480 	fmove.d (%sp)+,%fp1
 2029 1572 F200 0422 	fadd.x %fp1,%fp0
 2030 1576 F227 7400 	fmove.d %fp0,-(%sp)
 2031 157a 201F      	move.l (%sp)+,%d0
 2032 157c 221F      	move.l (%sp)+,%d1
 2033 157e 206E FFB8 	move.l -72(%fp),%a0
 2034 1582 226E FFBC 	move.l -68(%fp),%a1
 2035 1586 2F01      	move.l %d1,-(%sp)
 2036 1588 2F00      	move.l %d0,-(%sp)
 2037 158a F21F 5400 	fmove.d (%sp)+,%fp0
 2038 158e 2F09      	move.l %a1,-(%sp)
 2039 1590 2F08      	move.l %a0,-(%sp)
 2040 1592 F21F 5480 	fmove.d (%sp)+,%fp1
 2041 1596 F200 0423 	fmul.x %fp1,%fp0
 2042 159a F227 7400 	fmove.d %fp0,-(%sp)
 2043 159e 201F      	move.l (%sp)+,%d0
 2044 15a0 221F      	move.l (%sp)+,%d1
68K GAS   			page 39


 2045 15a2 2079 0000 	move.l qq3,%a0
 2045      0000 
 2046 15a8 2279 0000 	move.l qq3+4,%a1
 2046      0000 
 2047 15ae 2F01      	move.l %d1,-(%sp)
 2048 15b0 2F00      	move.l %d0,-(%sp)
 2049 15b2 F21F 5400 	fmove.d (%sp)+,%fp0
 2050 15b6 2F09      	move.l %a1,-(%sp)
 2051 15b8 2F08      	move.l %a0,-(%sp)
 2052 15ba F21F 5480 	fmove.d (%sp)+,%fp1
 2053 15be F200 0422 	fadd.x %fp1,%fp0
 2054 15c2 F227 7400 	fmove.d %fp0,-(%sp)
 2055 15c6 201F      	move.l (%sp)+,%d0
 2056 15c8 221F      	move.l (%sp)+,%d1
 2057 15ca 206E FFB8 	move.l -72(%fp),%a0
 2058 15ce 226E FFBC 	move.l -68(%fp),%a1
 2059 15d2 2F01      	move.l %d1,-(%sp)
 2060 15d4 2F00      	move.l %d0,-(%sp)
 2061 15d6 F21F 5400 	fmove.d (%sp)+,%fp0
 2062 15da 2F09      	move.l %a1,-(%sp)
 2063 15dc 2F08      	move.l %a0,-(%sp)
 2064 15de F21F 5480 	fmove.d (%sp)+,%fp1
 2065 15e2 F200 0423 	fmul.x %fp1,%fp0
 2066 15e6 F227 7400 	fmove.d %fp0,-(%sp)
 2067 15ea 201F      	move.l (%sp)+,%d0
 2068 15ec 221F      	move.l (%sp)+,%d1
 2069 15ee 2079 0000 	move.l qq2,%a0
 2069      0000 
 2070 15f4 2279 0000 	move.l qq2+4,%a1
 2070      0000 
 2071 15fa 2F01      	move.l %d1,-(%sp)
 2072 15fc 2F00      	move.l %d0,-(%sp)
 2073 15fe F21F 5400 	fmove.d (%sp)+,%fp0
 2074 1602 2F09      	move.l %a1,-(%sp)
 2075 1604 2F08      	move.l %a0,-(%sp)
 2076 1606 F21F 5480 	fmove.d (%sp)+,%fp1
 2077 160a F200 0422 	fadd.x %fp1,%fp0
 2078 160e F227 7400 	fmove.d %fp0,-(%sp)
 2079 1612 201F      	move.l (%sp)+,%d0
 2080 1614 221F      	move.l (%sp)+,%d1
 2081 1616 206E FFB8 	move.l -72(%fp),%a0
 2082 161a 226E FFBC 	move.l -68(%fp),%a1
 2083 161e 2F01      	move.l %d1,-(%sp)
 2084 1620 2F00      	move.l %d0,-(%sp)
 2085 1622 F21F 5400 	fmove.d (%sp)+,%fp0
 2086 1626 2F09      	move.l %a1,-(%sp)
 2087 1628 2F08      	move.l %a0,-(%sp)
 2088 162a F21F 5480 	fmove.d (%sp)+,%fp1
 2089 162e F200 0423 	fmul.x %fp1,%fp0
 2090 1632 F227 7400 	fmove.d %fp0,-(%sp)
 2091 1636 201F      	move.l (%sp)+,%d0
 2092 1638 221F      	move.l (%sp)+,%d1
 2093 163a 2079 0000 	move.l qq1,%a0
 2093      0000 
 2094 1640 2279 0000 	move.l qq1+4,%a1
 2094      0000 
 2095 1646 2F01      	move.l %d1,-(%sp)
68K GAS   			page 40


 2096 1648 2F00      	move.l %d0,-(%sp)
 2097 164a F21F 5400 	fmove.d (%sp)+,%fp0
 2098 164e 2F09      	move.l %a1,-(%sp)
 2099 1650 2F08      	move.l %a0,-(%sp)
 2100 1652 F21F 5480 	fmove.d (%sp)+,%fp1
 2101 1656 F200 0422 	fadd.x %fp1,%fp0
 2102 165a F227 7400 	fmove.d %fp0,-(%sp)
 2103 165e 201F      	move.l (%sp)+,%d0
 2104 1660 221F      	move.l (%sp)+,%d1
 2105 1662 206E FFB8 	move.l -72(%fp),%a0
 2106 1666 226E FFBC 	move.l -68(%fp),%a1
 2107 166a 2F01      	move.l %d1,-(%sp)
 2108 166c 2F00      	move.l %d0,-(%sp)
 2109 166e F21F 5400 	fmove.d (%sp)+,%fp0
 2110 1672 2F09      	move.l %a1,-(%sp)
 2111 1674 2F08      	move.l %a0,-(%sp)
 2112 1676 F21F 5480 	fmove.d (%sp)+,%fp1
 2113 167a F200 0423 	fmul.x %fp1,%fp0
 2114 167e F227 7400 	fmove.d %fp0,-(%sp)
 2115 1682 201F      	move.l (%sp)+,%d0
 2116 1684 221F      	move.l (%sp)+,%d1
 2117 1686 2079 0000 	move.l one,%a0
 2117      0000 
 2118 168c 2279 0000 	move.l one+4,%a1
 2118      0000 
 2119 1692 2F01      	move.l %d1,-(%sp)
 2120 1694 2F00      	move.l %d0,-(%sp)
 2121 1696 F21F 5400 	fmove.d (%sp)+,%fp0
 2122 169a 2F09      	move.l %a1,-(%sp)
 2123 169c 2F08      	move.l %a0,-(%sp)
 2124 169e F21F 5480 	fmove.d (%sp)+,%fp1
 2125 16a2 F200 0422 	fadd.x %fp1,%fp0
 2126 16a6 F22E 7400 	fmove.d %fp0,-40(%fp)
 2126      FFD8 
 2127 16ac F22E 5400 	fmove.d -32(%fp),%fp0
 2127      FFE0 
 2128 16b2 F22E 5420 	fdiv.d -40(%fp),%fp0
 2128      FFD8 
 2129 16b8 F22E 7400 	fmove.d %fp0,-48(%fp)
 2129      FFD0 
 2130 16be 0CAE 3FCF 	cmp.l #1070596095,-20(%fp)
 2130      FFFF FFEC 
 2131 16c6 6E6E      	jgt .L20
 2132 16c8 2079 0000 	move.l one,%a0
 2132      0000 
 2133 16ce 2279 0000 	move.l one+4,%a1
 2133      0000 
 2134 16d4 202E 0008 	move.l 8(%fp),%d0
 2135 16d8 222E 000C 	move.l 12(%fp),%d1
 2136 16dc 2F01      	move.l %d1,-(%sp)
 2137 16de 2F00      	move.l %d0,-(%sp)
 2138 16e0 F21F 5480 	fmove.d (%sp)+,%fp1
 2139 16e4 F22E 54A3 	fmul.d -48(%fp),%fp1
 2139      FFD0 
 2140 16ea F227 7480 	fmove.d %fp1,-(%sp)
 2141 16ee 201F      	move.l (%sp)+,%d0
 2142 16f0 221F      	move.l (%sp)+,%d1
68K GAS   			page 41


 2143 16f2 242E 0008 	move.l 8(%fp),%d2
 2144 16f6 262E 000C 	move.l 12(%fp),%d3
 2145 16fa 2F01      	move.l %d1,-(%sp)
 2146 16fc 2F00      	move.l %d0,-(%sp)
 2147 16fe F21F 5400 	fmove.d (%sp)+,%fp0
 2148 1702 2F03      	move.l %d3,-(%sp)
 2149 1704 2F02      	move.l %d2,-(%sp)
 2150 1706 F21F 5480 	fmove.d (%sp)+,%fp1
 2151 170a F200 0422 	fadd.x %fp1,%fp0
 2152 170e F227 7400 	fmove.d %fp0,-(%sp)
 2153 1712 201F      	move.l (%sp)+,%d0
 2154 1714 221F      	move.l (%sp)+,%d1
 2155 1716 2F09      	move.l %a1,-(%sp)
 2156 1718 2F08      	move.l %a0,-(%sp)
 2157 171a F21F 5400 	fmove.d (%sp)+,%fp0
 2158 171e 2F01      	move.l %d1,-(%sp)
 2159 1720 2F00      	move.l %d0,-(%sp)
 2160 1722 F21F 5480 	fmove.d (%sp)+,%fp1
 2161 1726 F200 0428 	fsub.x %fp1,%fp0
 2162 172a F227 7400 	fmove.d %fp0,-(%sp)
 2163 172e 201F      	move.l (%sp)+,%d0
 2164 1730 221F      	move.l (%sp)+,%d1
 2165 1732 6000 0EC6 	jra .L17
 2166               	.L20:
 2167 1736 202E 0008 	move.l 8(%fp),%d0
 2168 173a 222E 000C 	move.l 12(%fp),%d1
 2169 173e 2F01      	move.l %d1,-(%sp)
 2170 1740 2F00      	move.l %d0,-(%sp)
 2171 1742 F21F 5400 	fmove.d (%sp)+,%fp0
 2172 1746 F22E 5423 	fmul.d -48(%fp),%fp0
 2172      FFD0 
 2173 174c F22E 7400 	fmove.d %fp0,-32(%fp)
 2173      FFE0 
 2174 1752 202E 0008 	move.l 8(%fp),%d0
 2175 1756 222E 000C 	move.l 12(%fp),%d1
 2176 175a 2079 0000 	move.l half,%a0
 2176      0000 
 2177 1760 2279 0000 	move.l half+4,%a1
 2177      0000 
 2178 1766 2F01      	move.l %d1,-(%sp)
 2179 1768 2F00      	move.l %d0,-(%sp)
 2180 176a F21F 5480 	fmove.d (%sp)+,%fp1
 2181 176e 2F09      	move.l %a1,-(%sp)
 2182 1770 2F08      	move.l %a0,-(%sp)
 2183 1772 F21F 5400 	fmove.d (%sp)+,%fp0
 2184 1776 F200 00A8 	fsub.x %fp0,%fp1
 2185 177a F227 7480 	fmove.d %fp1,-(%sp)
 2186 177e 201F      	move.l (%sp)+,%d0
 2187 1780 221F      	move.l (%sp)+,%d1
 2188 1782 2F01      	move.l %d1,-(%sp)
 2189 1784 2F00      	move.l %d0,-(%sp)
 2190 1786 F21F 5480 	fmove.d (%sp)+,%fp1
 2191 178a F22E 54A2 	fadd.d -32(%fp),%fp1
 2191      FFE0 
 2192 1790 F22E 7480 	fmove.d %fp1,-32(%fp)
 2192      FFE0 
 2193 1796 2039 0000 	move.l half,%d0
68K GAS   			page 42


 2193      0000 
 2194 179c 2239 0000 	move.l half+4,%d1
 2194      0000 
 2195 17a2 2F01      	move.l %d1,-(%sp)
 2196 17a4 2F00      	move.l %d0,-(%sp)
 2197 17a6 F21F 5400 	fmove.d (%sp)+,%fp0
 2198 17aa F22E 5428 	fsub.d -32(%fp),%fp0
 2198      FFE0 
 2199 17b0 F227 7400 	fmove.d %fp0,-(%sp)
 2200 17b4 201F      	move.l (%sp)+,%d0
 2201 17b6 221F      	move.l (%sp)+,%d1
 2202 17b8 6000 0E40 	jra .L17
 2203               	.L18:
 2204 17bc 0CAE 3FF3 	cmp.l #1072955391,-24(%fp)
 2204      FFFF FFE8 
 2205 17c4 6E00 0436 	jgt .L21
 2206 17c8 202E 0008 	move.l 8(%fp),%d0
 2207 17cc 222E 000C 	move.l 12(%fp),%d1
 2208 17d0 2F01      	move.l %d1,-(%sp)
 2209 17d2 2F00      	move.l %d0,-(%sp)
 2210 17d4 4EB9 0000 	jsr fabs
 2210      0000 
 2211 17da 508F      	addq.l #8,%sp
 2212 17dc F227 7400 	fmove.d %fp0,-(%sp)
 2213 17e0 201F      	move.l (%sp)+,%d0
 2214 17e2 221F      	move.l (%sp)+,%d1
 2215 17e4 2079 0000 	move.l one,%a0
 2215      0000 
 2216 17ea 2279 0000 	move.l one+4,%a1
 2216      0000 
 2217 17f0 2F01      	move.l %d1,-(%sp)
 2218 17f2 2F00      	move.l %d0,-(%sp)
 2219 17f4 F21F 5480 	fmove.d (%sp)+,%fp1
 2220 17f8 2F09      	move.l %a1,-(%sp)
 2221 17fa 2F08      	move.l %a0,-(%sp)
 2222 17fc F21F 5400 	fmove.d (%sp)+,%fp0
 2223 1800 F200 00A8 	fsub.x %fp0,%fp1
 2224 1804 F22E 7480 	fmove.d %fp1,-40(%fp)
 2224      FFD8 
 2225 180a 2039 0000 	move.l pa6,%d0
 2225      0000 
 2226 1810 2239 0000 	move.l pa6+4,%d1
 2226      0000 
 2227 1816 2F01      	move.l %d1,-(%sp)
 2228 1818 2F00      	move.l %d0,-(%sp)
 2229 181a F21F 5480 	fmove.d (%sp)+,%fp1
 2230 181e F22E 54A3 	fmul.d -40(%fp),%fp1
 2230      FFD8 
 2231 1824 F227 7480 	fmove.d %fp1,-(%sp)
 2232 1828 201F      	move.l (%sp)+,%d0
 2233 182a 221F      	move.l (%sp)+,%d1
 2234 182c 2079 0000 	move.l pa5,%a0
 2234      0000 
 2235 1832 2279 0000 	move.l pa5+4,%a1
 2235      0000 
 2236 1838 2F01      	move.l %d1,-(%sp)
 2237 183a 2F00      	move.l %d0,-(%sp)
68K GAS   			page 43


 2238 183c F21F 5400 	fmove.d (%sp)+,%fp0
 2239 1840 2F09      	move.l %a1,-(%sp)
 2240 1842 2F08      	move.l %a0,-(%sp)
 2241 1844 F21F 5480 	fmove.d (%sp)+,%fp1
 2242 1848 F200 0422 	fadd.x %fp1,%fp0
 2243 184c F227 7400 	fmove.d %fp0,-(%sp)
 2244 1850 201F      	move.l (%sp)+,%d0
 2245 1852 221F      	move.l (%sp)+,%d1
 2246 1854 2F01      	move.l %d1,-(%sp)
 2247 1856 2F00      	move.l %d0,-(%sp)
 2248 1858 F21F 5400 	fmove.d (%sp)+,%fp0
 2249 185c F22E 5423 	fmul.d -40(%fp),%fp0
 2249      FFD8 
 2250 1862 F227 7400 	fmove.d %fp0,-(%sp)
 2251 1866 201F      	move.l (%sp)+,%d0
 2252 1868 221F      	move.l (%sp)+,%d1
 2253 186a 2079 0000 	move.l pa4,%a0
 2253      0000 
 2254 1870 2279 0000 	move.l pa4+4,%a1
 2254      0000 
 2255 1876 2F01      	move.l %d1,-(%sp)
 2256 1878 2F00      	move.l %d0,-(%sp)
 2257 187a F21F 5480 	fmove.d (%sp)+,%fp1
 2258 187e 2F09      	move.l %a1,-(%sp)
 2259 1880 2F08      	move.l %a0,-(%sp)
 2260 1882 F21F 5400 	fmove.d (%sp)+,%fp0
 2261 1886 F200 00A2 	fadd.x %fp0,%fp1
 2262 188a F227 7480 	fmove.d %fp1,-(%sp)
 2263 188e 201F      	move.l (%sp)+,%d0
 2264 1890 221F      	move.l (%sp)+,%d1
 2265 1892 2F01      	move.l %d1,-(%sp)
 2266 1894 2F00      	move.l %d0,-(%sp)
 2267 1896 F21F 5480 	fmove.d (%sp)+,%fp1
 2268 189a F22E 54A3 	fmul.d -40(%fp),%fp1
 2268      FFD8 
 2269 18a0 F227 7480 	fmove.d %fp1,-(%sp)
 2270 18a4 201F      	move.l (%sp)+,%d0
 2271 18a6 221F      	move.l (%sp)+,%d1
 2272 18a8 2079 0000 	move.l pa3,%a0
 2272      0000 
 2273 18ae 2279 0000 	move.l pa3+4,%a1
 2273      0000 
 2274 18b4 2F01      	move.l %d1,-(%sp)
 2275 18b6 2F00      	move.l %d0,-(%sp)
 2276 18b8 F21F 5400 	fmove.d (%sp)+,%fp0
 2277 18bc 2F09      	move.l %a1,-(%sp)
 2278 18be 2F08      	move.l %a0,-(%sp)
 2279 18c0 F21F 5480 	fmove.d (%sp)+,%fp1
 2280 18c4 F200 0422 	fadd.x %fp1,%fp0
 2281 18c8 F227 7400 	fmove.d %fp0,-(%sp)
 2282 18cc 201F      	move.l (%sp)+,%d0
 2283 18ce 221F      	move.l (%sp)+,%d1
 2284 18d0 2F01      	move.l %d1,-(%sp)
 2285 18d2 2F00      	move.l %d0,-(%sp)
 2286 18d4 F21F 5400 	fmove.d (%sp)+,%fp0
 2287 18d8 F22E 5423 	fmul.d -40(%fp),%fp0
 2287      FFD8 
68K GAS   			page 44


 2288 18de F227 7400 	fmove.d %fp0,-(%sp)
 2289 18e2 201F      	move.l (%sp)+,%d0
 2290 18e4 221F      	move.l (%sp)+,%d1
 2291 18e6 2079 0000 	move.l pa2,%a0
 2291      0000 
 2292 18ec 2279 0000 	move.l pa2+4,%a1
 2292      0000 
 2293 18f2 2F01      	move.l %d1,-(%sp)
 2294 18f4 2F00      	move.l %d0,-(%sp)
 2295 18f6 F21F 5480 	fmove.d (%sp)+,%fp1
 2296 18fa 2F09      	move.l %a1,-(%sp)
 2297 18fc 2F08      	move.l %a0,-(%sp)
 2298 18fe F21F 5400 	fmove.d (%sp)+,%fp0
 2299 1902 F200 00A2 	fadd.x %fp0,%fp1
 2300 1906 F227 7480 	fmove.d %fp1,-(%sp)
 2301 190a 201F      	move.l (%sp)+,%d0
 2302 190c 221F      	move.l (%sp)+,%d1
 2303 190e 2F01      	move.l %d1,-(%sp)
 2304 1910 2F00      	move.l %d0,-(%sp)
 2305 1912 F21F 5480 	fmove.d (%sp)+,%fp1
 2306 1916 F22E 54A3 	fmul.d -40(%fp),%fp1
 2306      FFD8 
 2307 191c F227 7480 	fmove.d %fp1,-(%sp)
 2308 1920 201F      	move.l (%sp)+,%d0
 2309 1922 221F      	move.l (%sp)+,%d1
 2310 1924 2079 0000 	move.l pa1,%a0
 2310      0000 
 2311 192a 2279 0000 	move.l pa1+4,%a1
 2311      0000 
 2312 1930 2F01      	move.l %d1,-(%sp)
 2313 1932 2F00      	move.l %d0,-(%sp)
 2314 1934 F21F 5400 	fmove.d (%sp)+,%fp0
 2315 1938 2F09      	move.l %a1,-(%sp)
 2316 193a 2F08      	move.l %a0,-(%sp)
 2317 193c F21F 5480 	fmove.d (%sp)+,%fp1
 2318 1940 F200 0422 	fadd.x %fp1,%fp0
 2319 1944 F227 7400 	fmove.d %fp0,-(%sp)
 2320 1948 201F      	move.l (%sp)+,%d0
 2321 194a 221F      	move.l (%sp)+,%d1
 2322 194c 2F01      	move.l %d1,-(%sp)
 2323 194e 2F00      	move.l %d0,-(%sp)
 2324 1950 F21F 5400 	fmove.d (%sp)+,%fp0
 2325 1954 F22E 5423 	fmul.d -40(%fp),%fp0
 2325      FFD8 
 2326 195a F227 7400 	fmove.d %fp0,-(%sp)
 2327 195e 201F      	move.l (%sp)+,%d0
 2328 1960 221F      	move.l (%sp)+,%d1
 2329 1962 2079 0000 	move.l pa0,%a0
 2329      0000 
 2330 1968 2279 0000 	move.l pa0+4,%a1
 2330      0000 
 2331 196e 2F01      	move.l %d1,-(%sp)
 2332 1970 2F00      	move.l %d0,-(%sp)
 2333 1972 F21F 5480 	fmove.d (%sp)+,%fp1
 2334 1976 2F09      	move.l %a1,-(%sp)
 2335 1978 2F08      	move.l %a0,-(%sp)
 2336 197a F21F 5400 	fmove.d (%sp)+,%fp0
68K GAS   			page 45


 2337 197e F200 00A2 	fadd.x %fp0,%fp1
 2338 1982 F22E 7480 	fmove.d %fp1,-56(%fp)
 2338      FFC8 
 2339 1988 2039 0000 	move.l qa6,%d0
 2339      0000 
 2340 198e 2239 0000 	move.l qa6+4,%d1
 2340      0000 
 2341 1994 2F01      	move.l %d1,-(%sp)
 2342 1996 2F00      	move.l %d0,-(%sp)
 2343 1998 F21F 5480 	fmove.d (%sp)+,%fp1
 2344 199c F22E 54A3 	fmul.d -40(%fp),%fp1
 2344      FFD8 
 2345 19a2 F227 7480 	fmove.d %fp1,-(%sp)
 2346 19a6 201F      	move.l (%sp)+,%d0
 2347 19a8 221F      	move.l (%sp)+,%d1
 2348 19aa 2079 0000 	move.l qa5,%a0
 2348      0000 
 2349 19b0 2279 0000 	move.l qa5+4,%a1
 2349      0000 
 2350 19b6 2F01      	move.l %d1,-(%sp)
 2351 19b8 2F00      	move.l %d0,-(%sp)
 2352 19ba F21F 5400 	fmove.d (%sp)+,%fp0
 2353 19be 2F09      	move.l %a1,-(%sp)
 2354 19c0 2F08      	move.l %a0,-(%sp)
 2355 19c2 F21F 5480 	fmove.d (%sp)+,%fp1
 2356 19c6 F200 0422 	fadd.x %fp1,%fp0
 2357 19ca F227 7400 	fmove.d %fp0,-(%sp)
 2358 19ce 201F      	move.l (%sp)+,%d0
 2359 19d0 221F      	move.l (%sp)+,%d1
 2360 19d2 2F01      	move.l %d1,-(%sp)
 2361 19d4 2F00      	move.l %d0,-(%sp)
 2362 19d6 F21F 5400 	fmove.d (%sp)+,%fp0
 2363 19da F22E 5423 	fmul.d -40(%fp),%fp0
 2363      FFD8 
 2364 19e0 F227 7400 	fmove.d %fp0,-(%sp)
 2365 19e4 201F      	move.l (%sp)+,%d0
 2366 19e6 221F      	move.l (%sp)+,%d1
 2367 19e8 2079 0000 	move.l qa4,%a0
 2367      0000 
 2368 19ee 2279 0000 	move.l qa4+4,%a1
 2368      0000 
 2369 19f4 2F01      	move.l %d1,-(%sp)
 2370 19f6 2F00      	move.l %d0,-(%sp)
 2371 19f8 F21F 5480 	fmove.d (%sp)+,%fp1
 2372 19fc 2F09      	move.l %a1,-(%sp)
 2373 19fe 2F08      	move.l %a0,-(%sp)
 2374 1a00 F21F 5400 	fmove.d (%sp)+,%fp0
 2375 1a04 F200 00A2 	fadd.x %fp0,%fp1
 2376 1a08 F227 7480 	fmove.d %fp1,-(%sp)
 2377 1a0c 201F      	move.l (%sp)+,%d0
 2378 1a0e 221F      	move.l (%sp)+,%d1
 2379 1a10 2F01      	move.l %d1,-(%sp)
 2380 1a12 2F00      	move.l %d0,-(%sp)
 2381 1a14 F21F 5480 	fmove.d (%sp)+,%fp1
 2382 1a18 F22E 54A3 	fmul.d -40(%fp),%fp1
 2382      FFD8 
 2383 1a1e F227 7480 	fmove.d %fp1,-(%sp)
68K GAS   			page 46


 2384 1a22 201F      	move.l (%sp)+,%d0
 2385 1a24 221F      	move.l (%sp)+,%d1
 2386 1a26 2079 0000 	move.l qa3,%a0
 2386      0000 
 2387 1a2c 2279 0000 	move.l qa3+4,%a1
 2387      0000 
 2388 1a32 2F01      	move.l %d1,-(%sp)
 2389 1a34 2F00      	move.l %d0,-(%sp)
 2390 1a36 F21F 5400 	fmove.d (%sp)+,%fp0
 2391 1a3a 2F09      	move.l %a1,-(%sp)
 2392 1a3c 2F08      	move.l %a0,-(%sp)
 2393 1a3e F21F 5480 	fmove.d (%sp)+,%fp1
 2394 1a42 F200 0422 	fadd.x %fp1,%fp0
 2395 1a46 F227 7400 	fmove.d %fp0,-(%sp)
 2396 1a4a 201F      	move.l (%sp)+,%d0
 2397 1a4c 221F      	move.l (%sp)+,%d1
 2398 1a4e 2F01      	move.l %d1,-(%sp)
 2399 1a50 2F00      	move.l %d0,-(%sp)
 2400 1a52 F21F 5400 	fmove.d (%sp)+,%fp0
 2401 1a56 F22E 5423 	fmul.d -40(%fp),%fp0
 2401      FFD8 
 2402 1a5c F227 7400 	fmove.d %fp0,-(%sp)
 2403 1a60 201F      	move.l (%sp)+,%d0
 2404 1a62 221F      	move.l (%sp)+,%d1
 2405 1a64 2079 0000 	move.l qa2,%a0
 2405      0000 
 2406 1a6a 2279 0000 	move.l qa2+4,%a1
 2406      0000 
 2407 1a70 2F01      	move.l %d1,-(%sp)
 2408 1a72 2F00      	move.l %d0,-(%sp)
 2409 1a74 F21F 5480 	fmove.d (%sp)+,%fp1
 2410 1a78 2F09      	move.l %a1,-(%sp)
 2411 1a7a 2F08      	move.l %a0,-(%sp)
 2412 1a7c F21F 5400 	fmove.d (%sp)+,%fp0
 2413 1a80 F200 00A2 	fadd.x %fp0,%fp1
 2414 1a84 F227 7480 	fmove.d %fp1,-(%sp)
 2415 1a88 201F      	move.l (%sp)+,%d0
 2416 1a8a 221F      	move.l (%sp)+,%d1
 2417 1a8c 2F01      	move.l %d1,-(%sp)
 2418 1a8e 2F00      	move.l %d0,-(%sp)
 2419 1a90 F21F 5480 	fmove.d (%sp)+,%fp1
 2420 1a94 F22E 54A3 	fmul.d -40(%fp),%fp1
 2420      FFD8 
 2421 1a9a F227 7480 	fmove.d %fp1,-(%sp)
 2422 1a9e 201F      	move.l (%sp)+,%d0
 2423 1aa0 221F      	move.l (%sp)+,%d1
 2424 1aa2 2079 0000 	move.l qa1,%a0
 2424      0000 
 2425 1aa8 2279 0000 	move.l qa1+4,%a1
 2425      0000 
 2426 1aae 2F01      	move.l %d1,-(%sp)
 2427 1ab0 2F00      	move.l %d0,-(%sp)
 2428 1ab2 F21F 5400 	fmove.d (%sp)+,%fp0
 2429 1ab6 2F09      	move.l %a1,-(%sp)
 2430 1ab8 2F08      	move.l %a0,-(%sp)
 2431 1aba F21F 5480 	fmove.d (%sp)+,%fp1
 2432 1abe F200 0422 	fadd.x %fp1,%fp0
68K GAS   			page 47


 2433 1ac2 F227 7400 	fmove.d %fp0,-(%sp)
 2434 1ac6 201F      	move.l (%sp)+,%d0
 2435 1ac8 221F      	move.l (%sp)+,%d1
 2436 1aca 2F01      	move.l %d1,-(%sp)
 2437 1acc 2F00      	move.l %d0,-(%sp)
 2438 1ace F21F 5400 	fmove.d (%sp)+,%fp0
 2439 1ad2 F22E 5423 	fmul.d -40(%fp),%fp0
 2439      FFD8 
 2440 1ad8 F227 7400 	fmove.d %fp0,-(%sp)
 2441 1adc 201F      	move.l (%sp)+,%d0
 2442 1ade 221F      	move.l (%sp)+,%d1
 2443 1ae0 2079 0000 	move.l one,%a0
 2443      0000 
 2444 1ae6 2279 0000 	move.l one+4,%a1
 2444      0000 
 2445 1aec 2F01      	move.l %d1,-(%sp)
 2446 1aee 2F00      	move.l %d0,-(%sp)
 2447 1af0 F21F 5480 	fmove.d (%sp)+,%fp1
 2448 1af4 2F09      	move.l %a1,-(%sp)
 2449 1af6 2F08      	move.l %a0,-(%sp)
 2450 1af8 F21F 5400 	fmove.d (%sp)+,%fp0
 2451 1afc F200 00A2 	fadd.x %fp0,%fp1
 2452 1b00 F22E 7480 	fmove.d %fp1,-64(%fp)
 2452      FFC0 
 2453 1b06 4AAE FFEC 	tst.l -20(%fp)
 2454 1b0a 6D78      	jlt .L22
 2455 1b0c 2039 0000 	move.l one,%d0
 2455      0000 
 2456 1b12 2239 0000 	move.l one+4,%d1
 2456      0000 
 2457 1b18 2079 0000 	move.l erx,%a0
 2457      0000 
 2458 1b1e 2279 0000 	move.l erx+4,%a1
 2458      0000 
 2459 1b24 2F01      	move.l %d1,-(%sp)
 2460 1b26 2F00      	move.l %d0,-(%sp)
 2461 1b28 F21F 5480 	fmove.d (%sp)+,%fp1
 2462 1b2c 2F09      	move.l %a1,-(%sp)
 2463 1b2e 2F08      	move.l %a0,-(%sp)
 2464 1b30 F21F 5400 	fmove.d (%sp)+,%fp0
 2465 1b34 F200 00A8 	fsub.x %fp0,%fp1
 2466 1b38 F227 7480 	fmove.d %fp1,-(%sp)
 2467 1b3c 201F      	move.l (%sp)+,%d0
 2468 1b3e 221F      	move.l (%sp)+,%d1
 2469 1b40 2D40 FFB8 	move.l %d0,-72(%fp)
 2470 1b44 2D41 FFBC 	move.l %d1,-68(%fp)
 2471 1b48 206E FFB8 	move.l -72(%fp),%a0
 2472 1b4c 226E FFBC 	move.l -68(%fp),%a1
 2473 1b50 F22E 5480 	fmove.d -56(%fp),%fp1
 2473      FFC8 
 2474 1b56 F22E 54A0 	fdiv.d -64(%fp),%fp1
 2474      FFC0 
 2475 1b5c F227 7480 	fmove.d %fp1,-(%sp)
 2476 1b60 201F      	move.l (%sp)+,%d0
 2477 1b62 221F      	move.l (%sp)+,%d1
 2478 1b64 2F09      	move.l %a1,-(%sp)
 2479 1b66 2F08      	move.l %a0,-(%sp)
68K GAS   			page 48


 2480 1b68 F21F 5400 	fmove.d (%sp)+,%fp0
 2481 1b6c 2F01      	move.l %d1,-(%sp)
 2482 1b6e 2F00      	move.l %d0,-(%sp)
 2483 1b70 F21F 5480 	fmove.d (%sp)+,%fp1
 2484 1b74 F200 0428 	fsub.x %fp1,%fp0
 2485 1b78 F227 7400 	fmove.d %fp0,-(%sp)
 2486 1b7c 201F      	move.l (%sp)+,%d0
 2487 1b7e 221F      	move.l (%sp)+,%d1
 2488 1b80 6000 0A78 	jra .L17
 2489               	.L22:
 2490 1b84 F22E 5400 	fmove.d -56(%fp),%fp0
 2490      FFC8 
 2491 1b8a F22E 5420 	fdiv.d -64(%fp),%fp0
 2491      FFC0 
 2492 1b90 F227 7400 	fmove.d %fp0,-(%sp)
 2493 1b94 201F      	move.l (%sp)+,%d0
 2494 1b96 221F      	move.l (%sp)+,%d1
 2495 1b98 2079 0000 	move.l erx,%a0
 2495      0000 
 2496 1b9e 2279 0000 	move.l erx+4,%a1
 2496      0000 
 2497 1ba4 2F01      	move.l %d1,-(%sp)
 2498 1ba6 2F00      	move.l %d0,-(%sp)
 2499 1ba8 F21F 5480 	fmove.d (%sp)+,%fp1
 2500 1bac 2F09      	move.l %a1,-(%sp)
 2501 1bae 2F08      	move.l %a0,-(%sp)
 2502 1bb0 F21F 5400 	fmove.d (%sp)+,%fp0
 2503 1bb4 F200 00A2 	fadd.x %fp0,%fp1
 2504 1bb8 F227 7480 	fmove.d %fp1,-(%sp)
 2505 1bbc 201F      	move.l (%sp)+,%d0
 2506 1bbe 221F      	move.l (%sp)+,%d1
 2507 1bc0 2D40 FFB8 	move.l %d0,-72(%fp)
 2508 1bc4 2D41 FFBC 	move.l %d1,-68(%fp)
 2509 1bc8 2079 0000 	move.l one,%a0
 2509      0000 
 2510 1bce 2279 0000 	move.l one+4,%a1
 2510      0000 
 2511 1bd4 202E FFB8 	move.l -72(%fp),%d0
 2512 1bd8 222E FFBC 	move.l -68(%fp),%d1
 2513 1bdc 2F09      	move.l %a1,-(%sp)
 2514 1bde 2F08      	move.l %a0,-(%sp)
 2515 1be0 F21F 5480 	fmove.d (%sp)+,%fp1
 2516 1be4 2F01      	move.l %d1,-(%sp)
 2517 1be6 2F00      	move.l %d0,-(%sp)
 2518 1be8 F21F 5400 	fmove.d (%sp)+,%fp0
 2519 1bec F200 00A2 	fadd.x %fp0,%fp1
 2520 1bf0 F227 7480 	fmove.d %fp1,-(%sp)
 2521 1bf4 201F      	move.l (%sp)+,%d0
 2522 1bf6 221F      	move.l (%sp)+,%d1
 2523 1bf8 6000 0A00 	jra .L17
 2524               	.L21:
 2525 1bfc 0CAE 403B 	cmp.l #1077673983,-24(%fp)
 2525      FFFF FFE8 
 2526 1c04 6E00 0984 	jgt .L23
 2527 1c08 202E 0008 	move.l 8(%fp),%d0
 2528 1c0c 222E 000C 	move.l 12(%fp),%d1
 2529 1c10 2F01      	move.l %d1,-(%sp)
68K GAS   			page 49


 2530 1c12 2F00      	move.l %d0,-(%sp)
 2531 1c14 4EB9 0000 	jsr fabs
 2531      0000 
 2532 1c1a 508F      	addq.l #8,%sp
 2533 1c1c F227 7400 	fmove.d %fp0,-(%sp)
 2534 1c20 201F      	move.l (%sp)+,%d0
 2535 1c22 221F      	move.l (%sp)+,%d1
 2536 1c24 2D40 0008 	move.l %d0,8(%fp)
 2537 1c28 2D41 000C 	move.l %d1,12(%fp)
 2538 1c2c 2079 0000 	move.l one,%a0
 2538      0000 
 2539 1c32 2279 0000 	move.l one+4,%a1
 2539      0000 
 2540 1c38 242E 0008 	move.l 8(%fp),%d2
 2541 1c3c 262E 000C 	move.l 12(%fp),%d3
 2542 1c40 202E 0008 	move.l 8(%fp),%d0
 2543 1c44 222E 000C 	move.l 12(%fp),%d1
 2544 1c48 2F03      	move.l %d3,-(%sp)
 2545 1c4a 2F02      	move.l %d2,-(%sp)
 2546 1c4c F21F 5480 	fmove.d (%sp)+,%fp1
 2547 1c50 2F01      	move.l %d1,-(%sp)
 2548 1c52 2F00      	move.l %d0,-(%sp)
 2549 1c54 F21F 5400 	fmove.d (%sp)+,%fp0
 2550 1c58 F200 00A3 	fmul.x %fp0,%fp1
 2551 1c5c F227 7480 	fmove.d %fp1,-(%sp)
 2552 1c60 201F      	move.l (%sp)+,%d0
 2553 1c62 221F      	move.l (%sp)+,%d1
 2554 1c64 2F09      	move.l %a1,-(%sp)
 2555 1c66 2F08      	move.l %a0,-(%sp)
 2556 1c68 F21F 5480 	fmove.d (%sp)+,%fp1
 2557 1c6c 2F01      	move.l %d1,-(%sp)
 2558 1c6e 2F00      	move.l %d0,-(%sp)
 2559 1c70 F21F 5400 	fmove.d (%sp)+,%fp0
 2560 1c74 F200 00A0 	fdiv.x %fp0,%fp1
 2561 1c78 F22E 7480 	fmove.d %fp1,-40(%fp)
 2561      FFD8 
 2562 1c7e 0CAE 4006 	cmp.l #1074191212,-24(%fp)
 2562      DB6C FFE8 
 2563 1c86 6E00 03BC 	jgt .L24
 2564 1c8a 2039 0000 	move.l ra7,%d0
 2564      0000 
 2565 1c90 2239 0000 	move.l ra7+4,%d1
 2565      0000 
 2566 1c96 2F01      	move.l %d1,-(%sp)
 2567 1c98 2F00      	move.l %d0,-(%sp)
 2568 1c9a F21F 5480 	fmove.d (%sp)+,%fp1
 2569 1c9e F22E 54A3 	fmul.d -40(%fp),%fp1
 2569      FFD8 
 2570 1ca4 F227 7480 	fmove.d %fp1,-(%sp)
 2571 1ca8 201F      	move.l (%sp)+,%d0
 2572 1caa 221F      	move.l (%sp)+,%d1
 2573 1cac 2079 0000 	move.l ra6,%a0
 2573      0000 
 2574 1cb2 2279 0000 	move.l ra6+4,%a1
 2574      0000 
 2575 1cb8 2F01      	move.l %d1,-(%sp)
 2576 1cba 2F00      	move.l %d0,-(%sp)
68K GAS   			page 50


 2577 1cbc F21F 5400 	fmove.d (%sp)+,%fp0
 2578 1cc0 2F09      	move.l %a1,-(%sp)
 2579 1cc2 2F08      	move.l %a0,-(%sp)
 2580 1cc4 F21F 5480 	fmove.d (%sp)+,%fp1
 2581 1cc8 F200 0422 	fadd.x %fp1,%fp0
 2582 1ccc F227 7400 	fmove.d %fp0,-(%sp)
 2583 1cd0 201F      	move.l (%sp)+,%d0
 2584 1cd2 221F      	move.l (%sp)+,%d1
 2585 1cd4 2F01      	move.l %d1,-(%sp)
 2586 1cd6 2F00      	move.l %d0,-(%sp)
 2587 1cd8 F21F 5400 	fmove.d (%sp)+,%fp0
 2588 1cdc F22E 5423 	fmul.d -40(%fp),%fp0
 2588      FFD8 
 2589 1ce2 F227 7400 	fmove.d %fp0,-(%sp)
 2590 1ce6 201F      	move.l (%sp)+,%d0
 2591 1ce8 221F      	move.l (%sp)+,%d1
 2592 1cea 2079 0000 	move.l ra5,%a0
 2592      0000 
 2593 1cf0 2279 0000 	move.l ra5+4,%a1
 2593      0000 
 2594 1cf6 2F01      	move.l %d1,-(%sp)
 2595 1cf8 2F00      	move.l %d0,-(%sp)
 2596 1cfa F21F 5480 	fmove.d (%sp)+,%fp1
 2597 1cfe 2F09      	move.l %a1,-(%sp)
 2598 1d00 2F08      	move.l %a0,-(%sp)
 2599 1d02 F21F 5400 	fmove.d (%sp)+,%fp0
 2600 1d06 F200 00A2 	fadd.x %fp0,%fp1
 2601 1d0a F227 7480 	fmove.d %fp1,-(%sp)
 2602 1d0e 201F      	move.l (%sp)+,%d0
 2603 1d10 221F      	move.l (%sp)+,%d1
 2604 1d12 2F01      	move.l %d1,-(%sp)
 2605 1d14 2F00      	move.l %d0,-(%sp)
 2606 1d16 F21F 5480 	fmove.d (%sp)+,%fp1
 2607 1d1a F22E 54A3 	fmul.d -40(%fp),%fp1
 2607      FFD8 
 2608 1d20 F227 7480 	fmove.d %fp1,-(%sp)
 2609 1d24 201F      	move.l (%sp)+,%d0
 2610 1d26 221F      	move.l (%sp)+,%d1
 2611 1d28 2079 0000 	move.l ra4,%a0
 2611      0000 
 2612 1d2e 2279 0000 	move.l ra4+4,%a1
 2612      0000 
 2613 1d34 2F01      	move.l %d1,-(%sp)
 2614 1d36 2F00      	move.l %d0,-(%sp)
 2615 1d38 F21F 5400 	fmove.d (%sp)+,%fp0
 2616 1d3c 2F09      	move.l %a1,-(%sp)
 2617 1d3e 2F08      	move.l %a0,-(%sp)
 2618 1d40 F21F 5480 	fmove.d (%sp)+,%fp1
 2619 1d44 F200 0422 	fadd.x %fp1,%fp0
 2620 1d48 F227 7400 	fmove.d %fp0,-(%sp)
 2621 1d4c 201F      	move.l (%sp)+,%d0
 2622 1d4e 221F      	move.l (%sp)+,%d1
 2623 1d50 2F01      	move.l %d1,-(%sp)
 2624 1d52 2F00      	move.l %d0,-(%sp)
 2625 1d54 F21F 5400 	fmove.d (%sp)+,%fp0
 2626 1d58 F22E 5423 	fmul.d -40(%fp),%fp0
 2626      FFD8 
68K GAS   			page 51


 2627 1d5e F227 7400 	fmove.d %fp0,-(%sp)
 2628 1d62 201F      	move.l (%sp)+,%d0
 2629 1d64 221F      	move.l (%sp)+,%d1
 2630 1d66 2079 0000 	move.l ra3,%a0
 2630      0000 
 2631 1d6c 2279 0000 	move.l ra3+4,%a1
 2631      0000 
 2632 1d72 2F01      	move.l %d1,-(%sp)
 2633 1d74 2F00      	move.l %d0,-(%sp)
 2634 1d76 F21F 5480 	fmove.d (%sp)+,%fp1
 2635 1d7a 2F09      	move.l %a1,-(%sp)
 2636 1d7c 2F08      	move.l %a0,-(%sp)
 2637 1d7e F21F 5400 	fmove.d (%sp)+,%fp0
 2638 1d82 F200 00A2 	fadd.x %fp0,%fp1
 2639 1d86 F227 7480 	fmove.d %fp1,-(%sp)
 2640 1d8a 201F      	move.l (%sp)+,%d0
 2641 1d8c 221F      	move.l (%sp)+,%d1
 2642 1d8e 2F01      	move.l %d1,-(%sp)
 2643 1d90 2F00      	move.l %d0,-(%sp)
 2644 1d92 F21F 5480 	fmove.d (%sp)+,%fp1
 2645 1d96 F22E 54A3 	fmul.d -40(%fp),%fp1
 2645      FFD8 
 2646 1d9c F227 7480 	fmove.d %fp1,-(%sp)
 2647 1da0 201F      	move.l (%sp)+,%d0
 2648 1da2 221F      	move.l (%sp)+,%d1
 2649 1da4 2079 0000 	move.l ra2,%a0
 2649      0000 
 2650 1daa 2279 0000 	move.l ra2+4,%a1
 2650      0000 
 2651 1db0 2F01      	move.l %d1,-(%sp)
 2652 1db2 2F00      	move.l %d0,-(%sp)
 2653 1db4 F21F 5400 	fmove.d (%sp)+,%fp0
 2654 1db8 2F09      	move.l %a1,-(%sp)
 2655 1dba 2F08      	move.l %a0,-(%sp)
 2656 1dbc F21F 5480 	fmove.d (%sp)+,%fp1
 2657 1dc0 F200 0422 	fadd.x %fp1,%fp0
 2658 1dc4 F227 7400 	fmove.d %fp0,-(%sp)
 2659 1dc8 201F      	move.l (%sp)+,%d0
 2660 1dca 221F      	move.l (%sp)+,%d1
 2661 1dcc 2F01      	move.l %d1,-(%sp)
 2662 1dce 2F00      	move.l %d0,-(%sp)
 2663 1dd0 F21F 5400 	fmove.d (%sp)+,%fp0
 2664 1dd4 F22E 5423 	fmul.d -40(%fp),%fp0
 2664      FFD8 
 2665 1dda F227 7400 	fmove.d %fp0,-(%sp)
 2666 1dde 201F      	move.l (%sp)+,%d0
 2667 1de0 221F      	move.l (%sp)+,%d1
 2668 1de2 2079 0000 	move.l ra1,%a0
 2668      0000 
 2669 1de8 2279 0000 	move.l ra1+4,%a1
 2669      0000 
 2670 1dee 2F01      	move.l %d1,-(%sp)
 2671 1df0 2F00      	move.l %d0,-(%sp)
 2672 1df2 F21F 5480 	fmove.d (%sp)+,%fp1
 2673 1df6 2F09      	move.l %a1,-(%sp)
 2674 1df8 2F08      	move.l %a0,-(%sp)
 2675 1dfa F21F 5400 	fmove.d (%sp)+,%fp0
68K GAS   			page 52


 2676 1dfe F200 00A2 	fadd.x %fp0,%fp1
 2677 1e02 F227 7480 	fmove.d %fp1,-(%sp)
 2678 1e06 201F      	move.l (%sp)+,%d0
 2679 1e08 221F      	move.l (%sp)+,%d1
 2680 1e0a 2F01      	move.l %d1,-(%sp)
 2681 1e0c 2F00      	move.l %d0,-(%sp)
 2682 1e0e F21F 5480 	fmove.d (%sp)+,%fp1
 2683 1e12 F22E 54A3 	fmul.d -40(%fp),%fp1
 2683      FFD8 
 2684 1e18 F227 7480 	fmove.d %fp1,-(%sp)
 2685 1e1c 201F      	move.l (%sp)+,%d0
 2686 1e1e 221F      	move.l (%sp)+,%d1
 2687 1e20 2079 0000 	move.l ra0,%a0
 2687      0000 
 2688 1e26 2279 0000 	move.l ra0+4,%a1
 2688      0000 
 2689 1e2c 2F01      	move.l %d1,-(%sp)
 2690 1e2e 2F00      	move.l %d0,-(%sp)
 2691 1e30 F21F 5400 	fmove.d (%sp)+,%fp0
 2692 1e34 2F09      	move.l %a1,-(%sp)
 2693 1e36 2F08      	move.l %a0,-(%sp)
 2694 1e38 F21F 5480 	fmove.d (%sp)+,%fp1
 2695 1e3c F200 0422 	fadd.x %fp1,%fp0
 2696 1e40 F22E 7400 	fmove.d %fp0,-8(%fp)
 2696      FFF8 
 2697 1e46 2039 0000 	move.l sa8,%d0
 2697      0000 
 2698 1e4c 2239 0000 	move.l sa8+4,%d1
 2698      0000 
 2699 1e52 2F01      	move.l %d1,-(%sp)
 2700 1e54 2F00      	move.l %d0,-(%sp)
 2701 1e56 F21F 5400 	fmove.d (%sp)+,%fp0
 2702 1e5a F22E 5423 	fmul.d -40(%fp),%fp0
 2702      FFD8 
 2703 1e60 F227 7400 	fmove.d %fp0,-(%sp)
 2704 1e64 201F      	move.l (%sp)+,%d0
 2705 1e66 221F      	move.l (%sp)+,%d1
 2706 1e68 2079 0000 	move.l sa7,%a0
 2706      0000 
 2707 1e6e 2279 0000 	move.l sa7+4,%a1
 2707      0000 
 2708 1e74 2F01      	move.l %d1,-(%sp)
 2709 1e76 2F00      	move.l %d0,-(%sp)
 2710 1e78 F21F 5480 	fmove.d (%sp)+,%fp1
 2711 1e7c 2F09      	move.l %a1,-(%sp)
 2712 1e7e 2F08      	move.l %a0,-(%sp)
 2713 1e80 F21F 5400 	fmove.d (%sp)+,%fp0
 2714 1e84 F200 00A2 	fadd.x %fp0,%fp1
 2715 1e88 F227 7480 	fmove.d %fp1,-(%sp)
 2716 1e8c 201F      	move.l (%sp)+,%d0
 2717 1e8e 221F      	move.l (%sp)+,%d1
 2718 1e90 2F01      	move.l %d1,-(%sp)
 2719 1e92 2F00      	move.l %d0,-(%sp)
 2720 1e94 F21F 5480 	fmove.d (%sp)+,%fp1
 2721 1e98 F22E 54A3 	fmul.d -40(%fp),%fp1
 2721      FFD8 
 2722 1e9e F227 7480 	fmove.d %fp1,-(%sp)
68K GAS   			page 53


 2723 1ea2 201F      	move.l (%sp)+,%d0
 2724 1ea4 221F      	move.l (%sp)+,%d1
 2725 1ea6 2079 0000 	move.l sa6,%a0
 2725      0000 
 2726 1eac 2279 0000 	move.l sa6+4,%a1
 2726      0000 
 2727 1eb2 2F01      	move.l %d1,-(%sp)
 2728 1eb4 2F00      	move.l %d0,-(%sp)
 2729 1eb6 F21F 5400 	fmove.d (%sp)+,%fp0
 2730 1eba 2F09      	move.l %a1,-(%sp)
 2731 1ebc 2F08      	move.l %a0,-(%sp)
 2732 1ebe F21F 5480 	fmove.d (%sp)+,%fp1
 2733 1ec2 F200 0422 	fadd.x %fp1,%fp0
 2734 1ec6 F227 7400 	fmove.d %fp0,-(%sp)
 2735 1eca 201F      	move.l (%sp)+,%d0
 2736 1ecc 221F      	move.l (%sp)+,%d1
 2737 1ece 2F01      	move.l %d1,-(%sp)
 2738 1ed0 2F00      	move.l %d0,-(%sp)
 2739 1ed2 F21F 5400 	fmove.d (%sp)+,%fp0
 2740 1ed6 F22E 5423 	fmul.d -40(%fp),%fp0
 2740      FFD8 
 2741 1edc F227 7400 	fmove.d %fp0,-(%sp)
 2742 1ee0 201F      	move.l (%sp)+,%d0
 2743 1ee2 221F      	move.l (%sp)+,%d1
 2744 1ee4 2079 0000 	move.l sa5,%a0
 2744      0000 
 2745 1eea 2279 0000 	move.l sa5+4,%a1
 2745      0000 
 2746 1ef0 2F01      	move.l %d1,-(%sp)
 2747 1ef2 2F00      	move.l %d0,-(%sp)
 2748 1ef4 F21F 5480 	fmove.d (%sp)+,%fp1
 2749 1ef8 2F09      	move.l %a1,-(%sp)
 2750 1efa 2F08      	move.l %a0,-(%sp)
 2751 1efc F21F 5400 	fmove.d (%sp)+,%fp0
 2752 1f00 F200 00A2 	fadd.x %fp0,%fp1
 2753 1f04 F227 7480 	fmove.d %fp1,-(%sp)
 2754 1f08 201F      	move.l (%sp)+,%d0
 2755 1f0a 221F      	move.l (%sp)+,%d1
 2756 1f0c 2F01      	move.l %d1,-(%sp)
 2757 1f0e 2F00      	move.l %d0,-(%sp)
 2758 1f10 F21F 5480 	fmove.d (%sp)+,%fp1
 2759 1f14 F22E 54A3 	fmul.d -40(%fp),%fp1
 2759      FFD8 
 2760 1f1a F227 7480 	fmove.d %fp1,-(%sp)
 2761 1f1e 201F      	move.l (%sp)+,%d0
 2762 1f20 221F      	move.l (%sp)+,%d1
 2763 1f22 2079 0000 	move.l sa4,%a0
 2763      0000 
 2764 1f28 2279 0000 	move.l sa4+4,%a1
 2764      0000 
 2765 1f2e 2F01      	move.l %d1,-(%sp)
 2766 1f30 2F00      	move.l %d0,-(%sp)
 2767 1f32 F21F 5400 	fmove.d (%sp)+,%fp0
 2768 1f36 2F09      	move.l %a1,-(%sp)
 2769 1f38 2F08      	move.l %a0,-(%sp)
 2770 1f3a F21F 5480 	fmove.d (%sp)+,%fp1
 2771 1f3e F200 0422 	fadd.x %fp1,%fp0
68K GAS   			page 54


 2772 1f42 F227 7400 	fmove.d %fp0,-(%sp)
 2773 1f46 201F      	move.l (%sp)+,%d0
 2774 1f48 221F      	move.l (%sp)+,%d1
 2775 1f4a 2F01      	move.l %d1,-(%sp)
 2776 1f4c 2F00      	move.l %d0,-(%sp)
 2777 1f4e F21F 5400 	fmove.d (%sp)+,%fp0
 2778 1f52 F22E 5423 	fmul.d -40(%fp),%fp0
 2778      FFD8 
 2779 1f58 F227 7400 	fmove.d %fp0,-(%sp)
 2780 1f5c 201F      	move.l (%sp)+,%d0
 2781 1f5e 221F      	move.l (%sp)+,%d1
 2782 1f60 2079 0000 	move.l sa3,%a0
 2782      0000 
 2783 1f66 2279 0000 	move.l sa3+4,%a1
 2783      0000 
 2784 1f6c 2F01      	move.l %d1,-(%sp)
 2785 1f6e 2F00      	move.l %d0,-(%sp)
 2786 1f70 F21F 5480 	fmove.d (%sp)+,%fp1
 2787 1f74 2F09      	move.l %a1,-(%sp)
 2788 1f76 2F08      	move.l %a0,-(%sp)
 2789 1f78 F21F 5400 	fmove.d (%sp)+,%fp0
 2790 1f7c F200 00A2 	fadd.x %fp0,%fp1
 2791 1f80 F227 7480 	fmove.d %fp1,-(%sp)
 2792 1f84 201F      	move.l (%sp)+,%d0
 2793 1f86 221F      	move.l (%sp)+,%d1
 2794 1f88 2F01      	move.l %d1,-(%sp)
 2795 1f8a 2F00      	move.l %d0,-(%sp)
 2796 1f8c F21F 5480 	fmove.d (%sp)+,%fp1
 2797 1f90 F22E 54A3 	fmul.d -40(%fp),%fp1
 2797      FFD8 
 2798 1f96 F227 7480 	fmove.d %fp1,-(%sp)
 2799 1f9a 201F      	move.l (%sp)+,%d0
 2800 1f9c 221F      	move.l (%sp)+,%d1
 2801 1f9e 2079 0000 	move.l sa2,%a0
 2801      0000 
 2802 1fa4 2279 0000 	move.l sa2+4,%a1
 2802      0000 
 2803 1faa 2F01      	move.l %d1,-(%sp)
 2804 1fac 2F00      	move.l %d0,-(%sp)
 2805 1fae F21F 5400 	fmove.d (%sp)+,%fp0
 2806 1fb2 2F09      	move.l %a1,-(%sp)
 2807 1fb4 2F08      	move.l %a0,-(%sp)
 2808 1fb6 F21F 5480 	fmove.d (%sp)+,%fp1
 2809 1fba F200 0422 	fadd.x %fp1,%fp0
 2810 1fbe F227 7400 	fmove.d %fp0,-(%sp)
 2811 1fc2 201F      	move.l (%sp)+,%d0
 2812 1fc4 221F      	move.l (%sp)+,%d1
 2813 1fc6 2F01      	move.l %d1,-(%sp)
 2814 1fc8 2F00      	move.l %d0,-(%sp)
 2815 1fca F21F 5400 	fmove.d (%sp)+,%fp0
 2816 1fce F22E 5423 	fmul.d -40(%fp),%fp0
 2816      FFD8 
 2817 1fd4 F227 7400 	fmove.d %fp0,-(%sp)
 2818 1fd8 201F      	move.l (%sp)+,%d0
 2819 1fda 221F      	move.l (%sp)+,%d1
 2820 1fdc 2079 0000 	move.l sa1,%a0
 2820      0000 
68K GAS   			page 55


 2821 1fe2 2279 0000 	move.l sa1+4,%a1
 2821      0000 
 2822 1fe8 2F01      	move.l %d1,-(%sp)
 2823 1fea 2F00      	move.l %d0,-(%sp)
 2824 1fec F21F 5480 	fmove.d (%sp)+,%fp1
 2825 1ff0 2F09      	move.l %a1,-(%sp)
 2826 1ff2 2F08      	move.l %a0,-(%sp)
 2827 1ff4 F21F 5400 	fmove.d (%sp)+,%fp0
 2828 1ff8 F200 00A2 	fadd.x %fp0,%fp1
 2829 1ffc F227 7480 	fmove.d %fp1,-(%sp)
 2830 2000 201F      	move.l (%sp)+,%d0
 2831 2002 221F      	move.l (%sp)+,%d1
 2832 2004 2F01      	move.l %d1,-(%sp)
 2833 2006 2F00      	move.l %d0,-(%sp)
 2834 2008 F21F 5480 	fmove.d (%sp)+,%fp1
 2835 200c F22E 54A3 	fmul.d -40(%fp),%fp1
 2835      FFD8 
 2836 2012 F227 7480 	fmove.d %fp1,-(%sp)
 2837 2016 201F      	move.l (%sp)+,%d0
 2838 2018 221F      	move.l (%sp)+,%d1
 2839 201a 2079 0000 	move.l one,%a0
 2839      0000 
 2840 2020 2279 0000 	move.l one+4,%a1
 2840      0000 
 2841 2026 2F01      	move.l %d1,-(%sp)
 2842 2028 2F00      	move.l %d0,-(%sp)
 2843 202a F21F 5400 	fmove.d (%sp)+,%fp0
 2844 202e 2F09      	move.l %a1,-(%sp)
 2845 2030 2F08      	move.l %a0,-(%sp)
 2846 2032 F21F 5480 	fmove.d (%sp)+,%fp1
 2847 2036 F200 0422 	fadd.x %fp1,%fp0
 2848 203a F22E 7400 	fmove.d %fp0,-16(%fp)
 2848      FFF0 
 2849 2040 6000 0384 	jra .L25
 2850               	.L24:
 2851 2044 4AAE FFEC 	tst.l -20(%fp)
 2852 2048 6C42      	jge .L26
 2853 204a 0CAE 4017 	cmp.l #1075314687,-24(%fp)
 2853      FFFF FFE8 
 2854 2052 6F38      	jle .L26
 2855 2054 2039 0000 	move.l two,%d0
 2855      0000 
 2856 205a 2239 0000 	move.l two+4,%d1
 2856      0000 
 2857 2060 2079 0000 	move.l tiny,%a0
 2857      0000 
 2858 2066 2279 0000 	move.l tiny+4,%a1
 2858      0000 
 2859 206c 2F01      	move.l %d1,-(%sp)
 2860 206e 2F00      	move.l %d0,-(%sp)
 2861 2070 F21F 5400 	fmove.d (%sp)+,%fp0
 2862 2074 2F09      	move.l %a1,-(%sp)
 2863 2076 2F08      	move.l %a0,-(%sp)
 2864 2078 F21F 5480 	fmove.d (%sp)+,%fp1
 2865 207c F200 0428 	fsub.x %fp1,%fp0
 2866 2080 F227 7400 	fmove.d %fp0,-(%sp)
 2867 2084 201F      	move.l (%sp)+,%d0
68K GAS   			page 56


 2868 2086 221F      	move.l (%sp)+,%d1
 2869 2088 6000 0570 	jra .L17
 2870               	.L26:
 2871 208c 2039 0000 	move.l rb6,%d0
 2871      0000 
 2872 2092 2239 0000 	move.l rb6+4,%d1
 2872      0000 
 2873 2098 2F01      	move.l %d1,-(%sp)
 2874 209a 2F00      	move.l %d0,-(%sp)
 2875 209c F21F 5400 	fmove.d (%sp)+,%fp0
 2876 20a0 F22E 5423 	fmul.d -40(%fp),%fp0
 2876      FFD8 
 2877 20a6 F227 7400 	fmove.d %fp0,-(%sp)
 2878 20aa 201F      	move.l (%sp)+,%d0
 2879 20ac 221F      	move.l (%sp)+,%d1
 2880 20ae 2079 0000 	move.l rb5,%a0
 2880      0000 
 2881 20b4 2279 0000 	move.l rb5+4,%a1
 2881      0000 
 2882 20ba 2F01      	move.l %d1,-(%sp)
 2883 20bc 2F00      	move.l %d0,-(%sp)
 2884 20be F21F 5480 	fmove.d (%sp)+,%fp1
 2885 20c2 2F09      	move.l %a1,-(%sp)
 2886 20c4 2F08      	move.l %a0,-(%sp)
 2887 20c6 F21F 5400 	fmove.d (%sp)+,%fp0
 2888 20ca F200 00A2 	fadd.x %fp0,%fp1
 2889 20ce F227 7480 	fmove.d %fp1,-(%sp)
 2890 20d2 201F      	move.l (%sp)+,%d0
 2891 20d4 221F      	move.l (%sp)+,%d1
 2892 20d6 2F01      	move.l %d1,-(%sp)
 2893 20d8 2F00      	move.l %d0,-(%sp)
 2894 20da F21F 5480 	fmove.d (%sp)+,%fp1
 2895 20de F22E 54A3 	fmul.d -40(%fp),%fp1
 2895      FFD8 
 2896 20e4 F227 7480 	fmove.d %fp1,-(%sp)
 2897 20e8 201F      	move.l (%sp)+,%d0
 2898 20ea 221F      	move.l (%sp)+,%d1
 2899 20ec 2079 0000 	move.l rb4,%a0
 2899      0000 
 2900 20f2 2279 0000 	move.l rb4+4,%a1
 2900      0000 
 2901 20f8 2F01      	move.l %d1,-(%sp)
 2902 20fa 2F00      	move.l %d0,-(%sp)
 2903 20fc F21F 5400 	fmove.d (%sp)+,%fp0
 2904 2100 2F09      	move.l %a1,-(%sp)
 2905 2102 2F08      	move.l %a0,-(%sp)
 2906 2104 F21F 5480 	fmove.d (%sp)+,%fp1
 2907 2108 F200 0422 	fadd.x %fp1,%fp0
 2908 210c F227 7400 	fmove.d %fp0,-(%sp)
 2909 2110 201F      	move.l (%sp)+,%d0
 2910 2112 221F      	move.l (%sp)+,%d1
 2911 2114 2F01      	move.l %d1,-(%sp)
 2912 2116 2F00      	move.l %d0,-(%sp)
 2913 2118 F21F 5400 	fmove.d (%sp)+,%fp0
 2914 211c F22E 5423 	fmul.d -40(%fp),%fp0
 2914      FFD8 
 2915 2122 F227 7400 	fmove.d %fp0,-(%sp)
68K GAS   			page 57


 2916 2126 201F      	move.l (%sp)+,%d0
 2917 2128 221F      	move.l (%sp)+,%d1
 2918 212a 2079 0000 	move.l rb3,%a0
 2918      0000 
 2919 2130 2279 0000 	move.l rb3+4,%a1
 2919      0000 
 2920 2136 2F01      	move.l %d1,-(%sp)
 2921 2138 2F00      	move.l %d0,-(%sp)
 2922 213a F21F 5480 	fmove.d (%sp)+,%fp1
 2923 213e 2F09      	move.l %a1,-(%sp)
 2924 2140 2F08      	move.l %a0,-(%sp)
 2925 2142 F21F 5400 	fmove.d (%sp)+,%fp0
 2926 2146 F200 00A2 	fadd.x %fp0,%fp1
 2927 214a F227 7480 	fmove.d %fp1,-(%sp)
 2928 214e 201F      	move.l (%sp)+,%d0
 2929 2150 221F      	move.l (%sp)+,%d1
 2930 2152 2F01      	move.l %d1,-(%sp)
 2931 2154 2F00      	move.l %d0,-(%sp)
 2932 2156 F21F 5480 	fmove.d (%sp)+,%fp1
 2933 215a F22E 54A3 	fmul.d -40(%fp),%fp1
 2933      FFD8 
 2934 2160 F227 7480 	fmove.d %fp1,-(%sp)
 2935 2164 201F      	move.l (%sp)+,%d0
 2936 2166 221F      	move.l (%sp)+,%d1
 2937 2168 2079 0000 	move.l rb2,%a0
 2937      0000 
 2938 216e 2279 0000 	move.l rb2+4,%a1
 2938      0000 
 2939 2174 2F01      	move.l %d1,-(%sp)
 2940 2176 2F00      	move.l %d0,-(%sp)
 2941 2178 F21F 5400 	fmove.d (%sp)+,%fp0
 2942 217c 2F09      	move.l %a1,-(%sp)
 2943 217e 2F08      	move.l %a0,-(%sp)
 2944 2180 F21F 5480 	fmove.d (%sp)+,%fp1
 2945 2184 F200 0422 	fadd.x %fp1,%fp0
 2946 2188 F227 7400 	fmove.d %fp0,-(%sp)
 2947 218c 201F      	move.l (%sp)+,%d0
 2948 218e 221F      	move.l (%sp)+,%d1
 2949 2190 2F01      	move.l %d1,-(%sp)
 2950 2192 2F00      	move.l %d0,-(%sp)
 2951 2194 F21F 5400 	fmove.d (%sp)+,%fp0
 2952 2198 F22E 5423 	fmul.d -40(%fp),%fp0
 2952      FFD8 
 2953 219e F227 7400 	fmove.d %fp0,-(%sp)
 2954 21a2 201F      	move.l (%sp)+,%d0
 2955 21a4 221F      	move.l (%sp)+,%d1
 2956 21a6 2079 0000 	move.l rb1,%a0
 2956      0000 
 2957 21ac 2279 0000 	move.l rb1+4,%a1
 2957      0000 
 2958 21b2 2F01      	move.l %d1,-(%sp)
 2959 21b4 2F00      	move.l %d0,-(%sp)
 2960 21b6 F21F 5480 	fmove.d (%sp)+,%fp1
 2961 21ba 2F09      	move.l %a1,-(%sp)
 2962 21bc 2F08      	move.l %a0,-(%sp)
 2963 21be F21F 5400 	fmove.d (%sp)+,%fp0
 2964 21c2 F200 00A2 	fadd.x %fp0,%fp1
68K GAS   			page 58


 2965 21c6 F227 7480 	fmove.d %fp1,-(%sp)
 2966 21ca 201F      	move.l (%sp)+,%d0
 2967 21cc 221F      	move.l (%sp)+,%d1
 2968 21ce 2F01      	move.l %d1,-(%sp)
 2969 21d0 2F00      	move.l %d0,-(%sp)
 2970 21d2 F21F 5480 	fmove.d (%sp)+,%fp1
 2971 21d6 F22E 54A3 	fmul.d -40(%fp),%fp1
 2971      FFD8 
 2972 21dc F227 7480 	fmove.d %fp1,-(%sp)
 2973 21e0 201F      	move.l (%sp)+,%d0
 2974 21e2 221F      	move.l (%sp)+,%d1
 2975 21e4 2079 0000 	move.l rb0,%a0
 2975      0000 
 2976 21ea 2279 0000 	move.l rb0+4,%a1
 2976      0000 
 2977 21f0 2F01      	move.l %d1,-(%sp)
 2978 21f2 2F00      	move.l %d0,-(%sp)
 2979 21f4 F21F 5400 	fmove.d (%sp)+,%fp0
 2980 21f8 2F09      	move.l %a1,-(%sp)
 2981 21fa 2F08      	move.l %a0,-(%sp)
 2982 21fc F21F 5480 	fmove.d (%sp)+,%fp1
 2983 2200 F200 0422 	fadd.x %fp1,%fp0
 2984 2204 F22E 7400 	fmove.d %fp0,-8(%fp)
 2984      FFF8 
 2985 220a 2039 0000 	move.l sb7,%d0
 2985      0000 
 2986 2210 2239 0000 	move.l sb7+4,%d1
 2986      0000 
 2987 2216 2F01      	move.l %d1,-(%sp)
 2988 2218 2F00      	move.l %d0,-(%sp)
 2989 221a F21F 5400 	fmove.d (%sp)+,%fp0
 2990 221e F22E 5423 	fmul.d -40(%fp),%fp0
 2990      FFD8 
 2991 2224 F227 7400 	fmove.d %fp0,-(%sp)
 2992 2228 201F      	move.l (%sp)+,%d0
 2993 222a 221F      	move.l (%sp)+,%d1
 2994 222c 2079 0000 	move.l sb6,%a0
 2994      0000 
 2995 2232 2279 0000 	move.l sb6+4,%a1
 2995      0000 
 2996 2238 2F01      	move.l %d1,-(%sp)
 2997 223a 2F00      	move.l %d0,-(%sp)
 2998 223c F21F 5480 	fmove.d (%sp)+,%fp1
 2999 2240 2F09      	move.l %a1,-(%sp)
 3000 2242 2F08      	move.l %a0,-(%sp)
 3001 2244 F21F 5400 	fmove.d (%sp)+,%fp0
 3002 2248 F200 00A2 	fadd.x %fp0,%fp1
 3003 224c F227 7480 	fmove.d %fp1,-(%sp)
 3004 2250 201F      	move.l (%sp)+,%d0
 3005 2252 221F      	move.l (%sp)+,%d1
 3006 2254 2F01      	move.l %d1,-(%sp)
 3007 2256 2F00      	move.l %d0,-(%sp)
 3008 2258 F21F 5480 	fmove.d (%sp)+,%fp1
 3009 225c F22E 54A3 	fmul.d -40(%fp),%fp1
 3009      FFD8 
 3010 2262 F227 7480 	fmove.d %fp1,-(%sp)
 3011 2266 201F      	move.l (%sp)+,%d0
68K GAS   			page 59


 3012 2268 221F      	move.l (%sp)+,%d1
 3013 226a 2079 0000 	move.l sb5,%a0
 3013      0000 
 3014 2270 2279 0000 	move.l sb5+4,%a1
 3014      0000 
 3015 2276 2F01      	move.l %d1,-(%sp)
 3016 2278 2F00      	move.l %d0,-(%sp)
 3017 227a F21F 5400 	fmove.d (%sp)+,%fp0
 3018 227e 2F09      	move.l %a1,-(%sp)
 3019 2280 2F08      	move.l %a0,-(%sp)
 3020 2282 F21F 5480 	fmove.d (%sp)+,%fp1
 3021 2286 F200 0422 	fadd.x %fp1,%fp0
 3022 228a F227 7400 	fmove.d %fp0,-(%sp)
 3023 228e 201F      	move.l (%sp)+,%d0
 3024 2290 221F      	move.l (%sp)+,%d1
 3025 2292 2F01      	move.l %d1,-(%sp)
 3026 2294 2F00      	move.l %d0,-(%sp)
 3027 2296 F21F 5400 	fmove.d (%sp)+,%fp0
 3028 229a F22E 5423 	fmul.d -40(%fp),%fp0
 3028      FFD8 
 3029 22a0 F227 7400 	fmove.d %fp0,-(%sp)
 3030 22a4 201F      	move.l (%sp)+,%d0
 3031 22a6 221F      	move.l (%sp)+,%d1
 3032 22a8 2079 0000 	move.l sb4,%a0
 3032      0000 
 3033 22ae 2279 0000 	move.l sb4+4,%a1
 3033      0000 
 3034 22b4 2F01      	move.l %d1,-(%sp)
 3035 22b6 2F00      	move.l %d0,-(%sp)
 3036 22b8 F21F 5480 	fmove.d (%sp)+,%fp1
 3037 22bc 2F09      	move.l %a1,-(%sp)
 3038 22be 2F08      	move.l %a0,-(%sp)
 3039 22c0 F21F 5400 	fmove.d (%sp)+,%fp0
 3040 22c4 F200 00A2 	fadd.x %fp0,%fp1
 3041 22c8 F227 7480 	fmove.d %fp1,-(%sp)
 3042 22cc 201F      	move.l (%sp)+,%d0
 3043 22ce 221F      	move.l (%sp)+,%d1
 3044 22d0 2F01      	move.l %d1,-(%sp)
 3045 22d2 2F00      	move.l %d0,-(%sp)
 3046 22d4 F21F 5480 	fmove.d (%sp)+,%fp1
 3047 22d8 F22E 54A3 	fmul.d -40(%fp),%fp1
 3047      FFD8 
 3048 22de F227 7480 	fmove.d %fp1,-(%sp)
 3049 22e2 201F      	move.l (%sp)+,%d0
 3050 22e4 221F      	move.l (%sp)+,%d1
 3051 22e6 2079 0000 	move.l sb3,%a0
 3051      0000 
 3052 22ec 2279 0000 	move.l sb3+4,%a1
 3052      0000 
 3053 22f2 2F01      	move.l %d1,-(%sp)
 3054 22f4 2F00      	move.l %d0,-(%sp)
 3055 22f6 F21F 5400 	fmove.d (%sp)+,%fp0
 3056 22fa 2F09      	move.l %a1,-(%sp)
 3057 22fc 2F08      	move.l %a0,-(%sp)
 3058 22fe F21F 5480 	fmove.d (%sp)+,%fp1
 3059 2302 F200 0422 	fadd.x %fp1,%fp0
 3060 2306 F227 7400 	fmove.d %fp0,-(%sp)
68K GAS   			page 60


 3061 230a 201F      	move.l (%sp)+,%d0
 3062 230c 221F      	move.l (%sp)+,%d1
 3063 230e 2F01      	move.l %d1,-(%sp)
 3064 2310 2F00      	move.l %d0,-(%sp)
 3065 2312 F21F 5400 	fmove.d (%sp)+,%fp0
 3066 2316 F22E 5423 	fmul.d -40(%fp),%fp0
 3066      FFD8 
 3067 231c F227 7400 	fmove.d %fp0,-(%sp)
 3068 2320 201F      	move.l (%sp)+,%d0
 3069 2322 221F      	move.l (%sp)+,%d1
 3070 2324 2079 0000 	move.l sb2,%a0
 3070      0000 
 3071 232a 2279 0000 	move.l sb2+4,%a1
 3071      0000 
 3072 2330 2F01      	move.l %d1,-(%sp)
 3073 2332 2F00      	move.l %d0,-(%sp)
 3074 2334 F21F 5480 	fmove.d (%sp)+,%fp1
 3075 2338 2F09      	move.l %a1,-(%sp)
 3076 233a 2F08      	move.l %a0,-(%sp)
 3077 233c F21F 5400 	fmove.d (%sp)+,%fp0
 3078 2340 F200 00A2 	fadd.x %fp0,%fp1
 3079 2344 F227 7480 	fmove.d %fp1,-(%sp)
 3080 2348 201F      	move.l (%sp)+,%d0
 3081 234a 221F      	move.l (%sp)+,%d1
 3082 234c 2F01      	move.l %d1,-(%sp)
 3083 234e 2F00      	move.l %d0,-(%sp)
 3084 2350 F21F 5480 	fmove.d (%sp)+,%fp1
 3085 2354 F22E 54A3 	fmul.d -40(%fp),%fp1
 3085      FFD8 
 3086 235a F227 7480 	fmove.d %fp1,-(%sp)
 3087 235e 201F      	move.l (%sp)+,%d0
 3088 2360 221F      	move.l (%sp)+,%d1
 3089 2362 2079 0000 	move.l sb1,%a0
 3089      0000 
 3090 2368 2279 0000 	move.l sb1+4,%a1
 3090      0000 
 3091 236e 2F01      	move.l %d1,-(%sp)
 3092 2370 2F00      	move.l %d0,-(%sp)
 3093 2372 F21F 5400 	fmove.d (%sp)+,%fp0
 3094 2376 2F09      	move.l %a1,-(%sp)
 3095 2378 2F08      	move.l %a0,-(%sp)
 3096 237a F21F 5480 	fmove.d (%sp)+,%fp1
 3097 237e F200 0422 	fadd.x %fp1,%fp0
 3098 2382 F227 7400 	fmove.d %fp0,-(%sp)
 3099 2386 201F      	move.l (%sp)+,%d0
 3100 2388 221F      	move.l (%sp)+,%d1
 3101 238a 2F01      	move.l %d1,-(%sp)
 3102 238c 2F00      	move.l %d0,-(%sp)
 3103 238e F21F 5400 	fmove.d (%sp)+,%fp0
 3104 2392 F22E 5423 	fmul.d -40(%fp),%fp0
 3104      FFD8 
 3105 2398 F227 7400 	fmove.d %fp0,-(%sp)
 3106 239c 201F      	move.l (%sp)+,%d0
 3107 239e 221F      	move.l (%sp)+,%d1
 3108 23a0 2079 0000 	move.l one,%a0
 3108      0000 
 3109 23a6 2279 0000 	move.l one+4,%a1
68K GAS   			page 61


 3109      0000 
 3110 23ac 2F01      	move.l %d1,-(%sp)
 3111 23ae 2F00      	move.l %d0,-(%sp)
 3112 23b0 F21F 5480 	fmove.d (%sp)+,%fp1
 3113 23b4 2F09      	move.l %a1,-(%sp)
 3114 23b6 2F08      	move.l %a0,-(%sp)
 3115 23b8 F21F 5400 	fmove.d (%sp)+,%fp0
 3116 23bc F200 00A2 	fadd.x %fp0,%fp1
 3117 23c0 F22E 7480 	fmove.d %fp1,-16(%fp)
 3117      FFF0 
 3118               	.L25:
 3119 23c6 202E 0008 	move.l 8(%fp),%d0
 3120 23ca 222E 000C 	move.l 12(%fp),%d1
 3121 23ce 2D40 FFB8 	move.l %d0,-72(%fp)
 3122 23d2 2D41 FFBC 	move.l %d1,-68(%fp)
 3123 23d6 70B8      	moveq #-72,%d0
 3124 23d8 D08E      	add.l %fp,%d0
 3125 23da 5880      	addq.l #4,%d0
 3126 23dc 2040      	move.l %d0,%a0
 3127 23de 4290      	clr.l (%a0)
 3128 23e0 202E FFB8 	move.l -72(%fp),%d0
 3129 23e4 222E FFBC 	move.l -68(%fp),%d1
 3130 23e8 0840 001F 	bchg #31,%d0
 3131 23ec 206E FFB8 	move.l -72(%fp),%a0
 3132 23f0 226E FFBC 	move.l -68(%fp),%a1
 3133 23f4 2F01      	move.l %d1,-(%sp)
 3134 23f6 2F00      	move.l %d0,-(%sp)
 3135 23f8 F21F 5400 	fmove.d (%sp)+,%fp0
 3136 23fc 2F09      	move.l %a1,-(%sp)
 3137 23fe 2F08      	move.l %a0,-(%sp)
 3138 2400 F21F 5480 	fmove.d (%sp)+,%fp1
 3139 2404 F200 0423 	fmul.x %fp1,%fp0
 3140 2408 F227 7400 	fmove.d %fp0,-(%sp)
 3141 240c 201F      	move.l (%sp)+,%d0
 3142 240e 221F      	move.l (%sp)+,%d1
 3143 2410 2F01      	move.l %d1,-(%sp)
 3144 2412 2F00      	move.l %d0,-(%sp)
 3145 2414 F21F 5400 	fmove.d (%sp)+,%fp0
 3146 2418 F23C 5428 	fsub.d #0x3fe2000000000000,%fp0
 3146      3FE2 0000 
 3146      0000 0000 
 3147 2424 F227 7400 	fmove.d %fp0,-(%sp)
 3148 2428 201F      	move.l (%sp)+,%d0
 3149 242a 221F      	move.l (%sp)+,%d1
 3150 242c 2F01      	move.l %d1,-(%sp)
 3151 242e 2F00      	move.l %d0,-(%sp)
 3152 2430 4EB9 0000 	jsr __ieee754_exp
 3152      0000 
 3153 2436 508F      	addq.l #8,%sp
 3154 2438 F227 7400 	fmove.d %fp0,-(%sp)
 3155 243c 241F      	move.l (%sp)+,%d2
 3156 243e 261F      	move.l (%sp)+,%d3
 3157 2440 202E FFB8 	move.l -72(%fp),%d0
 3158 2444 222E FFBC 	move.l -68(%fp),%d1
 3159 2448 206E 0008 	move.l 8(%fp),%a0
 3160 244c 226E 000C 	move.l 12(%fp),%a1
 3161 2450 2F01      	move.l %d1,-(%sp)
68K GAS   			page 62


 3162 2452 2F00      	move.l %d0,-(%sp)
 3163 2454 F21F 5480 	fmove.d (%sp)+,%fp1
 3164 2458 2F09      	move.l %a1,-(%sp)
 3165 245a 2F08      	move.l %a0,-(%sp)
 3166 245c F21F 5400 	fmove.d (%sp)+,%fp0
 3167 2460 F200 00A8 	fsub.x %fp0,%fp1
 3168 2464 F227 7480 	fmove.d %fp1,-(%sp)
 3169 2468 205F      	move.l (%sp)+,%a0
 3170 246a 225F      	move.l (%sp)+,%a1
 3171 246c 282E FFB8 	move.l -72(%fp),%d4
 3172 2470 2A2E FFBC 	move.l -68(%fp),%d5
 3173 2474 202E 0008 	move.l 8(%fp),%d0
 3174 2478 222E 000C 	move.l 12(%fp),%d1
 3175 247c 2F05      	move.l %d5,-(%sp)
 3176 247e 2F04      	move.l %d4,-(%sp)
 3177 2480 F21F 5480 	fmove.d (%sp)+,%fp1
 3178 2484 2F01      	move.l %d1,-(%sp)
 3179 2486 2F00      	move.l %d0,-(%sp)
 3180 2488 F21F 5400 	fmove.d (%sp)+,%fp0
 3181 248c F200 00A2 	fadd.x %fp0,%fp1
 3182 2490 F227 7480 	fmove.d %fp1,-(%sp)
 3183 2494 201F      	move.l (%sp)+,%d0
 3184 2496 221F      	move.l (%sp)+,%d1
 3185 2498 2F09      	move.l %a1,-(%sp)
 3186 249a 2F08      	move.l %a0,-(%sp)
 3187 249c F21F 5480 	fmove.d (%sp)+,%fp1
 3188 24a0 2F01      	move.l %d1,-(%sp)
 3189 24a2 2F00      	move.l %d0,-(%sp)
 3190 24a4 F21F 5400 	fmove.d (%sp)+,%fp0
 3191 24a8 F200 00A3 	fmul.x %fp0,%fp1
 3192 24ac F227 7480 	fmove.d %fp1,-(%sp)
 3193 24b0 205F      	move.l (%sp)+,%a0
 3194 24b2 225F      	move.l (%sp)+,%a1
 3195 24b4 F22E 5480 	fmove.d -8(%fp),%fp1
 3195      FFF8 
 3196 24ba F22E 54A0 	fdiv.d -16(%fp),%fp1
 3196      FFF0 
 3197 24c0 F227 7480 	fmove.d %fp1,-(%sp)
 3198 24c4 201F      	move.l (%sp)+,%d0
 3199 24c6 221F      	move.l (%sp)+,%d1
 3200 24c8 2F09      	move.l %a1,-(%sp)
 3201 24ca 2F08      	move.l %a0,-(%sp)
 3202 24cc F21F 5400 	fmove.d (%sp)+,%fp0
 3203 24d0 2F01      	move.l %d1,-(%sp)
 3204 24d2 2F00      	move.l %d0,-(%sp)
 3205 24d4 F21F 5480 	fmove.d (%sp)+,%fp1
 3206 24d8 F200 0422 	fadd.x %fp1,%fp0
 3207 24dc F227 7400 	fmove.d %fp0,-(%sp)
 3208 24e0 201F      	move.l (%sp)+,%d0
 3209 24e2 221F      	move.l (%sp)+,%d1
 3210 24e4 2F01      	move.l %d1,-(%sp)
 3211 24e6 2F00      	move.l %d0,-(%sp)
 3212 24e8 4EB9 0000 	jsr __ieee754_exp
 3212      0000 
 3213 24ee 508F      	addq.l #8,%sp
 3214 24f0 F227 7400 	fmove.d %fp0,-(%sp)
 3215 24f4 201F      	move.l (%sp)+,%d0
68K GAS   			page 63


 3216 24f6 221F      	move.l (%sp)+,%d1
 3217 24f8 2F03      	move.l %d3,-(%sp)
 3218 24fa 2F02      	move.l %d2,-(%sp)
 3219 24fc F21F 5400 	fmove.d (%sp)+,%fp0
 3220 2500 2F01      	move.l %d1,-(%sp)
 3221 2502 2F00      	move.l %d0,-(%sp)
 3222 2504 F21F 5480 	fmove.d (%sp)+,%fp1
 3223 2508 F200 0423 	fmul.x %fp1,%fp0
 3224 250c F22E 7400 	fmove.d %fp0,-32(%fp)
 3224      FFE0 
 3225 2512 4AAE FFEC 	tst.l -20(%fp)
 3226 2516 6F26      	jle .L27
 3227 2518 202E 0008 	move.l 8(%fp),%d0
 3228 251c 222E 000C 	move.l 12(%fp),%d1
 3229 2520 F22E 5400 	fmove.d -32(%fp),%fp0
 3229      FFE0 
 3230 2526 2F01      	move.l %d1,-(%sp)
 3231 2528 2F00      	move.l %d0,-(%sp)
 3232 252a F21F 5480 	fmove.d (%sp)+,%fp1
 3233 252e F200 0420 	fdiv.x %fp1,%fp0
 3234 2532 F227 7400 	fmove.d %fp0,-(%sp)
 3235 2536 201F      	move.l (%sp)+,%d0
 3236 2538 221F      	move.l (%sp)+,%d1
 3237 253a 6000 00BE 	jra .L17
 3238               	.L27:
 3239 253e 2079 0000 	move.l two,%a0
 3239      0000 
 3240 2544 2279 0000 	move.l two+4,%a1
 3240      0000 
 3241 254a 202E 0008 	move.l 8(%fp),%d0
 3242 254e 222E 000C 	move.l 12(%fp),%d1
 3243 2552 F22E 5400 	fmove.d -32(%fp),%fp0
 3243      FFE0 
 3244 2558 2F01      	move.l %d1,-(%sp)
 3245 255a 2F00      	move.l %d0,-(%sp)
 3246 255c F21F 5480 	fmove.d (%sp)+,%fp1
 3247 2560 F200 0420 	fdiv.x %fp1,%fp0
 3248 2564 F227 7400 	fmove.d %fp0,-(%sp)
 3249 2568 201F      	move.l (%sp)+,%d0
 3250 256a 221F      	move.l (%sp)+,%d1
 3251 256c 2F09      	move.l %a1,-(%sp)
 3252 256e 2F08      	move.l %a0,-(%sp)
 3253 2570 F21F 5400 	fmove.d (%sp)+,%fp0
 3254 2574 2F01      	move.l %d1,-(%sp)
 3255 2576 2F00      	move.l %d0,-(%sp)
 3256 2578 F21F 5480 	fmove.d (%sp)+,%fp1
 3257 257c F200 0428 	fsub.x %fp1,%fp0
 3258 2580 F227 7400 	fmove.d %fp0,-(%sp)
 3259 2584 201F      	move.l (%sp)+,%d0
 3260 2586 221F      	move.l (%sp)+,%d1
 3261 2588 6070      	jra .L17
 3262               	.L23:
 3263 258a 4AAE FFEC 	tst.l -20(%fp)
 3264 258e 6F36      	jle .L28
 3265 2590 2079 0000 	move.l tiny,%a0
 3265      0000 
 3266 2596 2279 0000 	move.l tiny+4,%a1
68K GAS   			page 64


 3266      0000 
 3267 259c 2039 0000 	move.l tiny,%d0
 3267      0000 
 3268 25a2 2239 0000 	move.l tiny+4,%d1
 3268      0000 
 3269 25a8 2F09      	move.l %a1,-(%sp)
 3270 25aa 2F08      	move.l %a0,-(%sp)
 3271 25ac F21F 5400 	fmove.d (%sp)+,%fp0
 3272 25b0 2F01      	move.l %d1,-(%sp)
 3273 25b2 2F00      	move.l %d0,-(%sp)
 3274 25b4 F21F 5480 	fmove.d (%sp)+,%fp1
 3275 25b8 F200 0423 	fmul.x %fp1,%fp0
 3276 25bc F227 7400 	fmove.d %fp0,-(%sp)
 3277 25c0 201F      	move.l (%sp)+,%d0
 3278 25c2 221F      	move.l (%sp)+,%d1
 3279 25c4 6034      	jra .L17
 3280               	.L28:
 3281 25c6 2039 0000 	move.l two,%d0
 3281      0000 
 3282 25cc 2239 0000 	move.l two+4,%d1
 3282      0000 
 3283 25d2 2079 0000 	move.l tiny,%a0
 3283      0000 
 3284 25d8 2279 0000 	move.l tiny+4,%a1
 3284      0000 
 3285 25de 2F01      	move.l %d1,-(%sp)
 3286 25e0 2F00      	move.l %d0,-(%sp)
 3287 25e2 F21F 5400 	fmove.d (%sp)+,%fp0
 3288 25e6 2F09      	move.l %a1,-(%sp)
 3289 25e8 2F08      	move.l %a0,-(%sp)
 3290 25ea F21F 5480 	fmove.d (%sp)+,%fp1
 3291 25ee F200 0428 	fsub.x %fp1,%fp0
 3292 25f2 F227 7400 	fmove.d %fp0,-(%sp)
 3293 25f6 201F      	move.l (%sp)+,%d0
 3294 25f8 221F      	move.l (%sp)+,%d1
 3295               	.L17:
 3296 25fa 2F01      	move.l %d1,-(%sp)
 3297 25fc 2F00      	move.l %d0,-(%sp)
 3298 25fe F21F 5400 	fmove.d (%sp)+,%fp0
 3299 2602 4CEE 003C 	movem.l -88(%fp),#60
 3299      FFA8 
 3300 2608 4E5E      	unlk %fp
 3301 260a 4E75      	rts
 3303               	.ident"GCC: (GNU) 4.5.1"
 3304               	.section.note.GNU-stack,"",@progbits
68K GAS   			page 65


DEFINED SYMBOLS
                            *ABS*:00000000 s_erf.c
    {standard input}:7      .rodata:00000000 tiny
    {standard input}:13     .rodata:00000008 half
    {standard input}:19     .rodata:00000010 one
    {standard input}:25     .rodata:00000018 two
    {standard input}:31     .rodata:00000020 erx
    {standard input}:37     .rodata:00000028 efx
    {standard input}:43     .rodata:00000030 efx8
    {standard input}:49     .rodata:00000038 pp0
    {standard input}:55     .rodata:00000040 pp1
    {standard input}:61     .rodata:00000048 pp2
    {standard input}:67     .rodata:00000050 pp3
    {standard input}:73     .rodata:00000058 pp4
    {standard input}:79     .rodata:00000060 qq1
    {standard input}:85     .rodata:00000068 qq2
    {standard input}:91     .rodata:00000070 qq3
    {standard input}:97     .rodata:00000078 qq4
    {standard input}:103    .rodata:00000080 qq5
    {standard input}:109    .rodata:00000088 pa0
    {standard input}:115    .rodata:00000090 pa1
    {standard input}:121    .rodata:00000098 pa2
    {standard input}:127    .rodata:000000a0 pa3
    {standard input}:133    .rodata:000000a8 pa4
    {standard input}:139    .rodata:000000b0 pa5
    {standard input}:145    .rodata:000000b8 pa6
    {standard input}:151    .rodata:000000c0 qa1
    {standard input}:157    .rodata:000000c8 qa2
    {standard input}:163    .rodata:000000d0 qa3
    {standard input}:169    .rodata:000000d8 qa4
    {standard input}:175    .rodata:000000e0 qa5
    {standard input}:181    .rodata:000000e8 qa6
    {standard input}:187    .rodata:000000f0 ra0
    {standard input}:193    .rodata:000000f8 ra1
    {standard input}:199    .rodata:00000100 ra2
    {standard input}:205    .rodata:00000108 ra3
    {standard input}:211    .rodata:00000110 ra4
    {standard input}:217    .rodata:00000118 ra5
    {standard input}:223    .rodata:00000120 ra6
    {standard input}:229    .rodata:00000128 ra7
    {standard input}:235    .rodata:00000130 sa1
    {standard input}:241    .rodata:00000138 sa2
    {standard input}:247    .rodata:00000140 sa3
    {standard input}:253    .rodata:00000148 sa4
    {standard input}:259    .rodata:00000150 sa5
    {standard input}:265    .rodata:00000158 sa6
    {standard input}:271    .rodata:00000160 sa7
    {standard input}:277    .rodata:00000168 sa8
    {standard input}:283    .rodata:00000170 rb0
    {standard input}:289    .rodata:00000178 rb1
    {standard input}:295    .rodata:00000180 rb2
    {standard input}:301    .rodata:00000188 rb3
    {standard input}:307    .rodata:00000190 rb4
    {standard input}:313    .rodata:00000198 rb5
    {standard input}:319    .rodata:000001a0 rb6
    {standard input}:325    .rodata:000001a8 sb1
    {standard input}:331    .rodata:000001b0 sb2
68K GAS   			page 66


    {standard input}:337    .rodata:000001b8 sb3
    {standard input}:343    .rodata:000001c0 sb4
    {standard input}:349    .rodata:000001c8 sb5
    {standard input}:355    .rodata:000001d0 sb6
    {standard input}:361    .rodata:000001d8 sb7
    {standard input}:368    .text:00000000 erf
    {standard input}:1815   .text:000012b6 erfc

UNDEFINED SYMBOLS
fabs
__ieee754_exp
