68K GAS   			page 1


   1               	
   2               	.file"s_expm1.c"
   3               	.section.rodata
   4               	.align2
   7               	one:
   8 0000 3FF0 0000 	.long1072693248
   9 0004 0000 0000 	.long0
  10               	.align2
  13               	huge:
  14 0008 7E37 E43C 	.long2117592124
  15 000c 8800 759C 	.long-2013235812
  16               	.align2
  19               	tiny:
  20 0010 01A5 6E1F 	.long27618847
  21 0014 C2F8 F359 	.long-1023872167
  22               	.align2
  25               	o_threshold:
  26 0018 4086 2E42 	.long1082535490
  27 001c FEFA 39EF 	.long-17155601
  28               	.align2
  31               	ln2_hi:
  32 0020 3FE6 2E42 	.long1072049730
  33 0024 FEE0 0000 	.long-18874368
  34               	.align2
  37               	ln2_lo:
  38 0028 3DEA 39EF 	.long1038760431
  39 002c 3579 3C76 	.long897137782
  40               	.align2
  43               	invln2:
  44 0030 3FF7 1547 	.long1073157447
  45 0034 652B 82FE 	.long1697350398
  46               	.align2
  49               	Q1:
  50 0038 BFA1 1111 	.long-1079963375
  51 003c 1111 10F4 	.long286331124
  52               	.align2
  55               	Q2:
  56 0040 3F5A 01A0 	.long1062863264
  57 0044 19FE 5585 	.long436098437
  58               	.align2
  61               	Q3:
  62 0048 BF14 CE19 	.long-1089155559
  63 004c 9EAA DBB7 	.long-1632969801
  64               	.align2
  67               	Q4:
  68 0050 3ED0 CFCA 	.long1053872074
  69 0054 86E6 5239 	.long-2031726023
  70               	.align2
  73               	Q5:
  74 0058 BE8A FDB7 	.long-1098187337
  75 005c 6E09 C32D 	.long1846133549
  76               	.text
  77               	.align2
  78               	.globlexpm1
  80               	expm1:
  81 0000 4E56 FFAC 	link.w %fp,#-84
  82 0004 48E7 3C00 	movem.l #15360,-(%sp)
68K GAS   			page 2


  83 0008 200E      	move.l %fp,%d0
  84 000a 5080      	addq.l #8,%d0
  85 000c 2040      	move.l %d0,%a0
  86 000e 2010      	move.l (%a0),%d0
  87 0010 2D40 FFE0 	move.l %d0,-32(%fp)
  88 0014 202E FFE0 	move.l -32(%fp),%d0
  89 0018 2200      	move.l %d0,%d1
  90 001a 0281 8000 	and.l #-2147483648,%d1
  90      0000 
  91 0020 2D41 FFDC 	move.l %d1,-36(%fp)
  92 0024 4AAE FFDC 	tst.l -36(%fp)
  93 0028 6612      	jne .L2
  94 002a 202E 0008 	move.l 8(%fp),%d0
  95 002e 222E 000C 	move.l 12(%fp),%d1
  96 0032 2D40 FFB4 	move.l %d0,-76(%fp)
  97 0036 2D41 FFB8 	move.l %d1,-72(%fp)
  98 003a 6014      	jra .L3
  99               	.L2:
 100 003c 202E 0008 	move.l 8(%fp),%d0
 101 0040 222E 000C 	move.l 12(%fp),%d1
 102 0044 0840 001F 	bchg #31,%d0
 103 0048 2D40 FFB4 	move.l %d0,-76(%fp)
 104 004c 2D41 FFB8 	move.l %d1,-72(%fp)
 105               	.L3:
 106 0050 08AE 0007 	bclr #7,-32(%fp)
 106      FFE0 
 107 0056 0CAE 4043 	cmp.l #1078159481,-32(%fp)
 107      6879 FFE0 
 108 005e 6300 0172 	jls .L4
 109 0062 0CAE 4086 	cmp.l #1082535489,-32(%fp)
 109      2E41 FFE0 
 110 006a 6300 00D4 	jls .L5
 111 006e 0CAE 7FEF 	cmp.l #2146435071,-32(%fp)
 111      FFFF FFE0 
 112 0076 635E      	jls .L6
 113 0078 222E FFE0 	move.l -32(%fp),%d1
 114 007c 0281 000F 	and.l #1048575,%d1
 114      FFFF 
 115 0082 200E      	move.l %fp,%d0
 116 0084 5080      	addq.l #8,%d0
 117 0086 5880      	addq.l #4,%d0
 118 0088 2040      	move.l %d0,%a0
 119 008a 2010      	move.l (%a0),%d0
 120 008c 8081      	or.l %d1,%d0
 121 008e 4A80      	tst.l %d0
 122 0090 6728      	jeq .L7
 123 0092 202E 0008 	move.l 8(%fp),%d0
 124 0096 222E 000C 	move.l 12(%fp),%d1
 125 009a 2F01      	move.l %d1,-(%sp)
 126 009c 2F00      	move.l %d0,-(%sp)
 127 009e F21F 5400 	fmove.d (%sp)+,%fp0
 128 00a2 2F01      	move.l %d1,-(%sp)
 129 00a4 2F00      	move.l %d0,-(%sp)
 130 00a6 F21F 5480 	fmove.d (%sp)+,%fp1
 131 00aa F200 0422 	fadd.x %fp1,%fp0
 132 00ae F227 7400 	fmove.d %fp0,-(%sp)
 133 00b2 201F      	move.l (%sp)+,%d0
68K GAS   			page 3


 134 00b4 221F      	move.l (%sp)+,%d1
 135 00b6 6000 0A8C 	jra .L8
 136               	.L7:
 137 00ba 4AAE FFDC 	tst.l -36(%fp)
 138 00be 660A      	jne .L9
 139 00c0 202E 0008 	move.l 8(%fp),%d0
 140 00c4 222E 000C 	move.l 12(%fp),%d1
 141 00c8 6008      	jra .L10
 142               	.L9:
 143 00ca 203C BFF0 	move.l #-1074790400,%d0
 143      0000 
 144 00d0 4281      	clr.l %d1
 145               	.L10:
 146 00d2 6000 0A70 	jra .L8
 147               	.L6:
 148 00d6 206E 0008 	move.l 8(%fp),%a0
 149 00da 226E 000C 	move.l 12(%fp),%a1
 150 00de 2039 0000 	move.l o_threshold,%d0
 150      0000 
 151 00e4 2239 0000 	move.l o_threshold+4,%d1
 151      0000 
 152 00ea 2F09      	move.l %a1,-(%sp)
 153 00ec 2F08      	move.l %a0,-(%sp)
 154 00ee F21F 5400 	fmove.d (%sp)+,%fp0
 155 00f2 2F01      	move.l %d1,-(%sp)
 156 00f4 2F00      	move.l %d0,-(%sp)
 157 00f6 F21F 5480 	fmove.d (%sp)+,%fp1
 158 00fa F200 0438 	fcmp.x %fp1,%fp0
 159 00fe F240 0012 	fsgt %d0
 160 0102 4400      	neg.b %d0
 161 0104 4A00      	tst.b %d0
 162 0106 6738      	jeq .L5
 163 0108 2079 0000 	move.l huge,%a0
 163      0000 
 164 010e 2279 0000 	move.l huge+4,%a1
 164      0000 
 165 0114 2039 0000 	move.l huge,%d0
 165      0000 
 166 011a 2239 0000 	move.l huge+4,%d1
 166      0000 
 167 0120 2F09      	move.l %a1,-(%sp)
 168 0122 2F08      	move.l %a0,-(%sp)
 169 0124 F21F 5400 	fmove.d (%sp)+,%fp0
 170 0128 2F01      	move.l %d1,-(%sp)
 171 012a 2F00      	move.l %d0,-(%sp)
 172 012c F21F 5480 	fmove.d (%sp)+,%fp1
 173 0130 F200 0423 	fmul.x %fp1,%fp0
 174 0134 F227 7400 	fmove.d %fp0,-(%sp)
 175 0138 201F      	move.l (%sp)+,%d0
 176 013a 221F      	move.l (%sp)+,%d1
 177 013c 6000 0A06 	jra .L8
 178               	.L5:
 179 0140 4AAE FFDC 	tst.l -36(%fp)
 180 0144 6700 008C 	jeq .L4
 181 0148 206E 0008 	move.l 8(%fp),%a0
 182 014c 226E 000C 	move.l 12(%fp),%a1
 183 0150 2039 0000 	move.l tiny,%d0
68K GAS   			page 4


 183      0000 
 184 0156 2239 0000 	move.l tiny+4,%d1
 184      0000 
 185 015c 2F09      	move.l %a1,-(%sp)
 186 015e 2F08      	move.l %a0,-(%sp)
 187 0160 F21F 5400 	fmove.d (%sp)+,%fp0
 188 0164 2F01      	move.l %d1,-(%sp)
 189 0166 2F00      	move.l %d0,-(%sp)
 190 0168 F21F 5480 	fmove.d (%sp)+,%fp1
 191 016c F200 0422 	fadd.x %fp1,%fp0
 192 0170 F227 7400 	fmove.d %fp0,-(%sp)
 193 0174 201F      	move.l (%sp)+,%d0
 194 0176 221F      	move.l (%sp)+,%d1
 195 0178 91C8      	sub.l %a0,%a0
 196 017a 93C9      	sub.l %a1,%a1
 197 017c 2F01      	move.l %d1,-(%sp)
 198 017e 2F00      	move.l %d0,-(%sp)
 199 0180 F21F 5400 	fmove.d (%sp)+,%fp0
 200 0184 2F09      	move.l %a1,-(%sp)
 201 0186 2F08      	move.l %a0,-(%sp)
 202 0188 F21F 5480 	fmove.d (%sp)+,%fp1
 203 018c F200 0438 	fcmp.x %fp1,%fp0
 204 0190 F240 0014 	fslt %d0
 205 0194 4400      	neg.b %d0
 206 0196 4A00      	tst.b %d0
 207 0198 6738      	jeq .L4
 208 019a 2039 0000 	move.l tiny,%d0
 208      0000 
 209 01a0 2239 0000 	move.l tiny+4,%d1
 209      0000 
 210 01a6 2079 0000 	move.l one,%a0
 210      0000 
 211 01ac 2279 0000 	move.l one+4,%a1
 211      0000 
 212 01b2 2F01      	move.l %d1,-(%sp)
 213 01b4 2F00      	move.l %d0,-(%sp)
 214 01b6 F21F 5400 	fmove.d (%sp)+,%fp0
 215 01ba 2F09      	move.l %a1,-(%sp)
 216 01bc 2F08      	move.l %a0,-(%sp)
 217 01be F21F 5480 	fmove.d (%sp)+,%fp1
 218 01c2 F200 0428 	fsub.x %fp1,%fp0
 219 01c6 F227 7400 	fmove.d %fp0,-(%sp)
 220 01ca 201F      	move.l (%sp)+,%d0
 221 01cc 221F      	move.l (%sp)+,%d1
 222 01ce 6000 0974 	jra .L8
 223               	.L4:
 224 01d2 0CAE 3FD6 	cmp.l #1071001154,-32(%fp)
 224      2E42 FFE0 
 225 01da 6300 0224 	jls .L11
 226 01de 0CAE 3FF0 	cmp.l #1072734897,-32(%fp)
 226      A2B1 FFE0 
 227 01e6 6200 00A6 	jhi .L12
 228 01ea 4AAE FFDC 	tst.l -36(%fp)
 229 01ee 6648      	jne .L13
 230 01f0 202E 0008 	move.l 8(%fp),%d0
 231 01f4 222E 000C 	move.l 12(%fp),%d1
 232 01f8 2079 0000 	move.l ln2_hi,%a0
68K GAS   			page 5


 232      0000 
 233 01fe 2279 0000 	move.l ln2_hi+4,%a1
 233      0000 
 234 0204 2F01      	move.l %d1,-(%sp)
 235 0206 2F00      	move.l %d0,-(%sp)
 236 0208 F21F 5400 	fmove.d (%sp)+,%fp0
 237 020c 2F09      	move.l %a1,-(%sp)
 238 020e 2F08      	move.l %a0,-(%sp)
 239 0210 F21F 5480 	fmove.d (%sp)+,%fp1
 240 0214 F200 0428 	fsub.x %fp1,%fp0
 241 0218 F22E 7400 	fmove.d %fp0,-8(%fp)
 241      FFF8 
 242 021e 2D79 0000 	move.l ln2_lo,-16(%fp)
 242      0000 FFF0 
 243 0226 2D79 0000 	move.l ln2_lo+4,-12(%fp)
 243      0000 FFF4 
 244 022e 7001      	moveq #1,%d0
 245 0230 2D40 FFE4 	move.l %d0,-28(%fp)
 246 0234 6000 0174 	jra .L14
 247               	.L13:
 248 0238 206E 0008 	move.l 8(%fp),%a0
 249 023c 226E 000C 	move.l 12(%fp),%a1
 250 0240 2039 0000 	move.l ln2_hi,%d0
 250      0000 
 251 0246 2239 0000 	move.l ln2_hi+4,%d1
 251      0000 
 252 024c 2F09      	move.l %a1,-(%sp)
 253 024e 2F08      	move.l %a0,-(%sp)
 254 0250 F21F 5400 	fmove.d (%sp)+,%fp0
 255 0254 2F01      	move.l %d1,-(%sp)
 256 0256 2F00      	move.l %d0,-(%sp)
 257 0258 F21F 5480 	fmove.d (%sp)+,%fp1
 258 025c F200 0422 	fadd.x %fp1,%fp0
 259 0260 F22E 7400 	fmove.d %fp0,-8(%fp)
 259      FFF8 
 260 0266 2039 0000 	move.l ln2_lo,%d0
 260      0000 
 261 026c 2239 0000 	move.l ln2_lo+4,%d1
 261      0000 
 262 0272 2F01      	move.l %d1,-(%sp)
 263 0274 2F00      	move.l %d0,-(%sp)
 264 0276 F21F 5400 	fmove.d (%sp)+,%fp0
 265 027a F200 001A 	fneg.x %fp0,%fp0
 266 027e F22E 7400 	fmove.d %fp0,-16(%fp)
 266      FFF0 
 267 0284 70FF      	moveq #-1,%d0
 268 0286 2D40 FFE4 	move.l %d0,-28(%fp)
 269 028a 6000 011E 	jra .L14
 270               	.L12:
 271 028e 2079 0000 	move.l invln2,%a0
 271      0000 
 272 0294 2279 0000 	move.l invln2+4,%a1
 272      0000 
 273 029a 202E 0008 	move.l 8(%fp),%d0
 274 029e 222E 000C 	move.l 12(%fp),%d1
 275 02a2 2F09      	move.l %a1,-(%sp)
 276 02a4 2F08      	move.l %a0,-(%sp)
68K GAS   			page 6


 277 02a6 F21F 5400 	fmove.d (%sp)+,%fp0
 278 02aa 2F01      	move.l %d1,-(%sp)
 279 02ac 2F00      	move.l %d0,-(%sp)
 280 02ae F21F 5480 	fmove.d (%sp)+,%fp1
 281 02b2 F200 0423 	fmul.x %fp1,%fp0
 282 02b6 F227 7400 	fmove.d %fp0,-(%sp)
 283 02ba 205F      	move.l (%sp)+,%a0
 284 02bc 225F      	move.l (%sp)+,%a1
 285 02be 4AAE FFDC 	tst.l -36(%fp)
 286 02c2 660A      	jne .L15
 287 02c4 203C 3FE0 	move.l #1071644672,%d0
 287      0000 
 288 02ca 4281      	clr.l %d1
 289 02cc 6008      	jra .L16
 290               	.L15:
 291 02ce 203C BFE0 	move.l #-1075838976,%d0
 291      0000 
 292 02d4 4281      	clr.l %d1
 293               	.L16:
 294 02d6 2F09      	move.l %a1,-(%sp)
 295 02d8 2F08      	move.l %a0,-(%sp)
 296 02da F21F 5400 	fmove.d (%sp)+,%fp0
 297 02de 2F01      	move.l %d1,-(%sp)
 298 02e0 2F00      	move.l %d0,-(%sp)
 299 02e2 F21F 5480 	fmove.d (%sp)+,%fp1
 300 02e6 F200 0422 	fadd.x %fp1,%fp0
 301 02ea F227 7400 	fmove.d %fp0,-(%sp)
 302 02ee 201F      	move.l (%sp)+,%d0
 303 02f0 221F      	move.l (%sp)+,%d1
 304 02f2 2F01      	move.l %d1,-(%sp)
 305 02f4 2F00      	move.l %d0,-(%sp)
 306 02f6 F21F 5400 	fmove.d (%sp)+,%fp0
 307 02fa F200 0003 	fintrz.x %fp0,%fp0
 308 02fe F227 7400 	fmove.d %fp0,-(%sp)
 309 0302 201F      	move.l (%sp)+,%d0
 310 0304 221F      	move.l (%sp)+,%d1
 311 0306 2F01      	move.l %d1,-(%sp)
 312 0308 2F00      	move.l %d0,-(%sp)
 313 030a F21F 5480 	fmove.d (%sp)+,%fp1
 314 030e F22E 6080 	fmove.l %fp1,-28(%fp)
 314      FFE4 
 315 0314 F22E 4000 	fmove.l -28(%fp),%fp0
 315      FFE4 
 316 031a F227 7400 	fmove.d %fp0,-(%sp)
 317 031e 201F      	move.l (%sp)+,%d0
 318 0320 221F      	move.l (%sp)+,%d1
 319 0322 2D40 FFAC 	move.l %d0,-84(%fp)
 320 0326 2D41 FFB0 	move.l %d1,-80(%fp)
 321 032a 206E 0008 	move.l 8(%fp),%a0
 322 032e 226E 000C 	move.l 12(%fp),%a1
 323 0332 242E FFAC 	move.l -84(%fp),%d2
 324 0336 262E FFB0 	move.l -80(%fp),%d3
 325 033a 2039 0000 	move.l ln2_hi,%d0
 325      0000 
 326 0340 2239 0000 	move.l ln2_hi+4,%d1
 326      0000 
 327 0346 2F03      	move.l %d3,-(%sp)
68K GAS   			page 7


 328 0348 2F02      	move.l %d2,-(%sp)
 329 034a F21F 5480 	fmove.d (%sp)+,%fp1
 330 034e 2F01      	move.l %d1,-(%sp)
 331 0350 2F00      	move.l %d0,-(%sp)
 332 0352 F21F 5400 	fmove.d (%sp)+,%fp0
 333 0356 F200 00A3 	fmul.x %fp0,%fp1
 334 035a F227 7480 	fmove.d %fp1,-(%sp)
 335 035e 201F      	move.l (%sp)+,%d0
 336 0360 221F      	move.l (%sp)+,%d1
 337 0362 2F09      	move.l %a1,-(%sp)
 338 0364 2F08      	move.l %a0,-(%sp)
 339 0366 F21F 5480 	fmove.d (%sp)+,%fp1
 340 036a 2F01      	move.l %d1,-(%sp)
 341 036c 2F00      	move.l %d0,-(%sp)
 342 036e F21F 5400 	fmove.d (%sp)+,%fp0
 343 0372 F200 00A8 	fsub.x %fp0,%fp1
 344 0376 F22E 7480 	fmove.d %fp1,-8(%fp)
 344      FFF8 
 345 037c 206E FFAC 	move.l -84(%fp),%a0
 346 0380 226E FFB0 	move.l -80(%fp),%a1
 347 0384 2039 0000 	move.l ln2_lo,%d0
 347      0000 
 348 038a 2239 0000 	move.l ln2_lo+4,%d1
 348      0000 
 349 0390 2F09      	move.l %a1,-(%sp)
 350 0392 2F08      	move.l %a0,-(%sp)
 351 0394 F21F 5480 	fmove.d (%sp)+,%fp1
 352 0398 2F01      	move.l %d1,-(%sp)
 353 039a 2F00      	move.l %d0,-(%sp)
 354 039c F21F 5400 	fmove.d (%sp)+,%fp0
 355 03a0 F200 00A3 	fmul.x %fp0,%fp1
 356 03a4 F22E 7480 	fmove.d %fp1,-16(%fp)
 356      FFF0 
 357               	.L14:
 358 03aa F22E 5480 	fmove.d -8(%fp),%fp1
 358      FFF8 
 359 03b0 F22E 54A8 	fsub.d -16(%fp),%fp1
 359      FFF0 
 360 03b6 F227 7480 	fmove.d %fp1,-(%sp)
 361 03ba 201F      	move.l (%sp)+,%d0
 362 03bc 221F      	move.l (%sp)+,%d1
 363 03be 2D40 0008 	move.l %d0,8(%fp)
 364 03c2 2D41 000C 	move.l %d1,12(%fp)
 365 03c6 202E 0008 	move.l 8(%fp),%d0
 366 03ca 222E 000C 	move.l 12(%fp),%d1
 367 03ce F22E 5400 	fmove.d -8(%fp),%fp0
 367      FFF8 
 368 03d4 2F01      	move.l %d1,-(%sp)
 369 03d6 2F00      	move.l %d0,-(%sp)
 370 03d8 F21F 5480 	fmove.d (%sp)+,%fp1
 371 03dc F200 0428 	fsub.x %fp1,%fp0
 372 03e0 F227 7400 	fmove.d %fp0,-(%sp)
 373 03e4 201F      	move.l (%sp)+,%d0
 374 03e6 221F      	move.l (%sp)+,%d1
 375 03e8 2F01      	move.l %d1,-(%sp)
 376 03ea 2F00      	move.l %d0,-(%sp)
 377 03ec F21F 5400 	fmove.d (%sp)+,%fp0
68K GAS   			page 8


 378 03f0 F22E 5428 	fsub.d -16(%fp),%fp0
 378      FFF0 
 379 03f6 F22E 7400 	fmove.d %fp0,-24(%fp)
 379      FFE8 
 380 03fc 6000 00C6 	jra .L17
 381               	.L11:
 382 0400 0CAE 3C8F 	cmp.l #1016070143,-32(%fp)
 382      FFFF FFE0 
 383 0408 6200 00B6 	jhi .L18
 384 040c 2079 0000 	move.l huge,%a0
 384      0000 
 385 0412 2279 0000 	move.l huge+4,%a1
 385      0000 
 386 0418 202E 0008 	move.l 8(%fp),%d0
 387 041c 222E 000C 	move.l 12(%fp),%d1
 388 0420 2F09      	move.l %a1,-(%sp)
 389 0422 2F08      	move.l %a0,-(%sp)
 390 0424 F21F 5480 	fmove.d (%sp)+,%fp1
 391 0428 2F01      	move.l %d1,-(%sp)
 392 042a 2F00      	move.l %d0,-(%sp)
 393 042c F21F 5400 	fmove.d (%sp)+,%fp0
 394 0430 F200 00A2 	fadd.x %fp0,%fp1
 395 0434 F227 7480 	fmove.d %fp1,-(%sp)
 396 0438 201F      	move.l (%sp)+,%d0
 397 043a 221F      	move.l (%sp)+,%d1
 398 043c 2D40 FFAC 	move.l %d0,-84(%fp)
 399 0440 2D41 FFB0 	move.l %d1,-80(%fp)
 400 0444 206E 0008 	move.l 8(%fp),%a0
 401 0448 226E 000C 	move.l 12(%fp),%a1
 402 044c 242E FFAC 	move.l -84(%fp),%d2
 403 0450 262E FFB0 	move.l -80(%fp),%d3
 404 0454 2839 0000 	move.l huge,%d4
 404      0000 
 405 045a 2A39 0000 	move.l huge+4,%d5
 405      0000 
 406 0460 202E 0008 	move.l 8(%fp),%d0
 407 0464 222E 000C 	move.l 12(%fp),%d1
 408 0468 2F05      	move.l %d5,-(%sp)
 409 046a 2F04      	move.l %d4,-(%sp)
 410 046c F21F 5480 	fmove.d (%sp)+,%fp1
 411 0470 2F01      	move.l %d1,-(%sp)
 412 0472 2F00      	move.l %d0,-(%sp)
 413 0474 F21F 5400 	fmove.d (%sp)+,%fp0
 414 0478 F200 00A2 	fadd.x %fp0,%fp1
 415 047c F227 7480 	fmove.d %fp1,-(%sp)
 416 0480 201F      	move.l (%sp)+,%d0
 417 0482 221F      	move.l (%sp)+,%d1
 418 0484 2F03      	move.l %d3,-(%sp)
 419 0486 2F02      	move.l %d2,-(%sp)
 420 0488 F21F 5480 	fmove.d (%sp)+,%fp1
 421 048c 2F01      	move.l %d1,-(%sp)
 422 048e 2F00      	move.l %d0,-(%sp)
 423 0490 F21F 5400 	fmove.d (%sp)+,%fp0
 424 0494 F200 00A8 	fsub.x %fp0,%fp1
 425 0498 F227 7480 	fmove.d %fp1,-(%sp)
 426 049c 201F      	move.l (%sp)+,%d0
 427 049e 221F      	move.l (%sp)+,%d1
68K GAS   			page 9


 428 04a0 2F09      	move.l %a1,-(%sp)
 429 04a2 2F08      	move.l %a0,-(%sp)
 430 04a4 F21F 5480 	fmove.d (%sp)+,%fp1
 431 04a8 2F01      	move.l %d1,-(%sp)
 432 04aa 2F00      	move.l %d0,-(%sp)
 433 04ac F21F 5400 	fmove.d (%sp)+,%fp0
 434 04b0 F200 00A8 	fsub.x %fp0,%fp1
 435 04b4 F227 7480 	fmove.d %fp1,-(%sp)
 436 04b8 201F      	move.l (%sp)+,%d0
 437 04ba 221F      	move.l (%sp)+,%d1
 438 04bc 6000 0686 	jra .L8
 439               	.L18:
 440 04c0 42AE FFE4 	clr.l -28(%fp)
 441               	.L17:
 442 04c4 202E 0008 	move.l 8(%fp),%d0
 443 04c8 222E 000C 	move.l 12(%fp),%d1
 444 04cc 2F01      	move.l %d1,-(%sp)
 445 04ce 2F00      	move.l %d0,-(%sp)
 446 04d0 F21F 5480 	fmove.d (%sp)+,%fp1
 447 04d4 F23C 54A3 	fmul.d #0x3fe0000000000000,%fp1
 447      3FE0 0000 
 447      0000 0000 
 448 04e0 F22E 7480 	fmove.d %fp1,-44(%fp)
 448      FFD4 
 449 04e6 202E 0008 	move.l 8(%fp),%d0
 450 04ea 222E 000C 	move.l 12(%fp),%d1
 451 04ee 2F01      	move.l %d1,-(%sp)
 452 04f0 2F00      	move.l %d0,-(%sp)
 453 04f2 F21F 5400 	fmove.d (%sp)+,%fp0
 454 04f6 F22E 5423 	fmul.d -44(%fp),%fp0
 454      FFD4 
 455 04fc F22E 7400 	fmove.d %fp0,-52(%fp)
 455      FFCC 
 456 0502 2039 0000 	move.l Q5,%d0
 456      0000 
 457 0508 2239 0000 	move.l Q5+4,%d1
 457      0000 
 458 050e 2F01      	move.l %d1,-(%sp)
 459 0510 2F00      	move.l %d0,-(%sp)
 460 0512 F21F 5480 	fmove.d (%sp)+,%fp1
 461 0516 F22E 54A3 	fmul.d -52(%fp),%fp1
 461      FFCC 
 462 051c F227 7480 	fmove.d %fp1,-(%sp)
 463 0520 201F      	move.l (%sp)+,%d0
 464 0522 221F      	move.l (%sp)+,%d1
 465 0524 2079 0000 	move.l Q4,%a0
 465      0000 
 466 052a 2279 0000 	move.l Q4+4,%a1
 466      0000 
 467 0530 2F01      	move.l %d1,-(%sp)
 468 0532 2F00      	move.l %d0,-(%sp)
 469 0534 F21F 5400 	fmove.d (%sp)+,%fp0
 470 0538 2F09      	move.l %a1,-(%sp)
 471 053a 2F08      	move.l %a0,-(%sp)
 472 053c F21F 5480 	fmove.d (%sp)+,%fp1
 473 0540 F200 0422 	fadd.x %fp1,%fp0
 474 0544 F227 7400 	fmove.d %fp0,-(%sp)
68K GAS   			page 10


 475 0548 201F      	move.l (%sp)+,%d0
 476 054a 221F      	move.l (%sp)+,%d1
 477 054c 2F01      	move.l %d1,-(%sp)
 478 054e 2F00      	move.l %d0,-(%sp)
 479 0550 F21F 5400 	fmove.d (%sp)+,%fp0
 480 0554 F22E 5423 	fmul.d -52(%fp),%fp0
 480      FFCC 
 481 055a F227 7400 	fmove.d %fp0,-(%sp)
 482 055e 201F      	move.l (%sp)+,%d0
 483 0560 221F      	move.l (%sp)+,%d1
 484 0562 2079 0000 	move.l Q3,%a0
 484      0000 
 485 0568 2279 0000 	move.l Q3+4,%a1
 485      0000 
 486 056e 2F01      	move.l %d1,-(%sp)
 487 0570 2F00      	move.l %d0,-(%sp)
 488 0572 F21F 5480 	fmove.d (%sp)+,%fp1
 489 0576 2F09      	move.l %a1,-(%sp)
 490 0578 2F08      	move.l %a0,-(%sp)
 491 057a F21F 5400 	fmove.d (%sp)+,%fp0
 492 057e F200 00A2 	fadd.x %fp0,%fp1
 493 0582 F227 7480 	fmove.d %fp1,-(%sp)
 494 0586 201F      	move.l (%sp)+,%d0
 495 0588 221F      	move.l (%sp)+,%d1
 496 058a 2F01      	move.l %d1,-(%sp)
 497 058c 2F00      	move.l %d0,-(%sp)
 498 058e F21F 5480 	fmove.d (%sp)+,%fp1
 499 0592 F22E 54A3 	fmul.d -52(%fp),%fp1
 499      FFCC 
 500 0598 F227 7480 	fmove.d %fp1,-(%sp)
 501 059c 201F      	move.l (%sp)+,%d0
 502 059e 221F      	move.l (%sp)+,%d1
 503 05a0 2079 0000 	move.l Q2,%a0
 503      0000 
 504 05a6 2279 0000 	move.l Q2+4,%a1
 504      0000 
 505 05ac 2F01      	move.l %d1,-(%sp)
 506 05ae 2F00      	move.l %d0,-(%sp)
 507 05b0 F21F 5400 	fmove.d (%sp)+,%fp0
 508 05b4 2F09      	move.l %a1,-(%sp)
 509 05b6 2F08      	move.l %a0,-(%sp)
 510 05b8 F21F 5480 	fmove.d (%sp)+,%fp1
 511 05bc F200 0422 	fadd.x %fp1,%fp0
 512 05c0 F227 7400 	fmove.d %fp0,-(%sp)
 513 05c4 201F      	move.l (%sp)+,%d0
 514 05c6 221F      	move.l (%sp)+,%d1
 515 05c8 2F01      	move.l %d1,-(%sp)
 516 05ca 2F00      	move.l %d0,-(%sp)
 517 05cc F21F 5400 	fmove.d (%sp)+,%fp0
 518 05d0 F22E 5423 	fmul.d -52(%fp),%fp0
 518      FFCC 
 519 05d6 F227 7400 	fmove.d %fp0,-(%sp)
 520 05da 201F      	move.l (%sp)+,%d0
 521 05dc 221F      	move.l (%sp)+,%d1
 522 05de 2079 0000 	move.l Q1,%a0
 522      0000 
 523 05e4 2279 0000 	move.l Q1+4,%a1
68K GAS   			page 11


 523      0000 
 524 05ea 2F01      	move.l %d1,-(%sp)
 525 05ec 2F00      	move.l %d0,-(%sp)
 526 05ee F21F 5480 	fmove.d (%sp)+,%fp1
 527 05f2 2F09      	move.l %a1,-(%sp)
 528 05f4 2F08      	move.l %a0,-(%sp)
 529 05f6 F21F 5400 	fmove.d (%sp)+,%fp0
 530 05fa F200 00A2 	fadd.x %fp0,%fp1
 531 05fe F227 7480 	fmove.d %fp1,-(%sp)
 532 0602 201F      	move.l (%sp)+,%d0
 533 0604 221F      	move.l (%sp)+,%d1
 534 0606 2F01      	move.l %d1,-(%sp)
 535 0608 2F00      	move.l %d0,-(%sp)
 536 060a F21F 5480 	fmove.d (%sp)+,%fp1
 537 060e F22E 54A3 	fmul.d -52(%fp),%fp1
 537      FFCC 
 538 0614 F227 7480 	fmove.d %fp1,-(%sp)
 539 0618 201F      	move.l (%sp)+,%d0
 540 061a 221F      	move.l (%sp)+,%d1
 541 061c 2079 0000 	move.l one,%a0
 541      0000 
 542 0622 2279 0000 	move.l one+4,%a1
 542      0000 
 543 0628 2F01      	move.l %d1,-(%sp)
 544 062a 2F00      	move.l %d0,-(%sp)
 545 062c F21F 5400 	fmove.d (%sp)+,%fp0
 546 0630 2F09      	move.l %a1,-(%sp)
 547 0632 2F08      	move.l %a0,-(%sp)
 548 0634 F21F 5480 	fmove.d (%sp)+,%fp1
 549 0638 F200 0422 	fadd.x %fp1,%fp0
 550 063c F22E 7400 	fmove.d %fp0,-60(%fp)
 550      FFC4 
 551 0642 F22E 5400 	fmove.d -60(%fp),%fp0
 551      FFC4 
 552 0648 F22E 5423 	fmul.d -44(%fp),%fp0
 552      FFD4 
 553 064e F227 7400 	fmove.d %fp0,-(%sp)
 554 0652 201F      	move.l (%sp)+,%d0
 555 0654 221F      	move.l (%sp)+,%d1
 556 0656 F23C 5480 	fmove.d #0x4008000000000000,%fp1
 556      4008 0000 
 556      0000 0000 
 557 0662 2F01      	move.l %d1,-(%sp)
 558 0664 2F00      	move.l %d0,-(%sp)
 559 0666 F21F 5400 	fmove.d (%sp)+,%fp0
 560 066a F200 00A8 	fsub.x %fp0,%fp1
 561 066e F227 7480 	fmove.d %fp1,-(%sp)
 562 0672 201F      	move.l (%sp)+,%d0
 563 0674 221F      	move.l (%sp)+,%d1
 564 0676 2D40 FFAC 	move.l %d0,-84(%fp)
 565 067a 2D41 FFB0 	move.l %d1,-80(%fp)
 566 067e 202E FFAC 	move.l -84(%fp),%d0
 567 0682 222E FFB0 	move.l -80(%fp),%d1
 568 0686 F22E 5480 	fmove.d -60(%fp),%fp1
 568      FFC4 
 569 068c 2F01      	move.l %d1,-(%sp)
 570 068e 2F00      	move.l %d0,-(%sp)
68K GAS   			page 12


 571 0690 F21F 5400 	fmove.d (%sp)+,%fp0
 572 0694 F200 00A8 	fsub.x %fp0,%fp1
 573 0698 F227 7480 	fmove.d %fp1,-(%sp)
 574 069c 201F      	move.l (%sp)+,%d0
 575 069e 221F      	move.l (%sp)+,%d1
 576 06a0 242E 0008 	move.l 8(%fp),%d2
 577 06a4 262E 000C 	move.l 12(%fp),%d3
 578 06a8 206E FFAC 	move.l -84(%fp),%a0
 579 06ac 226E FFB0 	move.l -80(%fp),%a1
 580 06b0 2F03      	move.l %d3,-(%sp)
 581 06b2 2F02      	move.l %d2,-(%sp)
 582 06b4 F21F 5480 	fmove.d (%sp)+,%fp1
 583 06b8 2F09      	move.l %a1,-(%sp)
 584 06ba 2F08      	move.l %a0,-(%sp)
 585 06bc F21F 5400 	fmove.d (%sp)+,%fp0
 586 06c0 F200 00A3 	fmul.x %fp0,%fp1
 587 06c4 F227 7480 	fmove.d %fp1,-(%sp)
 588 06c8 205F      	move.l (%sp)+,%a0
 589 06ca 225F      	move.l (%sp)+,%a1
 590 06cc F23C 5480 	fmove.d #0x4018000000000000,%fp1
 590      4018 0000 
 590      0000 0000 
 591 06d8 2F09      	move.l %a1,-(%sp)
 592 06da 2F08      	move.l %a0,-(%sp)
 593 06dc F21F 5400 	fmove.d (%sp)+,%fp0
 594 06e0 F200 00A8 	fsub.x %fp0,%fp1
 595 06e4 F227 7480 	fmove.d %fp1,-(%sp)
 596 06e8 205F      	move.l (%sp)+,%a0
 597 06ea 225F      	move.l (%sp)+,%a1
 598 06ec 2F01      	move.l %d1,-(%sp)
 599 06ee 2F00      	move.l %d0,-(%sp)
 600 06f0 F21F 5480 	fmove.d (%sp)+,%fp1
 601 06f4 2F09      	move.l %a1,-(%sp)
 602 06f6 2F08      	move.l %a0,-(%sp)
 603 06f8 F21F 5400 	fmove.d (%sp)+,%fp0
 604 06fc F200 00A0 	fdiv.x %fp0,%fp1
 605 0700 F227 7480 	fmove.d %fp1,-(%sp)
 606 0704 201F      	move.l (%sp)+,%d0
 607 0706 221F      	move.l (%sp)+,%d1
 608 0708 2F01      	move.l %d1,-(%sp)
 609 070a 2F00      	move.l %d0,-(%sp)
 610 070c F21F 5480 	fmove.d (%sp)+,%fp1
 611 0710 F22E 54A3 	fmul.d -52(%fp),%fp1
 611      FFCC 
 612 0716 F22E 7480 	fmove.d %fp1,-68(%fp)
 612      FFBC 
 613 071c 4AAE FFE4 	tst.l -28(%fp)
 614 0720 665C      	jne .L19
 615 0722 206E 0008 	move.l 8(%fp),%a0
 616 0726 226E 000C 	move.l 12(%fp),%a1
 617 072a 202E 0008 	move.l 8(%fp),%d0
 618 072e 222E 000C 	move.l 12(%fp),%d1
 619 0732 2F01      	move.l %d1,-(%sp)
 620 0734 2F00      	move.l %d0,-(%sp)
 621 0736 F21F 5400 	fmove.d (%sp)+,%fp0
 622 073a F22E 5423 	fmul.d -68(%fp),%fp0
 622      FFBC 
68K GAS   			page 13


 623 0740 F227 7400 	fmove.d %fp0,-(%sp)
 624 0744 201F      	move.l (%sp)+,%d0
 625 0746 221F      	move.l (%sp)+,%d1
 626 0748 2F01      	move.l %d1,-(%sp)
 627 074a 2F00      	move.l %d0,-(%sp)
 628 074c F21F 5480 	fmove.d (%sp)+,%fp1
 629 0750 F22E 54A8 	fsub.d -52(%fp),%fp1
 629      FFCC 
 630 0756 F227 7480 	fmove.d %fp1,-(%sp)
 631 075a 201F      	move.l (%sp)+,%d0
 632 075c 221F      	move.l (%sp)+,%d1
 633 075e 2F09      	move.l %a1,-(%sp)
 634 0760 2F08      	move.l %a0,-(%sp)
 635 0762 F21F 5400 	fmove.d (%sp)+,%fp0
 636 0766 2F01      	move.l %d1,-(%sp)
 637 0768 2F00      	move.l %d0,-(%sp)
 638 076a F21F 5480 	fmove.d (%sp)+,%fp1
 639 076e F200 0428 	fsub.x %fp1,%fp0
 640 0772 F227 7400 	fmove.d %fp0,-(%sp)
 641 0776 201F      	move.l (%sp)+,%d0
 642 0778 221F      	move.l (%sp)+,%d1
 643 077a 6000 03C8 	jra .L8
 644               	.L19:
 645 077e F22E 5400 	fmove.d -68(%fp),%fp0
 645      FFBC 
 646 0784 F22E 5428 	fsub.d -24(%fp),%fp0
 646      FFE8 
 647 078a F227 7400 	fmove.d %fp0,-(%sp)
 648 078e 201F      	move.l (%sp)+,%d0
 649 0790 221F      	move.l (%sp)+,%d1
 650 0792 206E 0008 	move.l 8(%fp),%a0
 651 0796 226E 000C 	move.l 12(%fp),%a1
 652 079a 2F01      	move.l %d1,-(%sp)
 653 079c 2F00      	move.l %d0,-(%sp)
 654 079e F21F 5480 	fmove.d (%sp)+,%fp1
 655 07a2 2F09      	move.l %a1,-(%sp)
 656 07a4 2F08      	move.l %a0,-(%sp)
 657 07a6 F21F 5400 	fmove.d (%sp)+,%fp0
 658 07aa F200 00A3 	fmul.x %fp0,%fp1
 659 07ae F227 7480 	fmove.d %fp1,-(%sp)
 660 07b2 201F      	move.l (%sp)+,%d0
 661 07b4 221F      	move.l (%sp)+,%d1
 662 07b6 2F01      	move.l %d1,-(%sp)
 663 07b8 2F00      	move.l %d0,-(%sp)
 664 07ba F21F 5480 	fmove.d (%sp)+,%fp1
 665 07be F22E 54A8 	fsub.d -24(%fp),%fp1
 665      FFE8 
 666 07c4 F22E 7480 	fmove.d %fp1,-68(%fp)
 666      FFBC 
 667 07ca F22E 5400 	fmove.d -68(%fp),%fp0
 667      FFBC 
 668 07d0 F22E 5428 	fsub.d -52(%fp),%fp0
 668      FFCC 
 669 07d6 F22E 7400 	fmove.d %fp0,-68(%fp)
 669      FFBC 
 670 07dc 70FF      	moveq #-1,%d0
 671 07de B0AE FFE4 	cmp.l -28(%fp),%d0
68K GAS   			page 14


 672 07e2 665A      	jne .L20
 673 07e4 202E 0008 	move.l 8(%fp),%d0
 674 07e8 222E 000C 	move.l 12(%fp),%d1
 675 07ec 2F01      	move.l %d1,-(%sp)
 676 07ee 2F00      	move.l %d0,-(%sp)
 677 07f0 F21F 5400 	fmove.d (%sp)+,%fp0
 678 07f4 F22E 5428 	fsub.d -68(%fp),%fp0
 678      FFBC 
 679 07fa F227 7400 	fmove.d %fp0,-(%sp)
 680 07fe 201F      	move.l (%sp)+,%d0
 681 0800 221F      	move.l (%sp)+,%d1
 682 0802 2F01      	move.l %d1,-(%sp)
 683 0804 2F00      	move.l %d0,-(%sp)
 684 0806 F21F 5480 	fmove.d (%sp)+,%fp1
 685 080a F23C 54A3 	fmul.d #0x3fe0000000000000,%fp1
 685      3FE0 0000 
 685      0000 0000 
 686 0816 F227 7480 	fmove.d %fp1,-(%sp)
 687 081a 201F      	move.l (%sp)+,%d0
 688 081c 221F      	move.l (%sp)+,%d1
 689 081e 2F01      	move.l %d1,-(%sp)
 690 0820 2F00      	move.l %d0,-(%sp)
 691 0822 F21F 5400 	fmove.d (%sp)+,%fp0
 692 0826 F23C 5428 	fsub.d #0x3fe0000000000000,%fp0
 692      3FE0 0000 
 692      0000 0000 
 693 0832 F227 7400 	fmove.d %fp0,-(%sp)
 694 0836 201F      	move.l (%sp)+,%d0
 695 0838 221F      	move.l (%sp)+,%d1
 696 083a 6000 0308 	jra .L8
 697               	.L20:
 698 083e 7001      	moveq #1,%d0
 699 0840 B0AE FFE4 	cmp.l -28(%fp),%d0
 700 0844 6600 00EC 	jne .L21
 701 0848 202E 0008 	move.l 8(%fp),%d0
 702 084c 222E 000C 	move.l 12(%fp),%d1
 703 0850 2F01      	move.l %d1,-(%sp)
 704 0852 2F00      	move.l %d0,-(%sp)
 705 0854 F21F 5400 	fmove.d (%sp)+,%fp0
 706 0858 F23C 5438 	fcmp.d #0xbfd0000000000000,%fp0
 706      BFD0 0000 
 706      0000 0000 
 707 0864 F240 0014 	fslt %d0
 708 0868 4400      	neg.b %d0
 709 086a 4A00      	tst.b %d0
 710 086c 675E      	jeq .L22
 711 086e 202E 0008 	move.l 8(%fp),%d0
 712 0872 222E 000C 	move.l 12(%fp),%d1
 713 0876 2F01      	move.l %d1,-(%sp)
 714 0878 2F00      	move.l %d0,-(%sp)
 715 087a F21F 5480 	fmove.d (%sp)+,%fp1
 716 087e F23C 54A2 	fadd.d #0x3fe0000000000000,%fp1
 716      3FE0 0000 
 716      0000 0000 
 717 088a F227 7480 	fmove.d %fp1,-(%sp)
 718 088e 201F      	move.l (%sp)+,%d0
 719 0890 221F      	move.l (%sp)+,%d1
68K GAS   			page 15


 720 0892 F22E 5400 	fmove.d -68(%fp),%fp0
 720      FFBC 
 721 0898 2F01      	move.l %d1,-(%sp)
 722 089a 2F00      	move.l %d0,-(%sp)
 723 089c F21F 5480 	fmove.d (%sp)+,%fp1
 724 08a0 F200 0428 	fsub.x %fp1,%fp0
 725 08a4 F227 7400 	fmove.d %fp0,-(%sp)
 726 08a8 201F      	move.l (%sp)+,%d0
 727 08aa 221F      	move.l (%sp)+,%d1
 728 08ac 2F01      	move.l %d1,-(%sp)
 729 08ae 2F00      	move.l %d0,-(%sp)
 730 08b0 F21F 5400 	fmove.d (%sp)+,%fp0
 731 08b4 F23C 5423 	fmul.d #0xc000000000000000,%fp0
 731      C000 0000 
 731      0000 0000 
 732 08c0 F227 7400 	fmove.d %fp0,-(%sp)
 733 08c4 201F      	move.l (%sp)+,%d0
 734 08c6 221F      	move.l (%sp)+,%d1
 735 08c8 6000 027A 	jra .L8
 736               	.L22:
 737 08cc 202E 0008 	move.l 8(%fp),%d0
 738 08d0 222E 000C 	move.l 12(%fp),%d1
 739 08d4 2F01      	move.l %d1,-(%sp)
 740 08d6 2F00      	move.l %d0,-(%sp)
 741 08d8 F21F 5480 	fmove.d (%sp)+,%fp1
 742 08dc F22E 54A8 	fsub.d -68(%fp),%fp1
 742      FFBC 
 743 08e2 F227 7480 	fmove.d %fp1,-(%sp)
 744 08e6 201F      	move.l (%sp)+,%d0
 745 08e8 221F      	move.l (%sp)+,%d1
 746 08ea 2F01      	move.l %d1,-(%sp)
 747 08ec 2F00      	move.l %d0,-(%sp)
 748 08ee F21F 5400 	fmove.d (%sp)+,%fp0
 749 08f2 2F01      	move.l %d1,-(%sp)
 750 08f4 2F00      	move.l %d0,-(%sp)
 751 08f6 F21F 5480 	fmove.d (%sp)+,%fp1
 752 08fa F200 0422 	fadd.x %fp1,%fp0
 753 08fe F227 7400 	fmove.d %fp0,-(%sp)
 754 0902 201F      	move.l (%sp)+,%d0
 755 0904 221F      	move.l (%sp)+,%d1
 756 0906 2079 0000 	move.l one,%a0
 756      0000 
 757 090c 2279 0000 	move.l one+4,%a1
 757      0000 
 758 0912 2F01      	move.l %d1,-(%sp)
 759 0914 2F00      	move.l %d0,-(%sp)
 760 0916 F21F 5400 	fmove.d (%sp)+,%fp0
 761 091a 2F09      	move.l %a1,-(%sp)
 762 091c 2F08      	move.l %a0,-(%sp)
 763 091e F21F 5480 	fmove.d (%sp)+,%fp1
 764 0922 F200 0422 	fadd.x %fp1,%fp0
 765 0926 F227 7400 	fmove.d %fp0,-(%sp)
 766 092a 201F      	move.l (%sp)+,%d0
 767 092c 221F      	move.l (%sp)+,%d1
 768 092e 6000 0214 	jra .L8
 769               	.L21:
 770 0932 70FF      	moveq #-1,%d0
68K GAS   			page 16


 771 0934 B0AE FFE4 	cmp.l -28(%fp),%d0
 772 0938 6E0A      	jgt .L23
 773 093a 7238      	moveq #56,%d1
 774 093c B2AE FFE4 	cmp.l -28(%fp),%d1
 775 0940 6C00 00A2 	jge .L24
 776               	.L23:
 777 0944 2079 0000 	move.l one,%a0
 777      0000 
 778 094a 2279 0000 	move.l one+4,%a1
 778      0000 
 779 0950 202E 0008 	move.l 8(%fp),%d0
 780 0954 222E 000C 	move.l 12(%fp),%d1
 781 0958 F22E 5400 	fmove.d -68(%fp),%fp0
 781      FFBC 
 782 095e 2F01      	move.l %d1,-(%sp)
 783 0960 2F00      	move.l %d0,-(%sp)
 784 0962 F21F 5480 	fmove.d (%sp)+,%fp1
 785 0966 F200 0428 	fsub.x %fp1,%fp0
 786 096a F227 7400 	fmove.d %fp0,-(%sp)
 787 096e 201F      	move.l (%sp)+,%d0
 788 0970 221F      	move.l (%sp)+,%d1
 789 0972 2F09      	move.l %a1,-(%sp)
 790 0974 2F08      	move.l %a0,-(%sp)
 791 0976 F21F 5400 	fmove.d (%sp)+,%fp0
 792 097a 2F01      	move.l %d1,-(%sp)
 793 097c 2F00      	move.l %d0,-(%sp)
 794 097e F21F 5480 	fmove.d (%sp)+,%fp1
 795 0982 F200 0428 	fsub.x %fp1,%fp0
 796 0986 F227 7400 	fmove.d %fp0,-(%sp)
 797 098a 201F      	move.l (%sp)+,%d0
 798 098c 221F      	move.l (%sp)+,%d1
 799 098e 2D40 FFB4 	move.l %d0,-76(%fp)
 800 0992 2D41 FFB8 	move.l %d1,-72(%fp)
 801 0996 70B4      	moveq #-76,%d0
 802 0998 D08E      	add.l %fp,%d0
 803 099a 72B4      	moveq #-76,%d1
 804 099c D28E      	add.l %fp,%d1
 805 099e 2241      	move.l %d1,%a1
 806 09a0 2051      	move.l (%a1),%a0
 807 09a2 222E FFE4 	move.l -28(%fp),%d1
 808 09a6 7414      	moveq #20,%d2
 809 09a8 E5A9      	lsl.l %d2,%d1
 810 09aa D288      	add.l %a0,%d1
 811 09ac 2040      	move.l %d0,%a0
 812 09ae 2081      	move.l %d1,(%a0)
 813 09b0 202E FFB4 	move.l -76(%fp),%d0
 814 09b4 222E FFB8 	move.l -72(%fp),%d1
 815 09b8 2079 0000 	move.l one,%a0
 815      0000 
 816 09be 2279 0000 	move.l one+4,%a1
 816      0000 
 817 09c4 2F01      	move.l %d1,-(%sp)
 818 09c6 2F00      	move.l %d0,-(%sp)
 819 09c8 F21F 5400 	fmove.d (%sp)+,%fp0
 820 09cc 2F09      	move.l %a1,-(%sp)
 821 09ce 2F08      	move.l %a0,-(%sp)
 822 09d0 F21F 5480 	fmove.d (%sp)+,%fp1
68K GAS   			page 17


 823 09d4 F200 0428 	fsub.x %fp1,%fp0
 824 09d8 F227 7400 	fmove.d %fp0,-(%sp)
 825 09dc 201F      	move.l (%sp)+,%d0
 826 09de 221F      	move.l (%sp)+,%d1
 827 09e0 6000 0162 	jra .L8
 828               	.L24:
 829 09e4 2039 0000 	move.l one,%d0
 829      0000 
 830 09ea 2239 0000 	move.l one+4,%d1
 830      0000 
 831 09f0 2D40 FFAC 	move.l %d0,-84(%fp)
 832 09f4 2D41 FFB0 	move.l %d1,-80(%fp)
 833 09f8 7013      	moveq #19,%d0
 834 09fa B0AE FFE4 	cmp.l -28(%fp),%d0
 835 09fe 6D00 008A 	jlt .L25
 836 0a02 70AC      	moveq #-84,%d0
 837 0a04 D08E      	add.l %fp,%d0
 838 0a06 7220      	moveq #32,%d1
 839 0a08 4841      	swap %d1
 840 0a0a 242E FFE4 	move.l -28(%fp),%d2
 841 0a0e E4A1      	asr.l %d2,%d1
 842 0a10 243C 3FF0 	move.l #1072693248,%d2
 842      0000 
 843 0a16 9481      	sub.l %d1,%d2
 844 0a18 2202      	move.l %d2,%d1
 845 0a1a 2040      	move.l %d0,%a0
 846 0a1c 2081      	move.l %d1,(%a0)
 847 0a1e 206E FFAC 	move.l -84(%fp),%a0
 848 0a22 226E FFB0 	move.l -80(%fp),%a1
 849 0a26 202E 0008 	move.l 8(%fp),%d0
 850 0a2a 222E 000C 	move.l 12(%fp),%d1
 851 0a2e F22E 5400 	fmove.d -68(%fp),%fp0
 851      FFBC 
 852 0a34 2F01      	move.l %d1,-(%sp)
 853 0a36 2F00      	move.l %d0,-(%sp)
 854 0a38 F21F 5480 	fmove.d (%sp)+,%fp1
 855 0a3c F200 0428 	fsub.x %fp1,%fp0
 856 0a40 F227 7400 	fmove.d %fp0,-(%sp)
 857 0a44 201F      	move.l (%sp)+,%d0
 858 0a46 221F      	move.l (%sp)+,%d1
 859 0a48 2F09      	move.l %a1,-(%sp)
 860 0a4a 2F08      	move.l %a0,-(%sp)
 861 0a4c F21F 5400 	fmove.d (%sp)+,%fp0
 862 0a50 2F01      	move.l %d1,-(%sp)
 863 0a52 2F00      	move.l %d0,-(%sp)
 864 0a54 F21F 5480 	fmove.d (%sp)+,%fp1
 865 0a58 F200 0428 	fsub.x %fp1,%fp0
 866 0a5c F227 7400 	fmove.d %fp0,-(%sp)
 867 0a60 201F      	move.l (%sp)+,%d0
 868 0a62 221F      	move.l (%sp)+,%d1
 869 0a64 2D40 FFB4 	move.l %d0,-76(%fp)
 870 0a68 2D41 FFB8 	move.l %d1,-72(%fp)
 871 0a6c 70B4      	moveq #-76,%d0
 872 0a6e D08E      	add.l %fp,%d0
 873 0a70 72B4      	moveq #-76,%d1
 874 0a72 D28E      	add.l %fp,%d1
 875 0a74 2241      	move.l %d1,%a1
68K GAS   			page 18


 876 0a76 2051      	move.l (%a1),%a0
 877 0a78 222E FFE4 	move.l -28(%fp),%d1
 878 0a7c 7414      	moveq #20,%d2
 879 0a7e E5A9      	lsl.l %d2,%d1
 880 0a80 D288      	add.l %a0,%d1
 881 0a82 2040      	move.l %d0,%a0
 882 0a84 2081      	move.l %d1,(%a0)
 883 0a86 6000 00B4 	jra .L26
 884               	.L25:
 885 0a8a 70AC      	moveq #-84,%d0
 886 0a8c D08E      	add.l %fp,%d0
 887 0a8e 223C 0000 	move.l #1023,%d1
 887      03FF 
 888 0a94 92AE FFE4 	sub.l -28(%fp),%d1
 889 0a98 7414      	moveq #20,%d2
 890 0a9a E5A9      	lsl.l %d2,%d1
 891 0a9c 2040      	move.l %d0,%a0
 892 0a9e 2081      	move.l %d1,(%a0)
 893 0aa0 206E 0008 	move.l 8(%fp),%a0
 894 0aa4 226E 000C 	move.l 12(%fp),%a1
 895 0aa8 202E FFAC 	move.l -84(%fp),%d0
 896 0aac 222E FFB0 	move.l -80(%fp),%d1
 897 0ab0 2F01      	move.l %d1,-(%sp)
 898 0ab2 2F00      	move.l %d0,-(%sp)
 899 0ab4 F21F 5400 	fmove.d (%sp)+,%fp0
 900 0ab8 F22E 5422 	fadd.d -68(%fp),%fp0
 900      FFBC 
 901 0abe F227 7400 	fmove.d %fp0,-(%sp)
 902 0ac2 201F      	move.l (%sp)+,%d0
 903 0ac4 221F      	move.l (%sp)+,%d1
 904 0ac6 2F09      	move.l %a1,-(%sp)
 905 0ac8 2F08      	move.l %a0,-(%sp)
 906 0aca F21F 5480 	fmove.d (%sp)+,%fp1
 907 0ace 2F01      	move.l %d1,-(%sp)
 908 0ad0 2F00      	move.l %d0,-(%sp)
 909 0ad2 F21F 5400 	fmove.d (%sp)+,%fp0
 910 0ad6 F200 00A8 	fsub.x %fp0,%fp1
 911 0ada F227 7480 	fmove.d %fp1,-(%sp)
 912 0ade 201F      	move.l (%sp)+,%d0
 913 0ae0 221F      	move.l (%sp)+,%d1
 914 0ae2 2D40 FFB4 	move.l %d0,-76(%fp)
 915 0ae6 2D41 FFB8 	move.l %d1,-72(%fp)
 916 0aea 206E FFB4 	move.l -76(%fp),%a0
 917 0aee 226E FFB8 	move.l -72(%fp),%a1
 918 0af2 2039 0000 	move.l one,%d0
 918      0000 
 919 0af8 2239 0000 	move.l one+4,%d1
 919      0000 
 920 0afe 2F09      	move.l %a1,-(%sp)
 921 0b00 2F08      	move.l %a0,-(%sp)
 922 0b02 F21F 5480 	fmove.d (%sp)+,%fp1
 923 0b06 2F01      	move.l %d1,-(%sp)
 924 0b08 2F00      	move.l %d0,-(%sp)
 925 0b0a F21F 5400 	fmove.d (%sp)+,%fp0
 926 0b0e F200 00A2 	fadd.x %fp0,%fp1
 927 0b12 F227 7480 	fmove.d %fp1,-(%sp)
 928 0b16 201F      	move.l (%sp)+,%d0
68K GAS   			page 19


 929 0b18 221F      	move.l (%sp)+,%d1
 930 0b1a 2D40 FFB4 	move.l %d0,-76(%fp)
 931 0b1e 2D41 FFB8 	move.l %d1,-72(%fp)
 932 0b22 70B4      	moveq #-76,%d0
 933 0b24 D08E      	add.l %fp,%d0
 934 0b26 72B4      	moveq #-76,%d1
 935 0b28 D28E      	add.l %fp,%d1
 936 0b2a 2241      	move.l %d1,%a1
 937 0b2c 2051      	move.l (%a1),%a0
 938 0b2e 222E FFE4 	move.l -28(%fp),%d1
 939 0b32 7414      	moveq #20,%d2
 940 0b34 E5A9      	lsl.l %d2,%d1
 941 0b36 D288      	add.l %a0,%d1
 942 0b38 2040      	move.l %d0,%a0
 943 0b3a 2081      	move.l %d1,(%a0)
 944               	.L26:
 945 0b3c 202E FFB4 	move.l -76(%fp),%d0
 946 0b40 222E FFB8 	move.l -72(%fp),%d1
 947               	.L8:
 948 0b44 2F01      	move.l %d1,-(%sp)
 949 0b46 2F00      	move.l %d0,-(%sp)
 950 0b48 F21F 5400 	fmove.d (%sp)+,%fp0
 951 0b4c 4CDF 003C 	movem.l (%sp)+,#60
 952 0b50 4E5E      	unlk %fp
 953 0b52 4E75      	rts
 955               	.ident"GCC: (GNU) 4.5.1"
 956               	.section.note.GNU-stack,"",@progbits
68K GAS   			page 20


DEFINED SYMBOLS
                            *ABS*:00000000 s_expm1.c
    {standard input}:7      .rodata:00000000 one
    {standard input}:13     .rodata:00000008 huge
    {standard input}:19     .rodata:00000010 tiny
    {standard input}:25     .rodata:00000018 o_threshold
    {standard input}:31     .rodata:00000020 ln2_hi
    {standard input}:37     .rodata:00000028 ln2_lo
    {standard input}:43     .rodata:00000030 invln2
    {standard input}:49     .rodata:00000038 Q1
    {standard input}:55     .rodata:00000040 Q2
    {standard input}:61     .rodata:00000048 Q3
    {standard input}:67     .rodata:00000050 Q4
    {standard input}:73     .rodata:00000058 Q5
    {standard input}:80     .text:00000000 expm1

NO UNDEFINED SYMBOLS
