68K GAS   			page 1


   1               	
   2               	.file"s_nextafter.c"
   3               	.text
   4               	.align2
   5               	.globlnextafter
   7               	nextafter:
   8 0000 4E56 FFE8 	link.w %fp,#-24
   9 0004 200E      	move.l %fp,%d0
  10 0006 5080      	addq.l #8,%d0
  11 0008 2040      	move.l %d0,%a0
  12 000a 2D50 FFFC 	move.l (%a0),-4(%fp)
  13 000e 200E      	move.l %fp,%d0
  14 0010 5080      	addq.l #8,%d0
  15 0012 5880      	addq.l #4,%d0
  16 0014 2040      	move.l %d0,%a0
  17 0016 2010      	move.l (%a0),%d0
  18 0018 2D40 FFF8 	move.l %d0,-8(%fp)
  19 001c 7010      	moveq #16,%d0
  20 001e D08E      	add.l %fp,%d0
  21 0020 2040      	move.l %d0,%a0
  22 0022 2D50 FFF4 	move.l (%a0),-12(%fp)
  23 0026 7010      	moveq #16,%d0
  24 0028 D08E      	add.l %fp,%d0
  25 002a 5880      	addq.l #4,%d0
  26 002c 2040      	move.l %d0,%a0
  27 002e 2010      	move.l (%a0),%d0
  28 0030 2D40 FFF0 	move.l %d0,-16(%fp)
  29 0034 202E FFFC 	move.l -4(%fp),%d0
  30 0038 0880 001F 	bclr #31,%d0
  31 003c 2D40 FFEC 	move.l %d0,-20(%fp)
  32 0040 222E FFF4 	move.l -12(%fp),%d1
  33 0044 0881 001F 	bclr #31,%d1
  34 0048 2D41 FFE8 	move.l %d1,-24(%fp)
  35 004c 0CAE 7FEF 	cmp.l #2146435071,-20(%fp)
  35      FFFF FFEC 
  36 0054 6F12      	jle .L2
  37 0056 202E FFEC 	move.l -20(%fp),%d0
  38 005a 0680 8010 	add.l #-2146435072,%d0
  38      0000 
  39 0060 80AE FFF8 	or.l -8(%fp),%d0
  40 0064 4A80      	tst.l %d0
  41 0066 661C      	jne .L3
  42               	.L2:
  43 0068 0CAE 7FEF 	cmp.l #2146435071,-24(%fp)
  43      FFFF FFE8 
  44 0070 6F42      	jle .L4
  45 0072 202E FFE8 	move.l -24(%fp),%d0
  46 0076 0680 8010 	add.l #-2146435072,%d0
  46      0000 
  47 007c 80AE FFF0 	or.l -16(%fp),%d0
  48 0080 4A80      	tst.l %d0
  49 0082 6730      	jeq .L4
  50               	.L3:
  51 0084 206E 0008 	move.l 8(%fp),%a0
  52 0088 226E 000C 	move.l 12(%fp),%a1
  53 008c 202E 0010 	move.l 16(%fp),%d0
  54 0090 222E 0014 	move.l 20(%fp),%d1
68K GAS   			page 2


  55 0094 2F09      	move.l %a1,-(%sp)
  56 0096 2F08      	move.l %a0,-(%sp)
  57 0098 F21F 5400 	fmove.d (%sp)+,%fp0
  58 009c 2F01      	move.l %d1,-(%sp)
  59 009e 2F00      	move.l %d0,-(%sp)
  60 00a0 F21F 5480 	fmove.d (%sp)+,%fp1
  61 00a4 F200 0422 	fadd.x %fp1,%fp0
  62 00a8 F227 7400 	fmove.d %fp0,-(%sp)
  63 00ac 201F      	move.l (%sp)+,%d0
  64 00ae 221F      	move.l (%sp)+,%d1
  65 00b0 6000 0248 	jra .L5
  66               	.L4:
  67 00b4 206E 0008 	move.l 8(%fp),%a0
  68 00b8 226E 000C 	move.l 12(%fp),%a1
  69 00bc 202E 0010 	move.l 16(%fp),%d0
  70 00c0 222E 0014 	move.l 20(%fp),%d1
  71 00c4 2F09      	move.l %a1,-(%sp)
  72 00c6 2F08      	move.l %a0,-(%sp)
  73 00c8 F21F 5400 	fmove.d (%sp)+,%fp0
  74 00cc 2F01      	move.l %d1,-(%sp)
  75 00ce 2F00      	move.l %d0,-(%sp)
  76 00d0 F21F 5480 	fmove.d (%sp)+,%fp1
  77 00d4 F200 0438 	fcmp.x %fp1,%fp0
  78 00d8 F28E 000E 	fjne .L6
  79 00dc 202E 0008 	move.l 8(%fp),%d0
  80 00e0 222E 000C 	move.l 12(%fp),%d1
  81 00e4 6000 0214 	jra .L5
  82               	.L6:
  83 00e8 202E FFEC 	move.l -20(%fp),%d0
  84 00ec 80AE FFF8 	or.l -8(%fp),%d0
  85 00f0 4A80      	tst.l %d0
  86 00f2 6600 0094 	jne .L7
  87 00f6 200E      	move.l %fp,%d0
  88 00f8 5080      	addq.l #8,%d0
  89 00fa 222E FFF4 	move.l -12(%fp),%d1
  90 00fe 0281 8000 	and.l #-2147483648,%d1
  90      0000 
  91 0104 2040      	move.l %d0,%a0
  92 0106 2081      	move.l %d1,(%a0)
  93 0108 200E      	move.l %fp,%d0
  94 010a 5080      	addq.l #8,%d0
  95 010c 5880      	addq.l #4,%d0
  96 010e 7201      	moveq #1,%d1
  97 0110 2040      	move.l %d0,%a0
  98 0112 2081      	move.l %d1,(%a0)
  99 0114 206E 0008 	move.l 8(%fp),%a0
 100 0118 226E 000C 	move.l 12(%fp),%a1
 101 011c 202E 0008 	move.l 8(%fp),%d0
 102 0120 222E 000C 	move.l 12(%fp),%d1
 103 0124 2F09      	move.l %a1,-(%sp)
 104 0126 2F08      	move.l %a0,-(%sp)
 105 0128 F21F 5400 	fmove.d (%sp)+,%fp0
 106 012c 2F01      	move.l %d1,-(%sp)
 107 012e 2F00      	move.l %d0,-(%sp)
 108 0130 F21F 5480 	fmove.d (%sp)+,%fp1
 109 0134 F200 0423 	fmul.x %fp1,%fp0
 110 0138 F227 7400 	fmove.d %fp0,-(%sp)
68K GAS   			page 3


 111 013c 201F      	move.l (%sp)+,%d0
 112 013e 221F      	move.l (%sp)+,%d1
 113 0140 2D40 0010 	move.l %d0,16(%fp)
 114 0144 2D41 0014 	move.l %d1,20(%fp)
 115 0148 206E 0010 	move.l 16(%fp),%a0
 116 014c 226E 0014 	move.l 20(%fp),%a1
 117 0150 202E 0008 	move.l 8(%fp),%d0
 118 0154 222E 000C 	move.l 12(%fp),%d1
 119 0158 2F09      	move.l %a1,-(%sp)
 120 015a 2F08      	move.l %a0,-(%sp)
 121 015c F21F 5400 	fmove.d (%sp)+,%fp0
 122 0160 2F01      	move.l %d1,-(%sp)
 123 0162 2F00      	move.l %d0,-(%sp)
 124 0164 F21F 5480 	fmove.d (%sp)+,%fp1
 125 0168 F200 0438 	fcmp.x %fp1,%fp0
 126 016c F28E 000E 	fjne .L8
 127 0170 202E 0010 	move.l 16(%fp),%d0
 128 0174 222E 0014 	move.l 20(%fp),%d1
 129 0178 6000 0180 	jra .L5
 130               	.L8:
 131 017c 202E 0008 	move.l 8(%fp),%d0
 132 0180 222E 000C 	move.l 12(%fp),%d1
 133 0184 6000 0174 	jra .L5
 134               	.L7:
 135 0188 4AAE FFFC 	tst.l -4(%fp)
 136 018c 6D3E      	jlt .L9
 137 018e 202E FFFC 	move.l -4(%fp),%d0
 138 0192 B0AE FFF4 	cmp.l -12(%fp),%d0
 139 0196 6E14      	jgt .L10
 140 0198 222E FFFC 	move.l -4(%fp),%d1
 141 019c B2AE FFF4 	cmp.l -12(%fp),%d1
 142 01a0 661A      	jne .L11
 143 01a2 206E FFF8 	move.l -8(%fp),%a0
 144 01a6 B1EE FFF0 	cmp.l -16(%fp),%a0
 145 01aa 6310      	jls .L11
 146               	.L10:
 147 01ac 4AAE FFF8 	tst.l -8(%fp)
 148 01b0 6604      	jne .L12
 149 01b2 53AE FFFC 	subq.l #1,-4(%fp)
 150               	.L12:
 151 01b6 53AE FFF8 	subq.l #1,-8(%fp)
 152 01ba 6056      	jra .L14
 153               	.L11:
 154 01bc 52AE FFF8 	addq.l #1,-8(%fp)
 155 01c0 4AAE FFF8 	tst.l -8(%fp)
 156 01c4 664A      	jne .L20
 157 01c6 52AE FFFC 	addq.l #1,-4(%fp)
 158 01ca 6046      	jra .L14
 159               	.L9:
 160 01cc 4AAE FFF4 	tst.l -12(%fp)
 161 01d0 6C1E      	jge .L15
 162 01d2 202E FFFC 	move.l -4(%fp),%d0
 163 01d6 B0AE FFF4 	cmp.l -12(%fp),%d0
 164 01da 6E14      	jgt .L15
 165 01dc 222E FFFC 	move.l -4(%fp),%d1
 166 01e0 B2AE FFF4 	cmp.l -12(%fp),%d1
 167 01e4 661A      	jne .L16
68K GAS   			page 4


 168 01e6 206E FFF8 	move.l -8(%fp),%a0
 169 01ea B1EE FFF0 	cmp.l -16(%fp),%a0
 170 01ee 6310      	jls .L16
 171               	.L15:
 172 01f0 4AAE FFF8 	tst.l -8(%fp)
 173 01f4 6604      	jne .L17
 174 01f6 53AE FFFC 	subq.l #1,-4(%fp)
 175               	.L17:
 176 01fa 53AE FFF8 	subq.l #1,-8(%fp)
 177 01fe 6012      	jra .L14
 178               	.L16:
 179 0200 52AE FFF8 	addq.l #1,-8(%fp)
 180 0204 4AAE FFF8 	tst.l -8(%fp)
 181 0208 6608      	jne .L14
 182 020a 52AE FFFC 	addq.l #1,-4(%fp)
 183 020e 6002      	jra .L14
 184               	.L20:
 185 0210 4E71      	nop
 186               	.L14:
 187 0212 202E FFFC 	move.l -4(%fp),%d0
 188 0216 0280 7FF0 	and.l #2146435072,%d0
 188      0000 
 189 021c 2D40 FFF4 	move.l %d0,-12(%fp)
 190 0220 0CAE 7FEF 	cmp.l #2146435071,-12(%fp)
 190      FFFF FFF4 
 191 0228 6F28      	jle .L18
 192 022a 202E 0008 	move.l 8(%fp),%d0
 193 022e 222E 000C 	move.l 12(%fp),%d1
 194 0232 2F01      	move.l %d1,-(%sp)
 195 0234 2F00      	move.l %d0,-(%sp)
 196 0236 F21F 5400 	fmove.d (%sp)+,%fp0
 197 023a 2F01      	move.l %d1,-(%sp)
 198 023c 2F00      	move.l %d0,-(%sp)
 199 023e F21F 5480 	fmove.d (%sp)+,%fp1
 200 0242 F200 0422 	fadd.x %fp1,%fp0
 201 0246 F227 7400 	fmove.d %fp0,-(%sp)
 202 024a 201F      	move.l (%sp)+,%d0
 203 024c 221F      	move.l (%sp)+,%d1
 204 024e 6000 00AA 	jra .L5
 205               	.L18:
 206 0252 0CAE 000F 	cmp.l #1048575,-12(%fp)
 206      FFFF FFF4 
 207 025a 6E7E      	jgt .L19
 208 025c 206E 0008 	move.l 8(%fp),%a0
 209 0260 226E 000C 	move.l 12(%fp),%a1
 210 0264 202E 0008 	move.l 8(%fp),%d0
 211 0268 222E 000C 	move.l 12(%fp),%d1
 212 026c 2F09      	move.l %a1,-(%sp)
 213 026e 2F08      	move.l %a0,-(%sp)
 214 0270 F21F 5400 	fmove.d (%sp)+,%fp0
 215 0274 2F01      	move.l %d1,-(%sp)
 216 0276 2F00      	move.l %d0,-(%sp)
 217 0278 F21F 5480 	fmove.d (%sp)+,%fp1
 218 027c F200 0423 	fmul.x %fp1,%fp0
 219 0280 F227 7400 	fmove.d %fp0,-(%sp)
 220 0284 201F      	move.l (%sp)+,%d0
 221 0286 221F      	move.l (%sp)+,%d1
68K GAS   			page 5


 222 0288 2D40 0010 	move.l %d0,16(%fp)
 223 028c 2D41 0014 	move.l %d1,20(%fp)
 224 0290 206E 0010 	move.l 16(%fp),%a0
 225 0294 226E 0014 	move.l 20(%fp),%a1
 226 0298 202E 0008 	move.l 8(%fp),%d0
 227 029c 222E 000C 	move.l 12(%fp),%d1
 228 02a0 2F09      	move.l %a1,-(%sp)
 229 02a2 2F08      	move.l %a0,-(%sp)
 230 02a4 F21F 5400 	fmove.d (%sp)+,%fp0
 231 02a8 2F01      	move.l %d1,-(%sp)
 232 02aa 2F00      	move.l %d0,-(%sp)
 233 02ac F21F 5480 	fmove.d (%sp)+,%fp1
 234 02b0 F200 0438 	fcmp.x %fp1,%fp0
 235 02b4 F281 0024 	fjeq .L19
 236 02b8 7010      	moveq #16,%d0
 237 02ba D08E      	add.l %fp,%d0
 238 02bc 2040      	move.l %d0,%a0
 239 02be 20AE FFFC 	move.l -4(%fp),(%a0)
 240 02c2 7010      	moveq #16,%d0
 241 02c4 D08E      	add.l %fp,%d0
 242 02c6 5880      	addq.l #4,%d0
 243 02c8 222E FFF8 	move.l -8(%fp),%d1
 244 02cc 2040      	move.l %d0,%a0
 245 02ce 2081      	move.l %d1,(%a0)
 246 02d0 202E 0010 	move.l 16(%fp),%d0
 247 02d4 222E 0014 	move.l 20(%fp),%d1
 248 02d8 6020      	jra .L5
 249               	.L19:
 250 02da 200E      	move.l %fp,%d0
 251 02dc 5080      	addq.l #8,%d0
 252 02de 2040      	move.l %d0,%a0
 253 02e0 20AE FFFC 	move.l -4(%fp),(%a0)
 254 02e4 200E      	move.l %fp,%d0
 255 02e6 5080      	addq.l #8,%d0
 256 02e8 5880      	addq.l #4,%d0
 257 02ea 222E FFF8 	move.l -8(%fp),%d1
 258 02ee 2040      	move.l %d0,%a0
 259 02f0 2081      	move.l %d1,(%a0)
 260 02f2 202E 0008 	move.l 8(%fp),%d0
 261 02f6 222E 000C 	move.l 12(%fp),%d1
 262               	.L5:
 263 02fa 2F01      	move.l %d1,-(%sp)
 264 02fc 2F00      	move.l %d0,-(%sp)
 265 02fe F21F 5400 	fmove.d (%sp)+,%fp0
 266 0302 4E5E      	unlk %fp
 267 0304 4E75      	rts
 269               	.ident"GCC: (GNU) 4.5.1"
 270               	.section.note.GNU-stack,"",@progbits
68K GAS   			page 6


DEFINED SYMBOLS
                            *ABS*:00000000 s_nextafter.c
    {standard input}:7      .text:00000000 nextafter

NO UNDEFINED SYMBOLS
