68K GAS   			page 1


   1               	
   2               	.file"strftime.c"
   3               	.section.rodata
   4               	.LC0:
   5 0000 5375 6E00 	.string"Sun"
   6               	.LC1:
   7 0004 4D6F 6E00 	.string"Mon"
   8               	.LC2:
   9 0008 5475 6500 	.string"Tue"
  10               	.LC3:
  11 000c 5765 6400 	.string"Wed"
  12               	.LC4:
  13 0010 5468 7500 	.string"Thu"
  14               	.LC5:
  15 0014 4672 6900 	.string"Fri"
  16               	.LC6:
  17 0018 5361 7400 	.string"Sat"
  18               	.data
  19               	.align2
  22               	_days:
  23 0000 0000 0000 	.long.LC0
  24 0004 0000 0000 	.long.LC1
  25 0008 0000 0000 	.long.LC2
  26 000c 0000 0000 	.long.LC3
  27 0010 0000 0000 	.long.LC4
  28 0014 0000 0000 	.long.LC5
  29 0018 0000 0000 	.long.LC6
  30               	.section.rodata
  31               	.LC7:
  32 001c 4A61 6E00 	.string"Jan"
  33               	.LC8:
  34 0020 4665 6200 	.string"Feb"
  35               	.LC9:
  36 0024 4D61 7200 	.string"Mar"
  37               	.LC10:
  38 0028 4170 7200 	.string"Apr"
  39               	.LC11:
  40 002c 4D61 7900 	.string"May"
  41               	.LC12:
  42 0030 4A75 6E00 	.string"Jun"
  43               	.LC13:
  44 0034 4A75 6C00 	.string"Jul"
  45               	.LC14:
  46 0038 4175 6700 	.string"Aug"
  47               	.LC15:
  48 003c 5365 7000 	.string"Sep"
  49               	.LC16:
  50 0040 4F63 7400 	.string"Oct"
  51               	.LC17:
  52 0044 4E6F 7600 	.string"Nov"
  53               	.LC18:
  54 0048 4465 6300 	.string"Dec"
  55               	.data
  56               	.align2
  59               	_months:
  60 001c 0000 0000 	.long.LC7
  61 0020 0000 0000 	.long.LC8
68K GAS   			page 2


  62 0024 0000 0000 	.long.LC9
  63 0028 0000 0000 	.long.LC10
  64 002c 0000 0000 	.long.LC11
  65 0030 0000 0000 	.long.LC12
  66 0034 0000 0000 	.long.LC13
  67 0038 0000 0000 	.long.LC14
  68 003c 0000 0000 	.long.LC15
  69 0040 0000 0000 	.long.LC16
  70 0044 0000 0000 	.long.LC17
  71 0048 0000 0000 	.long.LC18
  72               	.section.rodata
  73               	.LC19:
  74 004c 616D 00   	.string"am"
  75               	.LC20:
  76 004f 706D 00   	.string"pm"
  77               	.data
  78               	.align2
  81               	_ampm:
  82 004c 0000 0000 	.long.LC19
  83 0050 0000 0000 	.long.LC20
  84               	.section.rodata
  85               	.LC21:
  86 0052 5375 6E64 	.string"Sunday"
  86      6179 00
  87               	.LC22:
  88 0059 4D6F 6E64 	.string"Monday"
  88      6179 00
  89               	.LC23:
  90 0060 5475 6573 	.string"Tuesday"
  90      6461 7900 
  91               	.LC24:
  92 0068 5765 646E 	.string"Wednesday"
  92      6573 6461 
  92      7900 
  93               	.LC25:
  94 0072 5468 7572 	.string"Thursday"
  94      7364 6179 
  94      00
  95               	.LC26:
  96 007b 4672 6964 	.string"Friday"
  96      6179 00
  97               	.LC27:
  98 0082 5361 7475 	.string"Saturday"
  98      7264 6179 
  98      00
  99               	.data
 100               	.align2
 103               	_ldays:
 104 0054 0000 0000 	.long.LC21
 105 0058 0000 0000 	.long.LC22
 106 005c 0000 0000 	.long.LC23
 107 0060 0000 0000 	.long.LC24
 108 0064 0000 0000 	.long.LC25
 109 0068 0000 0000 	.long.LC26
 110 006c 0000 0000 	.long.LC27
 111               	.section.rodata
 112               	.LC28:
68K GAS   			page 3


 113 008b 4A61 6E75 	.string"January"
 113      6172 7900 
 114               	.LC29:
 115 0093 4665 6272 	.string"February"
 115      7561 7279 
 115      00
 116               	.LC30:
 117 009c 4D61 7263 	.string"March"
 117      6800 
 118               	.LC31:
 119 00a2 4170 7269 	.string"April"
 119      6C00 
 120               	.LC32:
 121 00a8 4A75 6E65 	.string"June"
 121      00
 122               	.LC33:
 123 00ad 4A75 6C79 	.string"July"
 123      00
 124               	.LC34:
 125 00b2 4175 6775 	.string"August"
 125      7374 00
 126               	.LC35:
 127 00b9 5365 7074 	.string"September"
 127      656D 6265 
 127      7200 
 128               	.LC36:
 129 00c3 4F63 746F 	.string"October"
 129      6265 7200 
 130               	.LC37:
 131 00cb 4E6F 7665 	.string"November"
 131      6D62 6572 
 131      00
 132               	.LC38:
 133 00d4 4465 6365 	.string"December"
 133      6D62 6572 
 133      00
 134               	.data
 135               	.align2
 138               	_lmonths:
 139 0070 0000 0000 	.long.LC28
 140 0074 0000 0000 	.long.LC29
 141 0078 0000 0000 	.long.LC30
 142 007c 0000 0000 	.long.LC31
 143 0080 0000 0000 	.long.LC11
 144 0084 0000 0000 	.long.LC32
 145 0088 0000 0000 	.long.LC33
 146 008c 0000 0000 	.long.LC34
 147 0090 0000 0000 	.long.LC35
 148 0094 0000 0000 	.long.LC36
 149 0098 0000 0000 	.long.LC37
 150 009c 0000 0000 	.long.LC38
 151               	.text
 152               	.align2
 154               	pstr:
 155 0000 4E56 FFFC 	link.w %fp,#-4
 156 0004 202E 0014 	move.l 20(%fp),%d0
 157 0008 2040      	move.l %d0,%a0
68K GAS   			page 4


 158 000a 2010      	move.l (%a0),%d0
 159 000c B0AE 0010 	cmp.l 16(%fp),%d0
 160 0010 6F04      	jle .L2
 161 0012 7001      	moveq #1,%d0
 162 0014 607A      	jra .L3
 163               	.L2:
 164 0016 2F2E 000C 	move.l 12(%fp),-(%sp)
 165 001a 4EB9 0000 	jsr strlen
 165      0000 
 166 0020 588F      	addq.l #4,%sp
 167 0022 2D40 FFFC 	move.l %d0,-4(%fp)
 168 0026 202E 0014 	move.l 20(%fp),%d0
 169 002a 2040      	move.l %d0,%a0
 170 002c 2010      	move.l (%a0),%d0
 171 002e D1AE 0008 	add.l %d0,8(%fp)
 172 0032 6030      	jra .L4
 173               	.L6:
 174 0034 202E 000C 	move.l 12(%fp),%d0
 175 0038 2040      	move.l %d0,%a0
 176 003a 1210      	move.b (%a0),%d1
 177 003c 202E 0008 	move.l 8(%fp),%d0
 178 0040 2040      	move.l %d0,%a0
 179 0042 1081      	move.b %d1,(%a0)
 180 0044 52AE 0008 	addq.l #1,8(%fp)
 181 0048 52AE 000C 	addq.l #1,12(%fp)
 182 004c 202E 0014 	move.l 20(%fp),%d0
 183 0050 2040      	move.l %d0,%a0
 184 0052 2010      	move.l (%a0),%d0
 185 0054 2200      	move.l %d0,%d1
 186 0056 5281      	addq.l #1,%d1
 187 0058 202E 0014 	move.l 20(%fp),%d0
 188 005c 2040      	move.l %d0,%a0
 189 005e 2081      	move.l %d1,(%a0)
 190 0060 53AE FFFC 	subq.l #1,-4(%fp)
 191               	.L4:
 192 0064 202E 0014 	move.l 20(%fp),%d0
 193 0068 2040      	move.l %d0,%a0
 194 006a 2210      	move.l (%a0),%d1
 195 006c 202E 0010 	move.l 16(%fp),%d0
 196 0070 5380      	subq.l #1,%d0
 197 0072 B081      	cmp.l %d1,%d0
 198 0074 6F06      	jle .L5
 199 0076 4AAE FFFC 	tst.l -4(%fp)
 200 007a 66B8      	jne .L6
 201               	.L5:
 202 007c 202E 0008 	move.l 8(%fp),%d0
 203 0080 2040      	move.l %d0,%a0
 204 0082 4210      	clr.b (%a0)
 205 0084 4AAE FFFC 	tst.l -4(%fp)
 206 0088 6704      	jeq .L7
 207 008a 7001      	moveq #1,%d0
 208 008c 6002      	jra .L3
 209               	.L7:
 210 008e 4280      	clr.l %d0
 211               	.L3:
 212 0090 4E5E      	unlk %fp
 213 0092 4E75      	rts
68K GAS   			page 5


 215               	.align2
 217               	pchar:
 218 0094 4E56 FFFC 	link.w %fp,#-4
 219 0098 202E 000C 	move.l 12(%fp),%d0
 220 009c 1D40 FFFE 	move.b %d0,-2(%fp)
 221 00a0 202E 0014 	move.l 20(%fp),%d0
 222 00a4 2040      	move.l %d0,%a0
 223 00a6 2010      	move.l (%a0),%d0
 224 00a8 B0AE 0010 	cmp.l 16(%fp),%d0
 225 00ac 6F04      	jle .L9
 226 00ae 7001      	moveq #1,%d0
 227 00b0 6038      	jra .L10
 228               	.L9:
 229 00b2 202E 0014 	move.l 20(%fp),%d0
 230 00b6 2040      	move.l %d0,%a0
 231 00b8 2010      	move.l (%a0),%d0
 232 00ba D1AE 0008 	add.l %d0,8(%fp)
 233 00be 202E 0008 	move.l 8(%fp),%d0
 234 00c2 2040      	move.l %d0,%a0
 235 00c4 10AE FFFE 	move.b -2(%fp),(%a0)
 236 00c8 52AE 0008 	addq.l #1,8(%fp)
 237 00cc 202E 0014 	move.l 20(%fp),%d0
 238 00d0 2040      	move.l %d0,%a0
 239 00d2 2010      	move.l (%a0),%d0
 240 00d4 2200      	move.l %d0,%d1
 241 00d6 5281      	addq.l #1,%d1
 242 00d8 202E 0014 	move.l 20(%fp),%d0
 243 00dc 2040      	move.l %d0,%a0
 244 00de 2081      	move.l %d1,(%a0)
 245 00e0 202E 0008 	move.l 8(%fp),%d0
 246 00e4 2040      	move.l %d0,%a0
 247 00e6 4210      	clr.b (%a0)
 248 00e8 4280      	clr.l %d0
 249               	.L10:
 250 00ea 4E5E      	unlk %fp
 251 00ec 4E75      	rts
 253               	.align2
 255               	pnum:
 256 00ee 4E56 FFEC 	link.w %fp,#-20
 257 00f2 2F02      	move.l %d2,-(%sp)
 258 00f4 70ED      	moveq #-19,%d0
 259 00f6 D08E      	add.l %fp,%d0
 260 00f8 7209      	moveq #9,%d1
 261 00fa D280      	add.l %d0,%d1
 262 00fc 2D41 FFFC 	move.l %d1,-4(%fp)
 263 0100 42AE FFF8 	clr.l -8(%fp)
 264 0104 6012      	jra .L12
 265               	.L13:
 266 0106 70ED      	moveq #-19,%d0
 267 0108 D08E      	add.l %fp,%d0
 268 010a D0AE FFF8 	add.l -8(%fp),%d0
 269 010e 2040      	move.l %d0,%a0
 270 0110 10BC 0030 	move.b #48,(%a0)
 271 0114 52AE FFF8 	addq.l #1,-8(%fp)
 272               	.L12:
 273 0118 7009      	moveq #9,%d0
 274 011a B0AE FFF8 	cmp.l -8(%fp),%d0
68K GAS   			page 6


 275 011e 6CE6      	jge .L13
 276 0120 422E FFF7 	clr.b -9(%fp)
 277 0124 605C      	jra .L14
 278               	.L15:
 279 0126 222E 000C 	move.l 12(%fp),%d1
 280 012a 2401      	move.l %d1,%d2
 281 012c 4C3C 2C00 	muls.l #1717986919,%d0:%d2
 281      6666 6667 
 282 0134 E480      	asr.l #2,%d0
 283 0136 2401      	move.l %d1,%d2
 284 0138 D482      	add.l %d2,%d2
 285 013a 9582      	subx.l %d2,%d2
 286 013c 2042      	move.l %d2,%a0
 287 013e 9088      	sub.l %a0,%d0
 288 0140 D080      	add.l %d0,%d0
 289 0142 2400      	move.l %d0,%d2
 290 0144 E58A      	lsl.l #2,%d2
 291 0146 2042      	move.l %d2,%a0
 292 0148 D088      	add.l %a0,%d0
 293 014a 2401      	move.l %d1,%d2
 294 014c 9480      	sub.l %d0,%d2
 295 014e 2002      	move.l %d2,%d0
 296 0150 1000      	move.b %d0,%d0
 297 0152 0600 0030 	add.b #48,%d0
 298 0156 1200      	move.b %d0,%d1
 299 0158 202E FFFC 	move.l -4(%fp),%d0
 300 015c 2040      	move.l %d0,%a0
 301 015e 1081      	move.b %d1,(%a0)
 302 0160 53AE FFFC 	subq.l #1,-4(%fp)
 303 0164 202E 000C 	move.l 12(%fp),%d0
 304 0168 2400      	move.l %d0,%d2
 305 016a 4C3C 2C01 	muls.l #1717986919,%d1:%d2
 305      6666 6667 
 306 0172 E481      	asr.l #2,%d1
 307 0174 D080      	add.l %d0,%d0
 308 0176 9180      	subx.l %d0,%d0
 309 0178 2401      	move.l %d1,%d2
 310 017a 9480      	sub.l %d0,%d2
 311 017c 2002      	move.l %d2,%d0
 312 017e 2D40 000C 	move.l %d0,12(%fp)
 313               	.L14:
 314 0182 4AAE 000C 	tst.l 12(%fp)
 315 0186 669E      	jne .L15
 316 0188 202E 0010 	move.l 16(%fp),%d0
 317 018c 720A      	moveq #10,%d1
 318 018e 9280      	sub.l %d0,%d1
 319 0190 2001      	move.l %d1,%d0
 320 0192 72ED      	moveq #-19,%d1
 321 0194 D28E      	add.l %fp,%d1
 322 0196 D081      	add.l %d1,%d0
 323 0198 2F2E 0018 	move.l 24(%fp),-(%sp)
 324 019c 2F2E 0014 	move.l 20(%fp),-(%sp)
 325 01a0 2F00      	move.l %d0,-(%sp)
 326 01a2 2F2E 0008 	move.l 8(%fp),-(%sp)
 327 01a6 4EBA FE58 	jsr pstr
 328 01aa 4FEF 0010 	lea (16,%sp),%sp
 329 01ae 242E FFE8 	move.l -24(%fp),%d2
68K GAS   			page 7


 330 01b2 4E5E      	unlk %fp
 331 01b4 4E75      	rts
 333               	.section.rodata
 334               	.LC39:
 335 00dd 2000      	.string" "
 336               	.LC40:
 337 00df 3A00      	.string":"
 338               	.LC41:
 339 00e1 4561 7374 	.string"Eastern Standard Time"
 339      6572 6E20 
 339      5374 616E 
 339      6461 7264 
 339      2054 696D 
 340               	.text
 341               	.align2
 342               	.globlstrftime
 344               	strftime:
 345 01b6 4E56 FFF8 	link.w %fp,#-8
 346 01ba 2F02      	move.l %d2,-(%sp)
 347 01bc 42AE FFF8 	clr.l -8(%fp)
 348 01c0 42AE FFFC 	clr.l -4(%fp)
 349 01c4 6000 0908 	jra .L17
 350               	.L80:
 351 01c8 202E FFFC 	move.l -4(%fp),%d0
 352 01cc D0AE 0010 	add.l 16(%fp),%d0
 353 01d0 2040      	move.l %d0,%a0
 354 01d2 1010      	move.b (%a0),%d0
 355 01d4 0C00 0025 	cmp.b #37,%d0
 356 01d8 6600 086A 	jne .L18
 357 01dc 52AE FFFC 	addq.l #1,-4(%fp)
 358 01e0 202E FFFC 	move.l -4(%fp),%d0
 359 01e4 D0AE 0010 	add.l 16(%fp),%d0
 360 01e8 2240      	move.l %d0,%a1
 361 01ea 1011      	move.b (%a1),%d0
 362 01ec 49C0      	extb.l %d0
 363 01ee 72BF      	moveq #-65,%d1
 364 01f0 D081      	add.l %d1,%d0
 365 01f2 7439      	moveq #57,%d2
 366 01f4 B480      	cmp.l %d0,%d2
 367 01f6 6500 0818 	jcs .L19
 368 01fa 303B 0A06 	move.w .L41(%pc,%d0.l*2),%d0
 369 01fe 4EFB 0002 	jmp %pc@(2,%d0:w)
 370               	.balignw 2,0x284c
 371               	.L41:
 372 0202 00AC      	.word .L20-.L41
 373 0204 011C      	.word .L21-.L41
 374 0206 080E      	.word .L19-.L41
 375 0208 080E      	.word .L19-.L41
 376 020a 080E      	.word .L19-.L41
 377 020c 080E      	.word .L19-.L41
 378 020e 080E      	.word .L19-.L41
 379 0210 0328      	.word .L22-.L41
 380 0212 080E      	.word .L19-.L41
 381 0214 080E      	.word .L19-.L41
 382 0216 080E      	.word .L19-.L41
 383 0218 080E      	.word .L19-.L41
 384 021a 0422      	.word .L23-.L41
68K GAS   			page 8


 385 021c 080E      	.word .L19-.L41
 386 021e 080E      	.word .L19-.L41
 387 0220 0456      	.word .L24-.L41
 388 0222 080E      	.word .L19-.L41
 389 0224 080E      	.word .L19-.L41
 390 0226 04A4      	.word .L25-.L41
 391 0228 080E      	.word .L19-.L41
 392 022a 04D6      	.word .L26-.L41
 393 022c 080E      	.word .L19-.L41
 394 022e 056C      	.word .L27-.L41
 395 0230 0662      	.word .L28-.L41
 396 0232 07AA      	.word .L29-.L41
 397 0234 080E      	.word .L19-.L41
 398 0236 080E      	.word .L19-.L41
 399 0238 080E      	.word .L19-.L41
 400 023a 080E      	.word .L19-.L41
 401 023c 080E      	.word .L19-.L41
 402 023e 080E      	.word .L19-.L41
 403 0240 080E      	.word .L19-.L41
 404 0242 0074      	.word .L30-.L41
 405 0244 00E4      	.word .L31-.L41
 406 0246 0154      	.word .L32-.L41
 407 0248 02F4      	.word .L33-.L41
 408 024a 080E      	.word .L19-.L41
 409 024c 080E      	.word .L19-.L41
 410 024e 080E      	.word .L19-.L41
 411 0250 080E      	.word .L19-.L41
 412 0252 035C      	.word .L34-.L41
 413 0254 03BA      	.word .L35-.L41
 414 0256 080E      	.word .L19-.L41
 415 0258 080E      	.word .L19-.L41
 416 025a 03EE      	.word .L36-.L41
 417 025c 080E      	.word .L19-.L41
 418 025e 080E      	.word .L19-.L41
 419 0260 080E      	.word .L19-.L41
 420 0262 080E      	.word .L19-.L41
 421 0264 080E      	.word .L19-.L41
 422 0266 080E      	.word .L19-.L41
 423 0268 080E      	.word .L19-.L41
 424 026a 080E      	.word .L19-.L41
 425 026c 080E      	.word .L19-.L41
 426 026e 0538      	.word .L37-.L41
 427 0270 05CE      	.word .L38-.L41
 428 0272 0748      	.word .L39-.L41
 429 0274 07E4      	.word .L40-.L41
 430               	.L30:
 431 0276 206E 000C 	move.l 12(%fp),%a0
 432 027a 202E 0014 	move.l 20(%fp),%d0
 433 027e 2240      	move.l %d0,%a1
 434 0280 2029 0018 	move.l 24(%a1),%d0
 435 0284 2230 0DB0 	move.l _days(%d0.l*4),%d1
 435      0000 0000 
 436 028c 200E      	move.l %fp,%d0
 437 028e 5180      	subq.l #8,%d0
 438 0290 2F00      	move.l %d0,-(%sp)
 439 0292 2F08      	move.l %a0,-(%sp)
 440 0294 2F01      	move.l %d1,-(%sp)
68K GAS   			page 9


 441 0296 2F2E 0008 	move.l 8(%fp),-(%sp)
 442 029a 4EBA FD64 	jsr pstr
 443 029e 4FEF 0010 	lea (16,%sp),%sp
 444 02a2 4A80      	tst.l %d0
 445 02a4 6700 07CE 	jeq .L81
 446 02a8 4280      	clr.l %d0
 447 02aa 6000 083C 	jra .L43
 448               	.L20:
 449 02ae 206E 000C 	move.l 12(%fp),%a0
 450 02b2 202E 0014 	move.l 20(%fp),%d0
 451 02b6 2240      	move.l %d0,%a1
 452 02b8 2029 0018 	move.l 24(%a1),%d0
 453 02bc 2230 0DB0 	move.l _ldays(%d0.l*4),%d1
 453      0000 0000 
 454 02c4 200E      	move.l %fp,%d0
 455 02c6 5180      	subq.l #8,%d0
 456 02c8 2F00      	move.l %d0,-(%sp)
 457 02ca 2F08      	move.l %a0,-(%sp)
 458 02cc 2F01      	move.l %d1,-(%sp)
 459 02ce 2F2E 0008 	move.l 8(%fp),-(%sp)
 460 02d2 4EBA FD2C 	jsr pstr
 461 02d6 4FEF 0010 	lea (16,%sp),%sp
 462 02da 4A80      	tst.l %d0
 463 02dc 6700 079A 	jeq .L82
 464 02e0 4280      	clr.l %d0
 465 02e2 6000 0804 	jra .L43
 466               	.L31:
 467 02e6 206E 000C 	move.l 12(%fp),%a0
 468 02ea 202E 0014 	move.l 20(%fp),%d0
 469 02ee 2240      	move.l %d0,%a1
 470 02f0 2029 0010 	move.l 16(%a1),%d0
 471 02f4 2230 0DB0 	move.l _months(%d0.l*4),%d1
 471      0000 0000 
 472 02fc 200E      	move.l %fp,%d0
 473 02fe 5180      	subq.l #8,%d0
 474 0300 2F00      	move.l %d0,-(%sp)
 475 0302 2F08      	move.l %a0,-(%sp)
 476 0304 2F01      	move.l %d1,-(%sp)
 477 0306 2F2E 0008 	move.l 8(%fp),-(%sp)
 478 030a 4EBA FCF4 	jsr pstr
 479 030e 4FEF 0010 	lea (16,%sp),%sp
 480 0312 4A80      	tst.l %d0
 481 0314 6700 0766 	jeq .L83
 482 0318 4280      	clr.l %d0
 483 031a 6000 07CC 	jra .L43
 484               	.L21:
 485 031e 206E 000C 	move.l 12(%fp),%a0
 486 0322 202E 0014 	move.l 20(%fp),%d0
 487 0326 2240      	move.l %d0,%a1
 488 0328 2029 0010 	move.l 16(%a1),%d0
 489 032c 2230 0DB0 	move.l _lmonths(%d0.l*4),%d1
 489      0000 0000 
 490 0334 200E      	move.l %fp,%d0
 491 0336 5180      	subq.l #8,%d0
 492 0338 2F00      	move.l %d0,-(%sp)
 493 033a 2F08      	move.l %a0,-(%sp)
 494 033c 2F01      	move.l %d1,-(%sp)
68K GAS   			page 10


 495 033e 2F2E 0008 	move.l 8(%fp),-(%sp)
 496 0342 4EBA FCBC 	jsr pstr
 497 0346 4FEF 0010 	lea (16,%sp),%sp
 498 034a 4A80      	tst.l %d0
 499 034c 6700 0732 	jeq .L84
 500 0350 4280      	clr.l %d0
 501 0352 6000 0794 	jra .L43
 502               	.L32:
 503 0356 206E 000C 	move.l 12(%fp),%a0
 504 035a 202E 0014 	move.l 20(%fp),%d0
 505 035e 2240      	move.l %d0,%a1
 506 0360 2229 000C 	move.l 12(%a1),%d1
 507 0364 200E      	move.l %fp,%d0
 508 0366 5180      	subq.l #8,%d0
 509 0368 2F00      	move.l %d0,-(%sp)
 510 036a 2F08      	move.l %a0,-(%sp)
 511 036c 4878 0002 	pea 2.w
 512 0370 2F01      	move.l %d1,-(%sp)
 513 0372 2F2E 0008 	move.l 8(%fp),-(%sp)
 514 0376 4EBA FD76 	jsr pnum
 515 037a 4FEF 0014 	lea (20,%sp),%sp
 516 037e 4A80      	tst.l %d0
 517 0380 6706      	jeq .L48
 518 0382 4280      	clr.l %d0
 519 0384 6000 0762 	jra .L43
 520               	.L48:
 521 0388 222E 000C 	move.l 12(%fp),%d1
 522 038c 200E      	move.l %fp,%d0
 523 038e 5180      	subq.l #8,%d0
 524 0390 2F00      	move.l %d0,-(%sp)
 525 0392 2F01      	move.l %d1,-(%sp)
 526 0394 4879 0000 	pea .LC39
 526      0000 
 527 039a 2F2E 0008 	move.l 8(%fp),-(%sp)
 528 039e 4EBA FC60 	jsr pstr
 529 03a2 4FEF 0010 	lea (16,%sp),%sp
 530 03a6 4A80      	tst.l %d0
 531 03a8 6706      	jeq .L49
 532 03aa 4280      	clr.l %d0
 533 03ac 6000 073A 	jra .L43
 534               	.L49:
 535 03b0 206E 000C 	move.l 12(%fp),%a0
 536 03b4 202E 0014 	move.l 20(%fp),%d0
 537 03b8 2240      	move.l %d0,%a1
 538 03ba 2229 0008 	move.l 8(%a1),%d1
 539 03be 200E      	move.l %fp,%d0
 540 03c0 5180      	subq.l #8,%d0
 541 03c2 2F00      	move.l %d0,-(%sp)
 542 03c4 2F08      	move.l %a0,-(%sp)
 543 03c6 4878 0002 	pea 2.w
 544 03ca 2F01      	move.l %d1,-(%sp)
 545 03cc 2F2E 0008 	move.l 8(%fp),-(%sp)
 546 03d0 4EBA FD1C 	jsr pnum
 547 03d4 4FEF 0014 	lea (20,%sp),%sp
 548 03d8 4A80      	tst.l %d0
 549 03da 6706      	jeq .L50
 550 03dc 4280      	clr.l %d0
68K GAS   			page 11


 551 03de 6000 0708 	jra .L43
 552               	.L50:
 553 03e2 222E 000C 	move.l 12(%fp),%d1
 554 03e6 200E      	move.l %fp,%d0
 555 03e8 5180      	subq.l #8,%d0
 556 03ea 2F00      	move.l %d0,-(%sp)
 557 03ec 2F01      	move.l %d1,-(%sp)
 558 03ee 4879 0000 	pea .LC40
 558      0000 
 559 03f4 2F2E 0008 	move.l 8(%fp),-(%sp)
 560 03f8 4EBA FC06 	jsr pstr
 561 03fc 4FEF 0010 	lea (16,%sp),%sp
 562 0400 4A80      	tst.l %d0
 563 0402 6706      	jeq .L51
 564 0404 4280      	clr.l %d0
 565 0406 6000 06E0 	jra .L43
 566               	.L51:
 567 040a 206E 000C 	move.l 12(%fp),%a0
 568 040e 202E 0014 	move.l 20(%fp),%d0
 569 0412 2240      	move.l %d0,%a1
 570 0414 2229 0004 	move.l 4(%a1),%d1
 571 0418 200E      	move.l %fp,%d0
 572 041a 5180      	subq.l #8,%d0
 573 041c 2F00      	move.l %d0,-(%sp)
 574 041e 2F08      	move.l %a0,-(%sp)
 575 0420 4878 0002 	pea 2.w
 576 0424 2F01      	move.l %d1,-(%sp)
 577 0426 2F2E 0008 	move.l 8(%fp),-(%sp)
 578 042a 4EBA FCC2 	jsr pnum
 579 042e 4FEF 0014 	lea (20,%sp),%sp
 580 0432 4A80      	tst.l %d0
 581 0434 6706      	jeq .L52
 582 0436 4280      	clr.l %d0
 583 0438 6000 06AE 	jra .L43
 584               	.L52:
 585 043c 222E 000C 	move.l 12(%fp),%d1
 586 0440 200E      	move.l %fp,%d0
 587 0442 5180      	subq.l #8,%d0
 588 0444 2F00      	move.l %d0,-(%sp)
 589 0446 2F01      	move.l %d1,-(%sp)
 590 0448 4879 0000 	pea .LC40
 590      0000 
 591 044e 2F2E 0008 	move.l 8(%fp),-(%sp)
 592 0452 4EBA FBAC 	jsr pstr
 593 0456 4FEF 0010 	lea (16,%sp),%sp
 594 045a 4A80      	tst.l %d0
 595 045c 6706      	jeq .L53
 596 045e 4280      	clr.l %d0
 597 0460 6000 0686 	jra .L43
 598               	.L53:
 599 0464 206E 000C 	move.l 12(%fp),%a0
 600 0468 202E 0014 	move.l 20(%fp),%d0
 601 046c 2240      	move.l %d0,%a1
 602 046e 2211      	move.l (%a1),%d1
 603 0470 200E      	move.l %fp,%d0
 604 0472 5180      	subq.l #8,%d0
 605 0474 2F00      	move.l %d0,-(%sp)
68K GAS   			page 12


 606 0476 2F08      	move.l %a0,-(%sp)
 607 0478 4878 0002 	pea 2.w
 608 047c 2F01      	move.l %d1,-(%sp)
 609 047e 2F2E 0008 	move.l 8(%fp),-(%sp)
 610 0482 4EBA FC6A 	jsr pnum
 611 0486 4FEF 0014 	lea (20,%sp),%sp
 612 048a 4A80      	tst.l %d0
 613 048c 6706      	jeq .L54
 614 048e 4280      	clr.l %d0
 615 0490 6000 0656 	jra .L43
 616               	.L54:
 617 0494 222E 000C 	move.l 12(%fp),%d1
 618 0498 200E      	move.l %fp,%d0
 619 049a 5180      	subq.l #8,%d0
 620 049c 2F00      	move.l %d0,-(%sp)
 621 049e 2F01      	move.l %d1,-(%sp)
 622 04a0 4879 0000 	pea .LC39
 622      0000 
 623 04a6 2F2E 0008 	move.l 8(%fp),-(%sp)
 624 04aa 4EBA FB54 	jsr pstr
 625 04ae 4FEF 0010 	lea (16,%sp),%sp
 626 04b2 4A80      	tst.l %d0
 627 04b4 6706      	jeq .L55
 628 04b6 4280      	clr.l %d0
 629 04b8 6000 062E 	jra .L43
 630               	.L55:
 631 04bc 206E 000C 	move.l 12(%fp),%a0
 632 04c0 202E 0014 	move.l 20(%fp),%d0
 633 04c4 2240      	move.l %d0,%a1
 634 04c6 2029 0014 	move.l 20(%a1),%d0
 635 04ca 0680 0000 	add.l #1900,%d0
 635      076C 
 636 04d0 220E      	move.l %fp,%d1
 637 04d2 5181      	subq.l #8,%d1
 638 04d4 2F01      	move.l %d1,-(%sp)
 639 04d6 2F08      	move.l %a0,-(%sp)
 640 04d8 4878 0004 	pea 4.w
 641 04dc 2F00      	move.l %d0,-(%sp)
 642 04de 2F2E 0008 	move.l 8(%fp),-(%sp)
 643 04e2 4EBA FC0A 	jsr pnum
 644 04e6 4FEF 0014 	lea (20,%sp),%sp
 645 04ea 4A80      	tst.l %d0
 646 04ec 6700 0596 	jeq .L85
 647 04f0 4280      	clr.l %d0
 648 04f2 6000 05F4 	jra .L43
 649               	.L33:
 650 04f6 206E 000C 	move.l 12(%fp),%a0
 651 04fa 202E 0014 	move.l 20(%fp),%d0
 652 04fe 2240      	move.l %d0,%a1
 653 0500 2229 000C 	move.l 12(%a1),%d1
 654 0504 200E      	move.l %fp,%d0
 655 0506 5180      	subq.l #8,%d0
 656 0508 2F00      	move.l %d0,-(%sp)
 657 050a 2F08      	move.l %a0,-(%sp)
 658 050c 4878 0002 	pea 2.w
 659 0510 2F01      	move.l %d1,-(%sp)
 660 0512 2F2E 0008 	move.l 8(%fp),-(%sp)
68K GAS   			page 13


 661 0516 4EBA FBD6 	jsr pnum
 662 051a 4FEF 0014 	lea (20,%sp),%sp
 663 051e 4A80      	tst.l %d0
 664 0520 6700 0566 	jeq .L86
 665 0524 4280      	clr.l %d0
 666 0526 6000 05C0 	jra .L43
 667               	.L22:
 668 052a 206E 000C 	move.l 12(%fp),%a0
 669 052e 202E 0014 	move.l 20(%fp),%d0
 670 0532 2240      	move.l %d0,%a1
 671 0534 2229 0008 	move.l 8(%a1),%d1
 672 0538 200E      	move.l %fp,%d0
 673 053a 5180      	subq.l #8,%d0
 674 053c 2F00      	move.l %d0,-(%sp)
 675 053e 2F08      	move.l %a0,-(%sp)
 676 0540 4878 0002 	pea 2.w
 677 0544 2F01      	move.l %d1,-(%sp)
 678 0546 2F2E 0008 	move.l 8(%fp),-(%sp)
 679 054a 4EBA FBA2 	jsr pnum
 680 054e 4FEF 0014 	lea (20,%sp),%sp
 681 0552 4A80      	tst.l %d0
 682 0554 6700 0536 	jeq .L87
 683 0558 4280      	clr.l %d0
 684 055a 6000 058C 	jra .L43
 685               	.L34:
 686 055e 226E 000C 	move.l 12(%fp),%a1
 687 0562 202E 0014 	move.l 20(%fp),%d0
 688 0566 2040      	move.l %d0,%a0
 689 0568 2228 0008 	move.l 8(%a0),%d1
 690 056c 2401      	move.l %d1,%d2
 691 056e 4C3C 2C00 	muls.l #715827883,%d0:%d2
 691      2AAA AAAB 
 692 0576 E280      	asr.l #1,%d0
 693 0578 2401      	move.l %d1,%d2
 694 057a D482      	add.l %d2,%d2
 695 057c 9582      	subx.l %d2,%d2
 696 057e 2042      	move.l %d2,%a0
 697 0580 9088      	sub.l %a0,%d0
 698 0582 2400      	move.l %d0,%d2
 699 0584 E58A      	lsl.l #2,%d2
 700 0586 2042      	move.l %d2,%a0
 701 0588 2008      	move.l %a0,%d0
 702 058a E588      	lsl.l #2,%d0
 703 058c 9088      	sub.l %a0,%d0
 704 058e 2401      	move.l %d1,%d2
 705 0590 9480      	sub.l %d0,%d2
 706 0592 2002      	move.l %d2,%d0
 707 0594 5280      	addq.l #1,%d0
 708 0596 220E      	move.l %fp,%d1
 709 0598 5181      	subq.l #8,%d1
 710 059a 2F01      	move.l %d1,-(%sp)
 711 059c 2F09      	move.l %a1,-(%sp)
 712 059e 4878 0002 	pea 2.w
 713 05a2 2F00      	move.l %d0,-(%sp)
 714 05a4 2F2E 0008 	move.l 8(%fp),-(%sp)
 715 05a8 4EBA FB44 	jsr pnum
 716 05ac 4FEF 0014 	lea (20,%sp),%sp
68K GAS   			page 14


 717 05b0 4A80      	tst.l %d0
 718 05b2 6700 04DC 	jeq .L88
 719 05b6 4280      	clr.l %d0
 720 05b8 6000 052E 	jra .L43
 721               	.L35:
 722 05bc 206E 000C 	move.l 12(%fp),%a0
 723 05c0 202E 0014 	move.l 20(%fp),%d0
 724 05c4 2240      	move.l %d0,%a1
 725 05c6 2229 001C 	move.l 28(%a1),%d1
 726 05ca 200E      	move.l %fp,%d0
 727 05cc 5180      	subq.l #8,%d0
 728 05ce 2F00      	move.l %d0,-(%sp)
 729 05d0 2F08      	move.l %a0,-(%sp)
 730 05d2 4878 0003 	pea 3.w
 731 05d6 2F01      	move.l %d1,-(%sp)
 732 05d8 2F2E 0008 	move.l 8(%fp),-(%sp)
 733 05dc 4EBA FB10 	jsr pnum
 734 05e0 4FEF 0014 	lea (20,%sp),%sp
 735 05e4 4A80      	tst.l %d0
 736 05e6 6700 04AC 	jeq .L89
 737 05ea 4280      	clr.l %d0
 738 05ec 6000 04FA 	jra .L43
 739               	.L36:
 740 05f0 206E 000C 	move.l 12(%fp),%a0
 741 05f4 202E 0014 	move.l 20(%fp),%d0
 742 05f8 2240      	move.l %d0,%a1
 743 05fa 2229 0010 	move.l 16(%a1),%d1
 744 05fe 200E      	move.l %fp,%d0
 745 0600 5180      	subq.l #8,%d0
 746 0602 2F00      	move.l %d0,-(%sp)
 747 0604 2F08      	move.l %a0,-(%sp)
 748 0606 4878 0002 	pea 2.w
 749 060a 2F01      	move.l %d1,-(%sp)
 750 060c 2F2E 0008 	move.l 8(%fp),-(%sp)
 751 0610 4EBA FADC 	jsr pnum
 752 0614 4FEF 0014 	lea (20,%sp),%sp
 753 0618 4A80      	tst.l %d0
 754 061a 6700 047C 	jeq .L90
 755 061e 4280      	clr.l %d0
 756 0620 6000 04C6 	jra .L43
 757               	.L23:
 758 0624 206E 000C 	move.l 12(%fp),%a0
 759 0628 202E 0014 	move.l 20(%fp),%d0
 760 062c 2240      	move.l %d0,%a1
 761 062e 2229 0004 	move.l 4(%a1),%d1
 762 0632 200E      	move.l %fp,%d0
 763 0634 5180      	subq.l #8,%d0
 764 0636 2F00      	move.l %d0,-(%sp)
 765 0638 2F08      	move.l %a0,-(%sp)
 766 063a 4878 0002 	pea 2.w
 767 063e 2F01      	move.l %d1,-(%sp)
 768 0640 2F2E 0008 	move.l 8(%fp),-(%sp)
 769 0644 4EBA FAA8 	jsr pnum
 770 0648 4FEF 0014 	lea (20,%sp),%sp
 771 064c 4A80      	tst.l %d0
 772 064e 6700 044C 	jeq .L91
 773 0652 4280      	clr.l %d0
68K GAS   			page 15


 774 0654 6000 0492 	jra .L43
 775               	.L24:
 776 0658 206E 000C 	move.l 12(%fp),%a0
 777 065c 202E 0014 	move.l 20(%fp),%d0
 778 0660 2240      	move.l %d0,%a1
 779 0662 2029 0008 	move.l 8(%a1),%d0
 780 0666 2400      	move.l %d0,%d2
 781 0668 4C3C 2C01 	muls.l #715827883,%d1:%d2
 781      2AAA AAAB 
 782 0670 E281      	asr.l #1,%d1
 783 0672 D080      	add.l %d0,%d0
 784 0674 9180      	subx.l %d0,%d0
 785 0676 2401      	move.l %d1,%d2
 786 0678 9480      	sub.l %d0,%d2
 787 067a 2002      	move.l %d2,%d0
 788 067c 2230 0DB0 	move.l _ampm(%d0.l*4),%d1
 788      0000 0000 
 789 0684 200E      	move.l %fp,%d0
 790 0686 5180      	subq.l #8,%d0
 791 0688 2F00      	move.l %d0,-(%sp)
 792 068a 2F08      	move.l %a0,-(%sp)
 793 068c 2F01      	move.l %d1,-(%sp)
 794 068e 2F2E 0008 	move.l 8(%fp),-(%sp)
 795 0692 4EBA F96C 	jsr pstr
 796 0696 4FEF 0010 	lea (16,%sp),%sp
 797 069a 4A80      	tst.l %d0
 798 069c 6700 0402 	jeq .L92
 799 06a0 4280      	clr.l %d0
 800 06a2 6000 0444 	jra .L43
 801               	.L25:
 802 06a6 206E 000C 	move.l 12(%fp),%a0
 803 06aa 202E 0014 	move.l 20(%fp),%d0
 804 06ae 2240      	move.l %d0,%a1
 805 06b0 2211      	move.l (%a1),%d1
 806 06b2 200E      	move.l %fp,%d0
 807 06b4 5180      	subq.l #8,%d0
 808 06b6 2F00      	move.l %d0,-(%sp)
 809 06b8 2F08      	move.l %a0,-(%sp)
 810 06ba 4878 0002 	pea 2.w
 811 06be 2F01      	move.l %d1,-(%sp)
 812 06c0 2F2E 0008 	move.l 8(%fp),-(%sp)
 813 06c4 4EBA FA28 	jsr pnum
 814 06c8 4FEF 0014 	lea (20,%sp),%sp
 815 06cc 4A80      	tst.l %d0
 816 06ce 6700 03D4 	jeq .L93
 817 06d2 4280      	clr.l %d0
 818 06d4 6000 0412 	jra .L43
 819               	.L26:
 820 06d8 206E 000C 	move.l 12(%fp),%a0
 821 06dc 202E 0014 	move.l 20(%fp),%d0
 822 06e0 2240      	move.l %d0,%a1
 823 06e2 2029 001C 	move.l 28(%a1),%d0
 824 06e6 2200      	move.l %d0,%d1
 825 06e8 5381      	subq.l #1,%d1
 826 06ea 202E 0014 	move.l 20(%fp),%d0
 827 06ee 2240      	move.l %d0,%a1
 828 06f0 2029 0018 	move.l 24(%a1),%d0
68K GAS   			page 16


 829 06f4 7407      	moveq #7,%d2
 830 06f6 9480      	sub.l %d0,%d2
 831 06f8 2002      	move.l %d2,%d0
 832 06fa D081      	add.l %d1,%d0
 833 06fc 2400      	move.l %d0,%d2
 834 06fe 4C3C 2C01 	muls.l #-1840700269,%d1:%d2
 834      9249 2493 
 835 0706 D280      	add.l %d0,%d1
 836 0708 E481      	asr.l #2,%d1
 837 070a D080      	add.l %d0,%d0
 838 070c 9180      	subx.l %d0,%d0
 839 070e 2401      	move.l %d1,%d2
 840 0710 9480      	sub.l %d0,%d2
 841 0712 2002      	move.l %d2,%d0
 842 0714 220E      	move.l %fp,%d1
 843 0716 5181      	subq.l #8,%d1
 844 0718 2F01      	move.l %d1,-(%sp)
 845 071a 2F08      	move.l %a0,-(%sp)
 846 071c 4878 0002 	pea 2.w
 847 0720 2F00      	move.l %d0,-(%sp)
 848 0722 2F2E 0008 	move.l 8(%fp),-(%sp)
 849 0726 4EBA F9C6 	jsr pnum
 850 072a 4FEF 0014 	lea (20,%sp),%sp
 851 072e 4A80      	tst.l %d0
 852 0730 6700 0376 	jeq .L94
 853 0734 4280      	clr.l %d0
 854 0736 6000 03B0 	jra .L43
 855               	.L37:
 856 073a 206E 000C 	move.l 12(%fp),%a0
 857 073e 202E 0014 	move.l 20(%fp),%d0
 858 0742 2240      	move.l %d0,%a1
 859 0744 2229 0018 	move.l 24(%a1),%d1
 860 0748 200E      	move.l %fp,%d0
 861 074a 5180      	subq.l #8,%d0
 862 074c 2F00      	move.l %d0,-(%sp)
 863 074e 2F08      	move.l %a0,-(%sp)
 864 0750 4878 0001 	pea 1.w
 865 0754 2F01      	move.l %d1,-(%sp)
 866 0756 2F2E 0008 	move.l 8(%fp),-(%sp)
 867 075a 4EBA F992 	jsr pnum
 868 075e 4FEF 0014 	lea (20,%sp),%sp
 869 0762 4A80      	tst.l %d0
 870 0764 6700 0346 	jeq .L95
 871 0768 4280      	clr.l %d0
 872 076a 6000 037C 	jra .L43
 873               	.L27:
 874 076e 206E 000C 	move.l 12(%fp),%a0
 875 0772 202E 0014 	move.l 20(%fp),%d0
 876 0776 2240      	move.l %d0,%a1
 877 0778 2029 001C 	move.l 28(%a1),%d0
 878 077c 2200      	move.l %d0,%d1
 879 077e 5381      	subq.l #1,%d1
 880 0780 202E 0014 	move.l 20(%fp),%d0
 881 0784 2240      	move.l %d0,%a1
 882 0786 2029 0018 	move.l 24(%a1),%d0
 883 078a 7407      	moveq #7,%d2
 884 078c 9480      	sub.l %d0,%d2
68K GAS   			page 17


 885 078e 2002      	move.l %d2,%d0
 886 0790 D081      	add.l %d1,%d0
 887 0792 2400      	move.l %d0,%d2
 888 0794 4C3C 2C01 	muls.l #-1840700269,%d1:%d2
 888      9249 2493 
 889 079c D280      	add.l %d0,%d1
 890 079e E481      	asr.l #2,%d1
 891 07a0 D080      	add.l %d0,%d0
 892 07a2 9180      	subx.l %d0,%d0
 893 07a4 2401      	move.l %d1,%d2
 894 07a6 9480      	sub.l %d0,%d2
 895 07a8 2002      	move.l %d2,%d0
 896 07aa 220E      	move.l %fp,%d1
 897 07ac 5181      	subq.l #8,%d1
 898 07ae 2F01      	move.l %d1,-(%sp)
 899 07b0 2F08      	move.l %a0,-(%sp)
 900 07b2 4878 0002 	pea 2.w
 901 07b6 2F00      	move.l %d0,-(%sp)
 902 07b8 2F2E 0008 	move.l 8(%fp),-(%sp)
 903 07bc 4EBA F930 	jsr pnum
 904 07c0 4FEF 0014 	lea (20,%sp),%sp
 905 07c4 4A80      	tst.l %d0
 906 07c6 6700 02E8 	jeq .L96
 907 07ca 4280      	clr.l %d0
 908 07cc 6000 031A 	jra .L43
 909               	.L38:
 910 07d0 206E 000C 	move.l 12(%fp),%a0
 911 07d4 202E 0014 	move.l 20(%fp),%d0
 912 07d8 2240      	move.l %d0,%a1
 913 07da 2229 000C 	move.l 12(%a1),%d1
 914 07de 200E      	move.l %fp,%d0
 915 07e0 5180      	subq.l #8,%d0
 916 07e2 2F00      	move.l %d0,-(%sp)
 917 07e4 2F08      	move.l %a0,-(%sp)
 918 07e6 4878 0002 	pea 2.w
 919 07ea 2F01      	move.l %d1,-(%sp)
 920 07ec 2F2E 0008 	move.l 8(%fp),-(%sp)
 921 07f0 4EBA F8FC 	jsr pnum
 922 07f4 4FEF 0014 	lea (20,%sp),%sp
 923 07f8 4A80      	tst.l %d0
 924 07fa 6706      	jeq .L68
 925 07fc 4280      	clr.l %d0
 926 07fe 6000 02E8 	jra .L43
 927               	.L68:
 928 0802 222E 000C 	move.l 12(%fp),%d1
 929 0806 200E      	move.l %fp,%d0
 930 0808 5180      	subq.l #8,%d0
 931 080a 2F00      	move.l %d0,-(%sp)
 932 080c 2F01      	move.l %d1,-(%sp)
 933 080e 4879 0000 	pea .LC39
 933      0000 
 934 0814 2F2E 0008 	move.l 8(%fp),-(%sp)
 935 0818 4EBA F7E6 	jsr pstr
 936 081c 4FEF 0010 	lea (16,%sp),%sp
 937 0820 4A80      	tst.l %d0
 938 0822 6706      	jeq .L69
 939 0824 4280      	clr.l %d0
68K GAS   			page 18


 940 0826 6000 02C0 	jra .L43
 941               	.L69:
 942 082a 206E 000C 	move.l 12(%fp),%a0
 943 082e 202E 0014 	move.l 20(%fp),%d0
 944 0832 2240      	move.l %d0,%a1
 945 0834 2029 0014 	move.l 20(%a1),%d0
 946 0838 0680 0000 	add.l #1900,%d0
 946      076C 
 947 083e 220E      	move.l %fp,%d1
 948 0840 5181      	subq.l #8,%d1
 949 0842 2F01      	move.l %d1,-(%sp)
 950 0844 2F08      	move.l %a0,-(%sp)
 951 0846 4878 0004 	pea 4.w
 952 084a 2F00      	move.l %d0,-(%sp)
 953 084c 2F2E 0008 	move.l 8(%fp),-(%sp)
 954 0850 4EBA F89C 	jsr pnum
 955 0854 4FEF 0014 	lea (20,%sp),%sp
 956 0858 4A80      	tst.l %d0
 957 085a 6700 0258 	jeq .L97
 958 085e 4280      	clr.l %d0
 959 0860 6000 0286 	jra .L43
 960               	.L28:
 961 0864 206E 000C 	move.l 12(%fp),%a0
 962 0868 202E 0014 	move.l 20(%fp),%d0
 963 086c 2240      	move.l %d0,%a1
 964 086e 2229 0008 	move.l 8(%a1),%d1
 965 0872 200E      	move.l %fp,%d0
 966 0874 5180      	subq.l #8,%d0
 967 0876 2F00      	move.l %d0,-(%sp)
 968 0878 2F08      	move.l %a0,-(%sp)
 969 087a 4878 0002 	pea 2.w
 970 087e 2F01      	move.l %d1,-(%sp)
 971 0880 2F2E 0008 	move.l 8(%fp),-(%sp)
 972 0884 4EBA F868 	jsr pnum
 973 0888 4FEF 0014 	lea (20,%sp),%sp
 974 088c 4A80      	tst.l %d0
 975 088e 6706      	jeq .L71
 976 0890 4280      	clr.l %d0
 977 0892 6000 0254 	jra .L43
 978               	.L71:
 979 0896 222E 000C 	move.l 12(%fp),%d1
 980 089a 200E      	move.l %fp,%d0
 981 089c 5180      	subq.l #8,%d0
 982 089e 2F00      	move.l %d0,-(%sp)
 983 08a0 2F01      	move.l %d1,-(%sp)
 984 08a2 4879 0000 	pea .LC40
 984      0000 
 985 08a8 2F2E 0008 	move.l 8(%fp),-(%sp)
 986 08ac 4EBA F752 	jsr pstr
 987 08b0 4FEF 0010 	lea (16,%sp),%sp
 988 08b4 4A80      	tst.l %d0
 989 08b6 6706      	jeq .L72
 990 08b8 4280      	clr.l %d0
 991 08ba 6000 022C 	jra .L43
 992               	.L72:
 993 08be 206E 000C 	move.l 12(%fp),%a0
 994 08c2 202E 0014 	move.l 20(%fp),%d0
68K GAS   			page 19


 995 08c6 2240      	move.l %d0,%a1
 996 08c8 2229 0004 	move.l 4(%a1),%d1
 997 08cc 200E      	move.l %fp,%d0
 998 08ce 5180      	subq.l #8,%d0
 999 08d0 2F00      	move.l %d0,-(%sp)
 1000 08d2 2F08      	move.l %a0,-(%sp)
 1001 08d4 4878 0002 	pea 2.w
 1002 08d8 2F01      	move.l %d1,-(%sp)
 1003 08da 2F2E 0008 	move.l 8(%fp),-(%sp)
 1004 08de 4EBA F80E 	jsr pnum
 1005 08e2 4FEF 0014 	lea (20,%sp),%sp
 1006 08e6 4A80      	tst.l %d0
 1007 08e8 6706      	jeq .L73
 1008 08ea 4280      	clr.l %d0
 1009 08ec 6000 01FA 	jra .L43
 1010               	.L73:
 1011 08f0 222E 000C 	move.l 12(%fp),%d1
 1012 08f4 200E      	move.l %fp,%d0
 1013 08f6 5180      	subq.l #8,%d0
 1014 08f8 2F00      	move.l %d0,-(%sp)
 1015 08fa 2F01      	move.l %d1,-(%sp)
 1016 08fc 4879 0000 	pea .LC40
 1016      0000 
 1017 0902 2F2E 0008 	move.l 8(%fp),-(%sp)
 1018 0906 4EBA F6F8 	jsr pstr
 1019 090a 4FEF 0010 	lea (16,%sp),%sp
 1020 090e 4A80      	tst.l %d0
 1021 0910 6706      	jeq .L74
 1022 0912 4280      	clr.l %d0
 1023 0914 6000 01D2 	jra .L43
 1024               	.L74:
 1025 0918 206E 000C 	move.l 12(%fp),%a0
 1026 091c 202E 0014 	move.l 20(%fp),%d0
 1027 0920 2240      	move.l %d0,%a1
 1028 0922 2211      	move.l (%a1),%d1
 1029 0924 200E      	move.l %fp,%d0
 1030 0926 5180      	subq.l #8,%d0
 1031 0928 2F00      	move.l %d0,-(%sp)
 1032 092a 2F08      	move.l %a0,-(%sp)
 1033 092c 4878 0002 	pea 2.w
 1034 0930 2F01      	move.l %d1,-(%sp)
 1035 0932 2F2E 0008 	move.l 8(%fp),-(%sp)
 1036 0936 4EBA F7B6 	jsr pnum
 1037 093a 4FEF 0014 	lea (20,%sp),%sp
 1038 093e 4A80      	tst.l %d0
 1039 0940 6700 0176 	jeq .L98
 1040 0944 4280      	clr.l %d0
 1041 0946 6000 01A0 	jra .L43
 1042               	.L39:
 1043 094a 226E 000C 	move.l 12(%fp),%a1
 1044 094e 202E 0014 	move.l 20(%fp),%d0
 1045 0952 2040      	move.l %d0,%a0
 1046 0954 2228 0014 	move.l 20(%a0),%d1
 1047 0958 2401      	move.l %d1,%d2
 1048 095a 4C3C 2C00 	muls.l #1374389535,%d0:%d2
 1048      51EB 851F 
 1049 0962 EA80      	asr.l #5,%d0
68K GAS   			page 20


 1050 0964 2401      	move.l %d1,%d2
 1051 0966 D482      	add.l %d2,%d2
 1052 0968 9582      	subx.l %d2,%d2
 1053 096a 2042      	move.l %d2,%a0
 1054 096c 9088      	sub.l %a0,%d0
 1055 096e E588      	lsl.l #2,%d0
 1056 0970 2400      	move.l %d0,%d2
 1057 0972 E58A      	lsl.l #2,%d2
 1058 0974 2042      	move.l %d2,%a0
 1059 0976 D088      	add.l %a0,%d0
 1060 0978 2400      	move.l %d0,%d2
 1061 097a E58A      	lsl.l #2,%d2
 1062 097c 2042      	move.l %d2,%a0
 1063 097e D088      	add.l %a0,%d0
 1064 0980 2401      	move.l %d1,%d2
 1065 0982 9480      	sub.l %d0,%d2
 1066 0984 2002      	move.l %d2,%d0
 1067 0986 220E      	move.l %fp,%d1
 1068 0988 5181      	subq.l #8,%d1
 1069 098a 2F01      	move.l %d1,-(%sp)
 1070 098c 2F09      	move.l %a1,-(%sp)
 1071 098e 4878 0002 	pea 2.w
 1072 0992 2F00      	move.l %d0,-(%sp)
 1073 0994 2F2E 0008 	move.l 8(%fp),-(%sp)
 1074 0998 4EBA F754 	jsr pnum
 1075 099c 4FEF 0014 	lea (20,%sp),%sp
 1076 09a0 4A80      	tst.l %d0
 1077 09a2 6700 0118 	jeq .L99
 1078 09a6 4280      	clr.l %d0
 1079 09a8 6000 013E 	jra .L43
 1080               	.L29:
 1081 09ac 206E 000C 	move.l 12(%fp),%a0
 1082 09b0 202E 0014 	move.l 20(%fp),%d0
 1083 09b4 2240      	move.l %d0,%a1
 1084 09b6 2029 0014 	move.l 20(%a1),%d0
 1085 09ba 0680 0000 	add.l #1900,%d0
 1085      076C 
 1086 09c0 220E      	move.l %fp,%d1
 1087 09c2 5181      	subq.l #8,%d1
 1088 09c4 2F01      	move.l %d1,-(%sp)
 1089 09c6 2F08      	move.l %a0,-(%sp)
 1090 09c8 4878 0004 	pea 4.w
 1091 09cc 2F00      	move.l %d0,-(%sp)
 1092 09ce 2F2E 0008 	move.l 8(%fp),-(%sp)
 1093 09d2 4EBA F71A 	jsr pnum
 1094 09d6 4FEF 0014 	lea (20,%sp),%sp
 1095 09da 4A80      	tst.l %d0
 1096 09dc 6700 00E2 	jeq .L100
 1097 09e0 4280      	clr.l %d0
 1098 09e2 6000 0104 	jra .L43
 1099               	.L40:
 1100 09e6 222E 000C 	move.l 12(%fp),%d1
 1101 09ea 200E      	move.l %fp,%d0
 1102 09ec 5180      	subq.l #8,%d0
 1103 09ee 2F00      	move.l %d0,-(%sp)
 1104 09f0 2F01      	move.l %d1,-(%sp)
 1105 09f2 4879 0000 	pea .LC41
68K GAS   			page 21


 1105      0000 
 1106 09f8 2F2E 0008 	move.l 8(%fp),-(%sp)
 1107 09fc 4EBA F602 	jsr pstr
 1108 0a00 4FEF 0010 	lea (16,%sp),%sp
 1109 0a04 4A80      	tst.l %d0
 1110 0a06 6700 00BC 	jeq .L101
 1111 0a0a 4280      	clr.l %d0
 1112 0a0c 6000 00DA 	jra .L43
 1113               	.L19:
 1114 0a10 206E 000C 	move.l 12(%fp),%a0
 1115 0a14 202E FFFC 	move.l -4(%fp),%d0
 1116 0a18 D0AE 0010 	add.l 16(%fp),%d0
 1117 0a1c 2240      	move.l %d0,%a1
 1118 0a1e 1011      	move.b (%a1),%d0
 1119 0a20 49C0      	extb.l %d0
 1120 0a22 220E      	move.l %fp,%d1
 1121 0a24 5181      	subq.l #8,%d1
 1122 0a26 2F01      	move.l %d1,-(%sp)
 1123 0a28 2F08      	move.l %a0,-(%sp)
 1124 0a2a 2F00      	move.l %d0,-(%sp)
 1125 0a2c 2F2E 0008 	move.l 8(%fp),-(%sp)
 1126 0a30 4EBA F662 	jsr pchar
 1127 0a34 4FEF 0010 	lea (16,%sp),%sp
 1128 0a38 4A80      	tst.l %d0
 1129 0a3a 6700 008C 	jeq .L102
 1130 0a3e 4280      	clr.l %d0
 1131 0a40 6000 00A6 	jra .L43
 1132               	.L18:
 1133 0a44 206E 000C 	move.l 12(%fp),%a0
 1134 0a48 202E FFFC 	move.l -4(%fp),%d0
 1135 0a4c D0AE 0010 	add.l 16(%fp),%d0
 1136 0a50 2240      	move.l %d0,%a1
 1137 0a52 1011      	move.b (%a1),%d0
 1138 0a54 49C0      	extb.l %d0
 1139 0a56 220E      	move.l %fp,%d1
 1140 0a58 5181      	subq.l #8,%d1
 1141 0a5a 2F01      	move.l %d1,-(%sp)
 1142 0a5c 2F08      	move.l %a0,-(%sp)
 1143 0a5e 2F00      	move.l %d0,-(%sp)
 1144 0a60 2F2E 0008 	move.l 8(%fp),-(%sp)
 1145 0a64 4EBA F62E 	jsr pchar
 1146 0a68 4FEF 0010 	lea (16,%sp),%sp
 1147 0a6c 4A80      	tst.l %d0
 1148 0a6e 675A      	jeq .L79
 1149 0a70 4280      	clr.l %d0
 1150 0a72 6074      	jra .L43
 1151               	.L81:
 1152 0a74 4E71      	nop
 1153 0a76 6052      	jra .L79
 1154               	.L82:
 1155 0a78 4E71      	nop
 1156 0a7a 604E      	jra .L79
 1157               	.L83:
 1158 0a7c 4E71      	nop
 1159 0a7e 604A      	jra .L79
 1160               	.L84:
 1161 0a80 4E71      	nop
68K GAS   			page 22


 1162 0a82 6046      	jra .L79
 1163               	.L85:
 1164 0a84 4E71      	nop
 1165 0a86 6042      	jra .L79
 1166               	.L86:
 1167 0a88 4E71      	nop
 1168 0a8a 603E      	jra .L79
 1169               	.L87:
 1170 0a8c 4E71      	nop
 1171 0a8e 603A      	jra .L79
 1172               	.L88:
 1173 0a90 4E71      	nop
 1174 0a92 6036      	jra .L79
 1175               	.L89:
 1176 0a94 4E71      	nop
 1177 0a96 6032      	jra .L79
 1178               	.L90:
 1179 0a98 4E71      	nop
 1180 0a9a 602E      	jra .L79
 1181               	.L91:
 1182 0a9c 4E71      	nop
 1183 0a9e 602A      	jra .L79
 1184               	.L92:
 1185 0aa0 4E71      	nop
 1186 0aa2 6026      	jra .L79
 1187               	.L93:
 1188 0aa4 4E71      	nop
 1189 0aa6 6022      	jra .L79
 1190               	.L94:
 1191 0aa8 4E71      	nop
 1192 0aaa 601E      	jra .L79
 1193               	.L95:
 1194 0aac 4E71      	nop
 1195 0aae 601A      	jra .L79
 1196               	.L96:
 1197 0ab0 4E71      	nop
 1198 0ab2 6016      	jra .L79
 1199               	.L97:
 1200 0ab4 4E71      	nop
 1201 0ab6 6012      	jra .L79
 1202               	.L98:
 1203 0ab8 4E71      	nop
 1204 0aba 600E      	jra .L79
 1205               	.L99:
 1206 0abc 4E71      	nop
 1207 0abe 600A      	jra .L79
 1208               	.L100:
 1209 0ac0 4E71      	nop
 1210 0ac2 6006      	jra .L79
 1211               	.L101:
 1212 0ac4 4E71      	nop
 1213 0ac6 6002      	jra .L79
 1214               	.L102:
 1215 0ac8 4E71      	nop
 1216               	.L79:
 1217 0aca 52AE FFFC 	addq.l #1,-4(%fp)
 1218               	.L17:
68K GAS   			page 23


 1219 0ace 242E FFFC 	move.l -4(%fp),%d2
 1220 0ad2 2F2E 0010 	move.l 16(%fp),-(%sp)
 1221 0ad6 4EB9 0000 	jsr strlen
 1221      0000 
 1222 0adc 588F      	addq.l #4,%sp
 1223 0ade B082      	cmp.l %d2,%d0
 1224 0ae0 6200 F6E6 	jhi .L80
 1225 0ae4 202E FFF8 	move.l -8(%fp),%d0
 1226               	.L43:
 1227 0ae8 242E FFF4 	move.l -12(%fp),%d2
 1228 0aec 4E5E      	unlk %fp
 1229 0aee 4E75      	rts
 1231               	.ident"GCC: (GNU) 4.5.1"
 1232               	.section.note.GNU-stack,"",@progbits
68K GAS   			page 24


DEFINED SYMBOLS
                            *ABS*:00000000 strftime.c
    {standard input}:22     .data:00000000 _days
    {standard input}:59     .data:0000001c _months
    {standard input}:81     .data:0000004c _ampm
    {standard input}:103    .data:00000054 _ldays
    {standard input}:138    .data:00000070 _lmonths
    {standard input}:154    .text:00000000 pstr
    {standard input}:217    .text:00000094 pchar
    {standard input}:255    .text:000000ee pnum
    {standard input}:344    .text:000001b6 strftime

UNDEFINED SYMBOLS
strlen
