68K GAS   			page 1


   1               	
   2               	.file"libgcc2.c"
   3               	.text
   4               	.align2
   5               	.globl__udivmoddi4
   7               	__udivmoddi4:
   8 0000 4E56 FFF0 	link.w %fp,#-16
   9 0004 2F03      	move.l %d3,-(%sp)
  10 0006 2F02      	move.l %d2,-(%sp)
  11 0008 42AE FFF8 	clr.l -8(%fp)
  12 000c 42AE FFFC 	clr.l -4(%fp)
  13 0010 42AE FFF0 	clr.l -16(%fp)
  14 0014 2D7C 0000 	move.l #1,-12(%fp)
  14      0001 FFF4 
  15 001c 242E 0010 	move.l 16(%fp),%d2
  16 0020 262E 0014 	move.l 20(%fp),%d3
  17 0024 4483      	neg.l %d3
  18 0026 4082      	negx.l %d2
  19 0028 6640      	jne .L10
  20 002a 206E 0014 	move.l 20(%fp),%a0
  21 002e 7601      	moveq #1,%d3
  22 0030 2008      	move.l %a0,%d0
  23 0032 4C40 3000 	divul.l %d0,%d0:%d3
  24 0036 2043      	move.l %d3,%a0
  25 0038 2208      	move.l %a0,%d1
  26 003a 4280      	clr.l %d0
  27 003c 6000 00DA 	jra .L3
  28               	.L5:
  29 0040 202E 0010 	move.l 16(%fp),%d0
  30 0044 222E 0014 	move.l 20(%fp),%d1
  31 0048 D281      	add.l %d1,%d1
  32 004a D180      	addx.l %d0,%d0
  33 004c 2D40 0010 	move.l %d0,16(%fp)
  34 0050 2D41 0014 	move.l %d1,20(%fp)
  35 0054 202E FFF0 	move.l -16(%fp),%d0
  36 0058 222E FFF4 	move.l -12(%fp),%d1
  37 005c D281      	add.l %d1,%d1
  38 005e D180      	addx.l %d0,%d0
  39 0060 2D40 FFF0 	move.l %d0,-16(%fp)
  40 0064 2D41 FFF4 	move.l %d1,-12(%fp)
  41 0068 6002      	jra .L4
  42               	.L10:
  43 006a 4E71      	nop
  44               	.L4:
  45 006c 202E 0010 	move.l 16(%fp),%d0
  46 0070 222E 0014 	move.l 20(%fp),%d1
  47 0074 9482      	sub.l %d2,%d2
  48 0076 4A81      	tst.l %d1
  49 0078 9182      	subx.l %d2,%d0
  50 007a 6CC4      	jge .L5
  51 007c 606A      	jra .L6
  52               	.L8:
  53 007e 202E 0010 	move.l 16(%fp),%d0
  54 0082 222E 0014 	move.l 20(%fp),%d1
  55 0086 242E 0008 	move.l 8(%fp),%d2
  56 008a 262E 000C 	move.l 12(%fp),%d3
  57 008e 9283      	sub.l %d3,%d1
68K GAS   			page 2


  58 0090 9182      	subx.l %d2,%d0
  59 0092 622C      	jhi .L7
  60 0094 202E 0010 	move.l 16(%fp),%d0
  61 0098 222E 0014 	move.l 20(%fp),%d1
  62 009c 93AE 000C 	sub.l %d1,12(%fp)
  63 00a0 242E 0008 	move.l 8(%fp),%d2
  64 00a4 9580      	subx.l %d0,%d2
  65 00a6 2D42 0008 	move.l %d2,8(%fp)
  66 00aa 202E FFF0 	move.l -16(%fp),%d0
  67 00ae 222E FFF4 	move.l -12(%fp),%d1
  68 00b2 D3AE FFFC 	add.l %d1,-4(%fp)
  69 00b6 242E FFF8 	move.l -8(%fp),%d2
  70 00ba D580      	addx.l %d0,%d2
  71 00bc 2D42 FFF8 	move.l %d2,-8(%fp)
  72               	.L7:
  73 00c0 202E 0010 	move.l 16(%fp),%d0
  74 00c4 222E 0014 	move.l 20(%fp),%d1
  75 00c8 E288      	lsr.l #1,%d0
  76 00ca E291      	roxr.l #1,%d1
  77 00cc 2D40 0010 	move.l %d0,16(%fp)
  78 00d0 2D41 0014 	move.l %d1,20(%fp)
  79 00d4 202E FFF0 	move.l -16(%fp),%d0
  80 00d8 222E FFF4 	move.l -12(%fp),%d1
  81 00dc E288      	lsr.l #1,%d0
  82 00de E291      	roxr.l #1,%d1
  83 00e0 2D40 FFF0 	move.l %d0,-16(%fp)
  84 00e4 2D41 FFF4 	move.l %d1,-12(%fp)
  85               	.L6:
  86 00e8 202E FFF0 	move.l -16(%fp),%d0
  87 00ec 222E FFF4 	move.l -12(%fp),%d1
  88 00f0 4481      	neg.l %d1
  89 00f2 4080      	negx.l %d0
  90 00f4 6688      	jne .L8
  91 00f6 4AAE 0018 	tst.l 24(%fp)
  92 00fa 6714      	jeq .L9
  93 00fc 202E 0018 	move.l 24(%fp),%d0
  94 0100 222E 0008 	move.l 8(%fp),%d1
  95 0104 242E 000C 	move.l 12(%fp),%d2
  96 0108 2040      	move.l %d0,%a0
  97 010a 2081      	move.l %d1,(%a0)
  98 010c 2142 0004 	move.l %d2,4(%a0)
  99               	.L9:
 100 0110 202E FFF8 	move.l -8(%fp),%d0
 101 0114 222E FFFC 	move.l -4(%fp),%d1
 102               	.L3:
 103 0118 2040      	move.l %d0,%a0
 104 011a 2241      	move.l %d1,%a1
 105 011c 2008      	move.l %a0,%d0
 106 011e 2209      	move.l %a1,%d1
 107 0120 241F      	move.l (%sp)+,%d2
 108 0122 261F      	move.l (%sp)+,%d3
 109 0124 4E5E      	unlk %fp
 110 0126 4E75      	rts
 112               	.align2
 113               	.globl__umoddi3
 115               	__umoddi3:
 116 0128 4E56 FFF8 	link.w %fp,#-8
68K GAS   			page 3


 117 012c 200E      	move.l %fp,%d0
 118 012e 5180      	subq.l #8,%d0
 119 0130 2F00      	move.l %d0,-(%sp)
 120 0132 2F2E 0014 	move.l 20(%fp),-(%sp)
 121 0136 2F2E 0010 	move.l 16(%fp),-(%sp)
 122 013a 2F2E 000C 	move.l 12(%fp),-(%sp)
 123 013e 2F2E 0008 	move.l 8(%fp),-(%sp)
 124 0142 4EBA FEBC 	jsr __udivmoddi4
 125 0146 4FEF 0014 	lea (20,%sp),%sp
 126 014a 206E FFF8 	move.l -8(%fp),%a0
 127 014e 226E FFFC 	move.l -4(%fp),%a1
 128 0152 2008      	move.l %a0,%d0
 129 0154 2209      	move.l %a1,%d1
 130 0156 4E5E      	unlk %fp
 131 0158 4E75      	rts
 133               	.align2
 134               	.globl__udivdi3
 136               	__udivdi3:
 137 015a 4E56 0000 	link.w %fp,#0
 138 015e 42A7      	clr.l -(%sp)
 139 0160 2F2E 0014 	move.l 20(%fp),-(%sp)
 140 0164 2F2E 0010 	move.l 16(%fp),-(%sp)
 141 0168 2F2E 000C 	move.l 12(%fp),-(%sp)
 142 016c 2F2E 0008 	move.l 8(%fp),-(%sp)
 143 0170 4EBA FE8E 	jsr __udivmoddi4
 144 0174 4FEF 0014 	lea (20,%sp),%sp
 145 0178 2040      	move.l %d0,%a0
 146 017a 2241      	move.l %d1,%a1
 147 017c 2008      	move.l %a0,%d0
 148 017e 2209      	move.l %a1,%d1
 149 0180 4E5E      	unlk %fp
 150 0182 4E75      	rts
 152               	.ident"GCC: (GNU) 4.5.1"
 153               	.section.note.GNU-stack,"",@progbits
68K GAS   			page 4


DEFINED SYMBOLS
                            *ABS*:00000000 libgcc2.c
    {standard input}:7      .text:00000000 __udivmoddi4
    {standard input}:115    .text:00000128 __umoddi3
    {standard input}:136    .text:0000015a __udivdi3

NO UNDEFINED SYMBOLS
